
MessageBuffer.elf:     file format elf32-littlearm

Sections:
Idx Name          Size      VMA       LMA       File off  Algn
  0 .isr_vector   00000198  08000000  08000000  00001000  2**0
                  CONTENTS, ALLOC, LOAD, READONLY, DATA
  1 .text         000086ec  080001a0  080001a0  000011a0  2**4
                  CONTENTS, ALLOC, LOAD, READONLY, CODE
  2 .rodata       00000474  08008890  08008890  00009890  2**3
                  CONTENTS, ALLOC, LOAD, READONLY, DATA
  3 .ARM.extab    00000000  08008d04  08008d04  0000a1d8  2**0
                  CONTENTS, READONLY
  4 .ARM          00000008  08008d04  08008d04  00009d04  2**2
                  CONTENTS, ALLOC, LOAD, READONLY, DATA
  5 .preinit_array 00000000  08008d0c  08008d0c  0000a1d8  2**0
                  CONTENTS, ALLOC, LOAD, DATA
  6 .init_array   00000004  08008d0c  08008d0c  00009d0c  2**2
                  CONTENTS, ALLOC, LOAD, READONLY, DATA
  7 .fini_array   00000004  08008d10  08008d10  00009d10  2**2
                  CONTENTS, ALLOC, LOAD, READONLY, DATA
  8 .data         000001d8  20000000  08008d14  0000a000  2**2
                  CONTENTS, ALLOC, LOAD, DATA
  9 .bss          00004c2c  200001d8  08008eec  0000a1d8  2**2
                  ALLOC
 10 ._user_heap_stack 00000604  20004e04  08008eec  0000ae04  2**0
                  ALLOC
 11 .ARM.attributes 00000030  00000000  00000000  0000a1d8  2**0
                  CONTENTS, READONLY
 12 .debug_info   00021339  00000000  00000000  0000a208  2**0
                  CONTENTS, READONLY, DEBUGGING, OCTETS
 13 .debug_abbrev 00004404  00000000  00000000  0002b541  2**0
                  CONTENTS, READONLY, DEBUGGING, OCTETS
 14 .debug_loclists 0000e42f  00000000  00000000  0002f945  2**0
                  CONTENTS, READONLY, DEBUGGING, OCTETS
 15 .debug_aranges 000013d8  00000000  00000000  0003dd78  2**3
                  CONTENTS, READONLY, DEBUGGING, OCTETS
 16 .debug_rnglists 000014b1  00000000  00000000  0003f150  2**0
                  CONTENTS, READONLY, DEBUGGING, OCTETS
 17 .debug_macro  0000446d  00000000  00000000  00040601  2**0
                  CONTENTS, READONLY, DEBUGGING, OCTETS
 18 .debug_line   0001d016  00000000  00000000  00044a6e  2**0
                  CONTENTS, READONLY, DEBUGGING, OCTETS
 19 .debug_str    0009c05d  00000000  00000000  00061a84  2**0
                  CONTENTS, READONLY, DEBUGGING, OCTETS
 20 .comment      00000043  00000000  00000000  000fdae1  2**0
                  CONTENTS, READONLY
 21 .debug_frame  00004b7c  00000000  00000000  000fdb24  2**2
                  CONTENTS, READONLY, DEBUGGING, OCTETS
 22 .debug_line_str 0000005e  00000000  00000000  001026a0  2**0
                  CONTENTS, READONLY, DEBUGGING, OCTETS

Disassembly of section .text:

080001a0 <__do_global_dtors_aux>:
 80001a0:	b510      	push	{r4, lr}
 80001a2:	4c05      	ldr	r4, [pc, #20]	@ (80001b8 <__do_global_dtors_aux+0x18>)
 80001a4:	7823      	ldrb	r3, [r4, #0]
 80001a6:	b933      	cbnz	r3, 80001b6 <__do_global_dtors_aux+0x16>
 80001a8:	4b04      	ldr	r3, [pc, #16]	@ (80001bc <__do_global_dtors_aux+0x1c>)
 80001aa:	b113      	cbz	r3, 80001b2 <__do_global_dtors_aux+0x12>
 80001ac:	4804      	ldr	r0, [pc, #16]	@ (80001c0 <__do_global_dtors_aux+0x20>)
 80001ae:	f3af 8000 	nop.w
 80001b2:	2301      	movs	r3, #1
 80001b4:	7023      	strb	r3, [r4, #0]
 80001b6:	bd10      	pop	{r4, pc}
 80001b8:	200001d8 	.word	0x200001d8
 80001bc:	00000000 	.word	0x00000000
 80001c0:	08008874 	.word	0x08008874

080001c4 <frame_dummy>:
 80001c4:	b508      	push	{r3, lr}
 80001c6:	4b03      	ldr	r3, [pc, #12]	@ (80001d4 <frame_dummy+0x10>)
 80001c8:	b11b      	cbz	r3, 80001d2 <frame_dummy+0xe>
 80001ca:	4903      	ldr	r1, [pc, #12]	@ (80001d8 <frame_dummy+0x14>)
 80001cc:	4803      	ldr	r0, [pc, #12]	@ (80001dc <frame_dummy+0x18>)
 80001ce:	f3af 8000 	nop.w
 80001d2:	bd08      	pop	{r3, pc}
 80001d4:	00000000 	.word	0x00000000
 80001d8:	200001dc 	.word	0x200001dc
 80001dc:	08008874 	.word	0x08008874

080001e0 <memchr>:
 80001e0:	f001 01ff 	and.w	r1, r1, #255	@ 0xff
 80001e4:	2a10      	cmp	r2, #16
 80001e6:	db2b      	blt.n	8000240 <memchr+0x60>
 80001e8:	f010 0f07 	tst.w	r0, #7
 80001ec:	d008      	beq.n	8000200 <memchr+0x20>
 80001ee:	f810 3b01 	ldrb.w	r3, [r0], #1
 80001f2:	3a01      	subs	r2, #1
 80001f4:	428b      	cmp	r3, r1
 80001f6:	d02d      	beq.n	8000254 <memchr+0x74>
 80001f8:	f010 0f07 	tst.w	r0, #7
 80001fc:	b342      	cbz	r2, 8000250 <memchr+0x70>
 80001fe:	d1f6      	bne.n	80001ee <memchr+0xe>
 8000200:	b4f0      	push	{r4, r5, r6, r7}
 8000202:	ea41 2101 	orr.w	r1, r1, r1, lsl #8
 8000206:	ea41 4101 	orr.w	r1, r1, r1, lsl #16
 800020a:	f022 0407 	bic.w	r4, r2, #7
 800020e:	f07f 0700 	mvns.w	r7, #0
 8000212:	2300      	movs	r3, #0
 8000214:	e8f0 5602 	ldrd	r5, r6, [r0], #8
 8000218:	3c08      	subs	r4, #8
 800021a:	ea85 0501 	eor.w	r5, r5, r1
 800021e:	ea86 0601 	eor.w	r6, r6, r1
 8000222:	fa85 f547 	uadd8	r5, r5, r7
 8000226:	faa3 f587 	sel	r5, r3, r7
 800022a:	fa86 f647 	uadd8	r6, r6, r7
 800022e:	faa5 f687 	sel	r6, r5, r7
 8000232:	b98e      	cbnz	r6, 8000258 <memchr+0x78>
 8000234:	d1ee      	bne.n	8000214 <memchr+0x34>
 8000236:	bcf0      	pop	{r4, r5, r6, r7}
 8000238:	f001 01ff 	and.w	r1, r1, #255	@ 0xff
 800023c:	f002 0207 	and.w	r2, r2, #7
 8000240:	b132      	cbz	r2, 8000250 <memchr+0x70>
 8000242:	f810 3b01 	ldrb.w	r3, [r0], #1
 8000246:	3a01      	subs	r2, #1
 8000248:	ea83 0301 	eor.w	r3, r3, r1
 800024c:	b113      	cbz	r3, 8000254 <memchr+0x74>
 800024e:	d1f8      	bne.n	8000242 <memchr+0x62>
 8000250:	2000      	movs	r0, #0
 8000252:	4770      	bx	lr
 8000254:	3801      	subs	r0, #1
 8000256:	4770      	bx	lr
 8000258:	2d00      	cmp	r5, #0
 800025a:	bf06      	itte	eq
 800025c:	4635      	moveq	r5, r6
 800025e:	3803      	subeq	r0, #3
 8000260:	3807      	subne	r0, #7
 8000262:	f015 0f01 	tst.w	r5, #1
 8000266:	d107      	bne.n	8000278 <memchr+0x98>
 8000268:	3001      	adds	r0, #1
 800026a:	f415 7f80 	tst.w	r5, #256	@ 0x100
 800026e:	bf02      	ittt	eq
 8000270:	3001      	addeq	r0, #1
 8000272:	f415 3fc0 	tsteq.w	r5, #98304	@ 0x18000
 8000276:	3001      	addeq	r0, #1
 8000278:	bcf0      	pop	{r4, r5, r6, r7}
 800027a:	3801      	subs	r0, #1
 800027c:	4770      	bx	lr
 800027e:	bf00      	nop

08000280 <strlen>:
 8000280:	4603      	mov	r3, r0
 8000282:	f813 2b01 	ldrb.w	r2, [r3], #1
 8000286:	2a00      	cmp	r2, #0
 8000288:	d1fb      	bne.n	8000282 <strlen+0x2>
 800028a:	1a18      	subs	r0, r3, r0
 800028c:	3801      	subs	r0, #1
 800028e:	4770      	bx	lr

08000290 <__aeabi_drsub>:
 8000290:	f081 4100 	eor.w	r1, r1, #2147483648	@ 0x80000000
 8000294:	e002      	b.n	800029c <__adddf3>
 8000296:	bf00      	nop

08000298 <__aeabi_dsub>:
 8000298:	f083 4300 	eor.w	r3, r3, #2147483648	@ 0x80000000

0800029c <__adddf3>:
 800029c:	b530      	push	{r4, r5, lr}
 800029e:	ea4f 0441 	mov.w	r4, r1, lsl #1
 80002a2:	ea4f 0543 	mov.w	r5, r3, lsl #1
 80002a6:	ea94 0f05 	teq	r4, r5
 80002aa:	bf08      	it	eq
 80002ac:	ea90 0f02 	teqeq	r0, r2
 80002b0:	bf1f      	itttt	ne
 80002b2:	ea54 0c00 	orrsne.w	ip, r4, r0
 80002b6:	ea55 0c02 	orrsne.w	ip, r5, r2
 80002ba:	ea7f 5c64 	mvnsne.w	ip, r4, asr #21
 80002be:	ea7f 5c65 	mvnsne.w	ip, r5, asr #21
 80002c2:	f000 80e2 	beq.w	800048a <__adddf3+0x1ee>
 80002c6:	ea4f 5454 	mov.w	r4, r4, lsr #21
 80002ca:	ebd4 5555 	rsbs	r5, r4, r5, lsr #21
 80002ce:	bfb8      	it	lt
 80002d0:	426d      	neglt	r5, r5
 80002d2:	dd0c      	ble.n	80002ee <__adddf3+0x52>
 80002d4:	442c      	add	r4, r5
 80002d6:	ea80 0202 	eor.w	r2, r0, r2
 80002da:	ea81 0303 	eor.w	r3, r1, r3
 80002de:	ea82 0000 	eor.w	r0, r2, r0
 80002e2:	ea83 0101 	eor.w	r1, r3, r1
 80002e6:	ea80 0202 	eor.w	r2, r0, r2
 80002ea:	ea81 0303 	eor.w	r3, r1, r3
 80002ee:	2d36      	cmp	r5, #54	@ 0x36
 80002f0:	bf88      	it	hi
 80002f2:	bd30      	pophi	{r4, r5, pc}
 80002f4:	f011 4f00 	tst.w	r1, #2147483648	@ 0x80000000
 80002f8:	ea4f 3101 	mov.w	r1, r1, lsl #12
 80002fc:	f44f 1c80 	mov.w	ip, #1048576	@ 0x100000
 8000300:	ea4c 3111 	orr.w	r1, ip, r1, lsr #12
 8000304:	d002      	beq.n	800030c <__adddf3+0x70>
 8000306:	4240      	negs	r0, r0
 8000308:	eb61 0141 	sbc.w	r1, r1, r1, lsl #1
 800030c:	f013 4f00 	tst.w	r3, #2147483648	@ 0x80000000
 8000310:	ea4f 3303 	mov.w	r3, r3, lsl #12
 8000314:	ea4c 3313 	orr.w	r3, ip, r3, lsr #12
 8000318:	d002      	beq.n	8000320 <__adddf3+0x84>
 800031a:	4252      	negs	r2, r2
 800031c:	eb63 0343 	sbc.w	r3, r3, r3, lsl #1
 8000320:	ea94 0f05 	teq	r4, r5
 8000324:	f000 80a7 	beq.w	8000476 <__adddf3+0x1da>
 8000328:	f1a4 0401 	sub.w	r4, r4, #1
 800032c:	f1d5 0e20 	rsbs	lr, r5, #32
 8000330:	db0d      	blt.n	800034e <__adddf3+0xb2>
 8000332:	fa02 fc0e 	lsl.w	ip, r2, lr
 8000336:	fa22 f205 	lsr.w	r2, r2, r5
 800033a:	1880      	adds	r0, r0, r2
 800033c:	f141 0100 	adc.w	r1, r1, #0
 8000340:	fa03 f20e 	lsl.w	r2, r3, lr
 8000344:	1880      	adds	r0, r0, r2
 8000346:	fa43 f305 	asr.w	r3, r3, r5
 800034a:	4159      	adcs	r1, r3
 800034c:	e00e      	b.n	800036c <__adddf3+0xd0>
 800034e:	f1a5 0520 	sub.w	r5, r5, #32
 8000352:	f10e 0e20 	add.w	lr, lr, #32
 8000356:	2a01      	cmp	r2, #1
 8000358:	fa03 fc0e 	lsl.w	ip, r3, lr
 800035c:	bf28      	it	cs
 800035e:	f04c 0c02 	orrcs.w	ip, ip, #2
 8000362:	fa43 f305 	asr.w	r3, r3, r5
 8000366:	18c0      	adds	r0, r0, r3
 8000368:	eb51 71e3 	adcs.w	r1, r1, r3, asr #31
 800036c:	f001 4500 	and.w	r5, r1, #2147483648	@ 0x80000000
 8000370:	d507      	bpl.n	8000382 <__adddf3+0xe6>
 8000372:	f04f 0e00 	mov.w	lr, #0
 8000376:	f1dc 0c00 	rsbs	ip, ip, #0
 800037a:	eb7e 0000 	sbcs.w	r0, lr, r0
 800037e:	eb6e 0101 	sbc.w	r1, lr, r1
 8000382:	f5b1 1f80 	cmp.w	r1, #1048576	@ 0x100000
 8000386:	d31b      	bcc.n	80003c0 <__adddf3+0x124>
 8000388:	f5b1 1f00 	cmp.w	r1, #2097152	@ 0x200000
 800038c:	d30c      	bcc.n	80003a8 <__adddf3+0x10c>
 800038e:	0849      	lsrs	r1, r1, #1
 8000390:	ea5f 0030 	movs.w	r0, r0, rrx
 8000394:	ea4f 0c3c 	mov.w	ip, ip, rrx
 8000398:	f104 0401 	add.w	r4, r4, #1
 800039c:	ea4f 5244 	mov.w	r2, r4, lsl #21
 80003a0:	f512 0f80 	cmn.w	r2, #4194304	@ 0x400000
 80003a4:	f080 809a 	bcs.w	80004dc <__adddf3+0x240>
 80003a8:	f1bc 4f00 	cmp.w	ip, #2147483648	@ 0x80000000
 80003ac:	bf08      	it	eq
 80003ae:	ea5f 0c50 	movseq.w	ip, r0, lsr #1
 80003b2:	f150 0000 	adcs.w	r0, r0, #0
 80003b6:	eb41 5104 	adc.w	r1, r1, r4, lsl #20
 80003ba:	ea41 0105 	orr.w	r1, r1, r5
 80003be:	bd30      	pop	{r4, r5, pc}
 80003c0:	ea5f 0c4c 	movs.w	ip, ip, lsl #1
 80003c4:	4140      	adcs	r0, r0
 80003c6:	eb41 0101 	adc.w	r1, r1, r1
 80003ca:	3c01      	subs	r4, #1
 80003cc:	bf28      	it	cs
 80003ce:	f5b1 1f80 	cmpcs.w	r1, #1048576	@ 0x100000
 80003d2:	d2e9      	bcs.n	80003a8 <__adddf3+0x10c>
 80003d4:	f091 0f00 	teq	r1, #0
 80003d8:	bf04      	itt	eq
 80003da:	4601      	moveq	r1, r0
 80003dc:	2000      	moveq	r0, #0
 80003de:	fab1 f381 	clz	r3, r1
 80003e2:	bf08      	it	eq
 80003e4:	3320      	addeq	r3, #32
 80003e6:	f1a3 030b 	sub.w	r3, r3, #11
 80003ea:	f1b3 0220 	subs.w	r2, r3, #32
 80003ee:	da0c      	bge.n	800040a <__adddf3+0x16e>
 80003f0:	320c      	adds	r2, #12
 80003f2:	dd08      	ble.n	8000406 <__adddf3+0x16a>
 80003f4:	f102 0c14 	add.w	ip, r2, #20
 80003f8:	f1c2 020c 	rsb	r2, r2, #12
 80003fc:	fa01 f00c 	lsl.w	r0, r1, ip
 8000400:	fa21 f102 	lsr.w	r1, r1, r2
 8000404:	e00c      	b.n	8000420 <__adddf3+0x184>
 8000406:	f102 0214 	add.w	r2, r2, #20
 800040a:	bfd8      	it	le
 800040c:	f1c2 0c20 	rsble	ip, r2, #32
 8000410:	fa01 f102 	lsl.w	r1, r1, r2
 8000414:	fa20 fc0c 	lsr.w	ip, r0, ip
 8000418:	bfdc      	itt	le
 800041a:	ea41 010c 	orrle.w	r1, r1, ip
 800041e:	4090      	lslle	r0, r2
 8000420:	1ae4      	subs	r4, r4, r3
 8000422:	bfa2      	ittt	ge
 8000424:	eb01 5104 	addge.w	r1, r1, r4, lsl #20
 8000428:	4329      	orrge	r1, r5
 800042a:	bd30      	popge	{r4, r5, pc}
 800042c:	ea6f 0404 	mvn.w	r4, r4
 8000430:	3c1f      	subs	r4, #31
 8000432:	da1c      	bge.n	800046e <__adddf3+0x1d2>
 8000434:	340c      	adds	r4, #12
 8000436:	dc0e      	bgt.n	8000456 <__adddf3+0x1ba>
 8000438:	f104 0414 	add.w	r4, r4, #20
 800043c:	f1c4 0220 	rsb	r2, r4, #32
 8000440:	fa20 f004 	lsr.w	r0, r0, r4
 8000444:	fa01 f302 	lsl.w	r3, r1, r2
 8000448:	ea40 0003 	orr.w	r0, r0, r3
 800044c:	fa21 f304 	lsr.w	r3, r1, r4
 8000450:	ea45 0103 	orr.w	r1, r5, r3
 8000454:	bd30      	pop	{r4, r5, pc}
 8000456:	f1c4 040c 	rsb	r4, r4, #12
 800045a:	f1c4 0220 	rsb	r2, r4, #32
 800045e:	fa20 f002 	lsr.w	r0, r0, r2
 8000462:	fa01 f304 	lsl.w	r3, r1, r4
 8000466:	ea40 0003 	orr.w	r0, r0, r3
 800046a:	4629      	mov	r1, r5
 800046c:	bd30      	pop	{r4, r5, pc}
 800046e:	fa21 f004 	lsr.w	r0, r1, r4
 8000472:	4629      	mov	r1, r5
 8000474:	bd30      	pop	{r4, r5, pc}
 8000476:	f094 0f00 	teq	r4, #0
 800047a:	f483 1380 	eor.w	r3, r3, #1048576	@ 0x100000
 800047e:	bf06      	itte	eq
 8000480:	f481 1180 	eoreq.w	r1, r1, #1048576	@ 0x100000
 8000484:	3401      	addeq	r4, #1
 8000486:	3d01      	subne	r5, #1
 8000488:	e74e      	b.n	8000328 <__adddf3+0x8c>
 800048a:	ea7f 5c64 	mvns.w	ip, r4, asr #21
 800048e:	bf18      	it	ne
 8000490:	ea7f 5c65 	mvnsne.w	ip, r5, asr #21
 8000494:	d029      	beq.n	80004ea <__adddf3+0x24e>
 8000496:	ea94 0f05 	teq	r4, r5
 800049a:	bf08      	it	eq
 800049c:	ea90 0f02 	teqeq	r0, r2
 80004a0:	d005      	beq.n	80004ae <__adddf3+0x212>
 80004a2:	ea54 0c00 	orrs.w	ip, r4, r0
 80004a6:	bf04      	itt	eq
 80004a8:	4619      	moveq	r1, r3
 80004aa:	4610      	moveq	r0, r2
 80004ac:	bd30      	pop	{r4, r5, pc}
 80004ae:	ea91 0f03 	teq	r1, r3
 80004b2:	bf1e      	ittt	ne
 80004b4:	2100      	movne	r1, #0
 80004b6:	2000      	movne	r0, #0
 80004b8:	bd30      	popne	{r4, r5, pc}
 80004ba:	ea5f 5c54 	movs.w	ip, r4, lsr #21
 80004be:	d105      	bne.n	80004cc <__adddf3+0x230>
 80004c0:	0040      	lsls	r0, r0, #1
 80004c2:	4149      	adcs	r1, r1
 80004c4:	bf28      	it	cs
 80004c6:	f041 4100 	orrcs.w	r1, r1, #2147483648	@ 0x80000000
 80004ca:	bd30      	pop	{r4, r5, pc}
 80004cc:	f514 0480 	adds.w	r4, r4, #4194304	@ 0x400000
 80004d0:	bf3c      	itt	cc
 80004d2:	f501 1180 	addcc.w	r1, r1, #1048576	@ 0x100000
 80004d6:	bd30      	popcc	{r4, r5, pc}
 80004d8:	f001 4500 	and.w	r5, r1, #2147483648	@ 0x80000000
 80004dc:	f045 41fe 	orr.w	r1, r5, #2130706432	@ 0x7f000000
 80004e0:	f441 0170 	orr.w	r1, r1, #15728640	@ 0xf00000
 80004e4:	f04f 0000 	mov.w	r0, #0
 80004e8:	bd30      	pop	{r4, r5, pc}
 80004ea:	ea7f 5c64 	mvns.w	ip, r4, asr #21
 80004ee:	bf1a      	itte	ne
 80004f0:	4619      	movne	r1, r3
 80004f2:	4610      	movne	r0, r2
 80004f4:	ea7f 5c65 	mvnseq.w	ip, r5, asr #21
 80004f8:	bf1c      	itt	ne
 80004fa:	460b      	movne	r3, r1
 80004fc:	4602      	movne	r2, r0
 80004fe:	ea50 3401 	orrs.w	r4, r0, r1, lsl #12
 8000502:	bf06      	itte	eq
 8000504:	ea52 3503 	orrseq.w	r5, r2, r3, lsl #12
 8000508:	ea91 0f03 	teqeq	r1, r3
 800050c:	f441 2100 	orrne.w	r1, r1, #524288	@ 0x80000
 8000510:	bd30      	pop	{r4, r5, pc}
 8000512:	bf00      	nop

08000514 <__aeabi_ui2d>:
 8000514:	f090 0f00 	teq	r0, #0
 8000518:	bf04      	itt	eq
 800051a:	2100      	moveq	r1, #0
 800051c:	4770      	bxeq	lr
 800051e:	b530      	push	{r4, r5, lr}
 8000520:	f44f 6480 	mov.w	r4, #1024	@ 0x400
 8000524:	f104 0432 	add.w	r4, r4, #50	@ 0x32
 8000528:	f04f 0500 	mov.w	r5, #0
 800052c:	f04f 0100 	mov.w	r1, #0
 8000530:	e750      	b.n	80003d4 <__adddf3+0x138>
 8000532:	bf00      	nop

08000534 <__aeabi_i2d>:
 8000534:	f090 0f00 	teq	r0, #0
 8000538:	bf04      	itt	eq
 800053a:	2100      	moveq	r1, #0
 800053c:	4770      	bxeq	lr
 800053e:	b530      	push	{r4, r5, lr}
 8000540:	f44f 6480 	mov.w	r4, #1024	@ 0x400
 8000544:	f104 0432 	add.w	r4, r4, #50	@ 0x32
 8000548:	f010 4500 	ands.w	r5, r0, #2147483648	@ 0x80000000
 800054c:	bf48      	it	mi
 800054e:	4240      	negmi	r0, r0
 8000550:	f04f 0100 	mov.w	r1, #0
 8000554:	e73e      	b.n	80003d4 <__adddf3+0x138>
 8000556:	bf00      	nop

08000558 <__aeabi_f2d>:
 8000558:	0042      	lsls	r2, r0, #1
 800055a:	ea4f 01e2 	mov.w	r1, r2, asr #3
 800055e:	ea4f 0131 	mov.w	r1, r1, rrx
 8000562:	ea4f 7002 	mov.w	r0, r2, lsl #28
 8000566:	bf1f      	itttt	ne
 8000568:	f012 437f 	andsne.w	r3, r2, #4278190080	@ 0xff000000
 800056c:	f093 4f7f 	teqne	r3, #4278190080	@ 0xff000000
 8000570:	f081 5160 	eorne.w	r1, r1, #939524096	@ 0x38000000
 8000574:	4770      	bxne	lr
 8000576:	f032 427f 	bics.w	r2, r2, #4278190080	@ 0xff000000
 800057a:	bf08      	it	eq
 800057c:	4770      	bxeq	lr
 800057e:	f093 4f7f 	teq	r3, #4278190080	@ 0xff000000
 8000582:	bf04      	itt	eq
 8000584:	f441 2100 	orreq.w	r1, r1, #524288	@ 0x80000
 8000588:	4770      	bxeq	lr
 800058a:	b530      	push	{r4, r5, lr}
 800058c:	f44f 7460 	mov.w	r4, #896	@ 0x380
 8000590:	f001 4500 	and.w	r5, r1, #2147483648	@ 0x80000000
 8000594:	f021 4100 	bic.w	r1, r1, #2147483648	@ 0x80000000
 8000598:	e71c      	b.n	80003d4 <__adddf3+0x138>
 800059a:	bf00      	nop

0800059c <__aeabi_ul2d>:
 800059c:	ea50 0201 	orrs.w	r2, r0, r1
 80005a0:	bf08      	it	eq
 80005a2:	4770      	bxeq	lr
 80005a4:	b530      	push	{r4, r5, lr}
 80005a6:	f04f 0500 	mov.w	r5, #0
 80005aa:	e00a      	b.n	80005c2 <__aeabi_l2d+0x16>

080005ac <__aeabi_l2d>:
 80005ac:	ea50 0201 	orrs.w	r2, r0, r1
 80005b0:	bf08      	it	eq
 80005b2:	4770      	bxeq	lr
 80005b4:	b530      	push	{r4, r5, lr}
 80005b6:	f011 4500 	ands.w	r5, r1, #2147483648	@ 0x80000000
 80005ba:	d502      	bpl.n	80005c2 <__aeabi_l2d+0x16>
 80005bc:	4240      	negs	r0, r0
 80005be:	eb61 0141 	sbc.w	r1, r1, r1, lsl #1
 80005c2:	f44f 6480 	mov.w	r4, #1024	@ 0x400
 80005c6:	f104 0432 	add.w	r4, r4, #50	@ 0x32
 80005ca:	ea5f 5c91 	movs.w	ip, r1, lsr #22
 80005ce:	f43f aed8 	beq.w	8000382 <__adddf3+0xe6>
 80005d2:	f04f 0203 	mov.w	r2, #3
 80005d6:	ea5f 0cdc 	movs.w	ip, ip, lsr #3
 80005da:	bf18      	it	ne
 80005dc:	3203      	addne	r2, #3
 80005de:	ea5f 0cdc 	movs.w	ip, ip, lsr #3
 80005e2:	bf18      	it	ne
 80005e4:	3203      	addne	r2, #3
 80005e6:	eb02 02dc 	add.w	r2, r2, ip, lsr #3
 80005ea:	f1c2 0320 	rsb	r3, r2, #32
 80005ee:	fa00 fc03 	lsl.w	ip, r0, r3
 80005f2:	fa20 f002 	lsr.w	r0, r0, r2
 80005f6:	fa01 fe03 	lsl.w	lr, r1, r3
 80005fa:	ea40 000e 	orr.w	r0, r0, lr
 80005fe:	fa21 f102 	lsr.w	r1, r1, r2
 8000602:	4414      	add	r4, r2
 8000604:	e6bd      	b.n	8000382 <__adddf3+0xe6>
 8000606:	bf00      	nop

08000608 <__aeabi_dmul>:
 8000608:	b570      	push	{r4, r5, r6, lr}
 800060a:	f04f 0cff 	mov.w	ip, #255	@ 0xff
 800060e:	f44c 6ce0 	orr.w	ip, ip, #1792	@ 0x700
 8000612:	ea1c 5411 	ands.w	r4, ip, r1, lsr #20
 8000616:	bf1d      	ittte	ne
 8000618:	ea1c 5513 	andsne.w	r5, ip, r3, lsr #20
 800061c:	ea94 0f0c 	teqne	r4, ip
 8000620:	ea95 0f0c 	teqne	r5, ip
 8000624:	f000 f8de 	bleq	80007e4 <__aeabi_dmul+0x1dc>
 8000628:	442c      	add	r4, r5
 800062a:	ea81 0603 	eor.w	r6, r1, r3
 800062e:	ea21 514c 	bic.w	r1, r1, ip, lsl #21
 8000632:	ea23 534c 	bic.w	r3, r3, ip, lsl #21
 8000636:	ea50 3501 	orrs.w	r5, r0, r1, lsl #12
 800063a:	bf18      	it	ne
 800063c:	ea52 3503 	orrsne.w	r5, r2, r3, lsl #12
 8000640:	f441 1180 	orr.w	r1, r1, #1048576	@ 0x100000
 8000644:	f443 1380 	orr.w	r3, r3, #1048576	@ 0x100000
 8000648:	d038      	beq.n	80006bc <__aeabi_dmul+0xb4>
 800064a:	fba0 ce02 	umull	ip, lr, r0, r2
 800064e:	f04f 0500 	mov.w	r5, #0
 8000652:	fbe1 e502 	umlal	lr, r5, r1, r2
 8000656:	f006 4200 	and.w	r2, r6, #2147483648	@ 0x80000000
 800065a:	fbe0 e503 	umlal	lr, r5, r0, r3
 800065e:	f04f 0600 	mov.w	r6, #0
 8000662:	fbe1 5603 	umlal	r5, r6, r1, r3
 8000666:	f09c 0f00 	teq	ip, #0
 800066a:	bf18      	it	ne
 800066c:	f04e 0e01 	orrne.w	lr, lr, #1
 8000670:	f1a4 04ff 	sub.w	r4, r4, #255	@ 0xff
 8000674:	f5b6 7f00 	cmp.w	r6, #512	@ 0x200
 8000678:	f564 7440 	sbc.w	r4, r4, #768	@ 0x300
 800067c:	d204      	bcs.n	8000688 <__aeabi_dmul+0x80>
 800067e:	ea5f 0e4e 	movs.w	lr, lr, lsl #1
 8000682:	416d      	adcs	r5, r5
 8000684:	eb46 0606 	adc.w	r6, r6, r6
 8000688:	ea42 21c6 	orr.w	r1, r2, r6, lsl #11
 800068c:	ea41 5155 	orr.w	r1, r1, r5, lsr #21
 8000690:	ea4f 20c5 	mov.w	r0, r5, lsl #11
 8000694:	ea40 505e 	orr.w	r0, r0, lr, lsr #21
 8000698:	ea4f 2ece 	mov.w	lr, lr, lsl #11
 800069c:	f1b4 0cfd 	subs.w	ip, r4, #253	@ 0xfd
 80006a0:	bf88      	it	hi
 80006a2:	f5bc 6fe0 	cmphi.w	ip, #1792	@ 0x700
 80006a6:	d81e      	bhi.n	80006e6 <__aeabi_dmul+0xde>
 80006a8:	f1be 4f00 	cmp.w	lr, #2147483648	@ 0x80000000
 80006ac:	bf08      	it	eq
 80006ae:	ea5f 0e50 	movseq.w	lr, r0, lsr #1
 80006b2:	f150 0000 	adcs.w	r0, r0, #0
 80006b6:	eb41 5104 	adc.w	r1, r1, r4, lsl #20
 80006ba:	bd70      	pop	{r4, r5, r6, pc}
 80006bc:	f006 4600 	and.w	r6, r6, #2147483648	@ 0x80000000
 80006c0:	ea46 0101 	orr.w	r1, r6, r1
 80006c4:	ea40 0002 	orr.w	r0, r0, r2
 80006c8:	ea81 0103 	eor.w	r1, r1, r3
 80006cc:	ebb4 045c 	subs.w	r4, r4, ip, lsr #1
 80006d0:	bfc2      	ittt	gt
 80006d2:	ebd4 050c 	rsbsgt	r5, r4, ip
 80006d6:	ea41 5104 	orrgt.w	r1, r1, r4, lsl #20
 80006da:	bd70      	popgt	{r4, r5, r6, pc}
 80006dc:	f441 1180 	orr.w	r1, r1, #1048576	@ 0x100000
 80006e0:	f04f 0e00 	mov.w	lr, #0
 80006e4:	3c01      	subs	r4, #1
 80006e6:	f300 80ab 	bgt.w	8000840 <__aeabi_dmul+0x238>
 80006ea:	f114 0f36 	cmn.w	r4, #54	@ 0x36
 80006ee:	bfde      	ittt	le
 80006f0:	2000      	movle	r0, #0
 80006f2:	f001 4100 	andle.w	r1, r1, #2147483648	@ 0x80000000
 80006f6:	bd70      	pople	{r4, r5, r6, pc}
 80006f8:	f1c4 0400 	rsb	r4, r4, #0
 80006fc:	3c20      	subs	r4, #32
 80006fe:	da35      	bge.n	800076c <__aeabi_dmul+0x164>
 8000700:	340c      	adds	r4, #12
 8000702:	dc1b      	bgt.n	800073c <__aeabi_dmul+0x134>
 8000704:	f104 0414 	add.w	r4, r4, #20
 8000708:	f1c4 0520 	rsb	r5, r4, #32
 800070c:	fa00 f305 	lsl.w	r3, r0, r5
 8000710:	fa20 f004 	lsr.w	r0, r0, r4
 8000714:	fa01 f205 	lsl.w	r2, r1, r5
 8000718:	ea40 0002 	orr.w	r0, r0, r2
 800071c:	f001 4200 	and.w	r2, r1, #2147483648	@ 0x80000000
 8000720:	f021 4100 	bic.w	r1, r1, #2147483648	@ 0x80000000
 8000724:	eb10 70d3 	adds.w	r0, r0, r3, lsr #31
 8000728:	fa21 f604 	lsr.w	r6, r1, r4
 800072c:	eb42 0106 	adc.w	r1, r2, r6
 8000730:	ea5e 0e43 	orrs.w	lr, lr, r3, lsl #1
 8000734:	bf08      	it	eq
 8000736:	ea20 70d3 	biceq.w	r0, r0, r3, lsr #31
 800073a:	bd70      	pop	{r4, r5, r6, pc}
 800073c:	f1c4 040c 	rsb	r4, r4, #12
 8000740:	f1c4 0520 	rsb	r5, r4, #32
 8000744:	fa00 f304 	lsl.w	r3, r0, r4
 8000748:	fa20 f005 	lsr.w	r0, r0, r5
 800074c:	fa01 f204 	lsl.w	r2, r1, r4
 8000750:	ea40 0002 	orr.w	r0, r0, r2
 8000754:	f001 4100 	and.w	r1, r1, #2147483648	@ 0x80000000
 8000758:	eb10 70d3 	adds.w	r0, r0, r3, lsr #31
 800075c:	f141 0100 	adc.w	r1, r1, #0
 8000760:	ea5e 0e43 	orrs.w	lr, lr, r3, lsl #1
 8000764:	bf08      	it	eq
 8000766:	ea20 70d3 	biceq.w	r0, r0, r3, lsr #31
 800076a:	bd70      	pop	{r4, r5, r6, pc}
 800076c:	f1c4 0520 	rsb	r5, r4, #32
 8000770:	fa00 f205 	lsl.w	r2, r0, r5
 8000774:	ea4e 0e02 	orr.w	lr, lr, r2
 8000778:	fa20 f304 	lsr.w	r3, r0, r4
 800077c:	fa01 f205 	lsl.w	r2, r1, r5
 8000780:	ea43 0302 	orr.w	r3, r3, r2
 8000784:	fa21 f004 	lsr.w	r0, r1, r4
 8000788:	f001 4100 	and.w	r1, r1, #2147483648	@ 0x80000000
 800078c:	fa21 f204 	lsr.w	r2, r1, r4
 8000790:	ea20 0002 	bic.w	r0, r0, r2
 8000794:	eb00 70d3 	add.w	r0, r0, r3, lsr #31
 8000798:	ea5e 0e43 	orrs.w	lr, lr, r3, lsl #1
 800079c:	bf08      	it	eq
 800079e:	ea20 70d3 	biceq.w	r0, r0, r3, lsr #31
 80007a2:	bd70      	pop	{r4, r5, r6, pc}
 80007a4:	f094 0f00 	teq	r4, #0
 80007a8:	d10f      	bne.n	80007ca <__aeabi_dmul+0x1c2>
 80007aa:	f001 4600 	and.w	r6, r1, #2147483648	@ 0x80000000
 80007ae:	0040      	lsls	r0, r0, #1
 80007b0:	eb41 0101 	adc.w	r1, r1, r1
 80007b4:	f411 1f80 	tst.w	r1, #1048576	@ 0x100000
 80007b8:	bf08      	it	eq
 80007ba:	3c01      	subeq	r4, #1
 80007bc:	d0f7      	beq.n	80007ae <__aeabi_dmul+0x1a6>
 80007be:	ea41 0106 	orr.w	r1, r1, r6
 80007c2:	f095 0f00 	teq	r5, #0
 80007c6:	bf18      	it	ne
 80007c8:	4770      	bxne	lr
 80007ca:	f003 4600 	and.w	r6, r3, #2147483648	@ 0x80000000
 80007ce:	0052      	lsls	r2, r2, #1
 80007d0:	eb43 0303 	adc.w	r3, r3, r3
 80007d4:	f413 1f80 	tst.w	r3, #1048576	@ 0x100000
 80007d8:	bf08      	it	eq
 80007da:	3d01      	subeq	r5, #1
 80007dc:	d0f7      	beq.n	80007ce <__aeabi_dmul+0x1c6>
 80007de:	ea43 0306 	orr.w	r3, r3, r6
 80007e2:	4770      	bx	lr
 80007e4:	ea94 0f0c 	teq	r4, ip
 80007e8:	ea0c 5513 	and.w	r5, ip, r3, lsr #20
 80007ec:	bf18      	it	ne
 80007ee:	ea95 0f0c 	teqne	r5, ip
 80007f2:	d00c      	beq.n	800080e <__aeabi_dmul+0x206>
 80007f4:	ea50 0641 	orrs.w	r6, r0, r1, lsl #1
 80007f8:	bf18      	it	ne
 80007fa:	ea52 0643 	orrsne.w	r6, r2, r3, lsl #1
 80007fe:	d1d1      	bne.n	80007a4 <__aeabi_dmul+0x19c>
 8000800:	ea81 0103 	eor.w	r1, r1, r3
 8000804:	f001 4100 	and.w	r1, r1, #2147483648	@ 0x80000000
 8000808:	f04f 0000 	mov.w	r0, #0
 800080c:	bd70      	pop	{r4, r5, r6, pc}
 800080e:	ea50 0641 	orrs.w	r6, r0, r1, lsl #1
 8000812:	bf06      	itte	eq
 8000814:	4610      	moveq	r0, r2
 8000816:	4619      	moveq	r1, r3
 8000818:	ea52 0643 	orrsne.w	r6, r2, r3, lsl #1
 800081c:	d019      	beq.n	8000852 <__aeabi_dmul+0x24a>
 800081e:	ea94 0f0c 	teq	r4, ip
 8000822:	d102      	bne.n	800082a <__aeabi_dmul+0x222>
 8000824:	ea50 3601 	orrs.w	r6, r0, r1, lsl #12
 8000828:	d113      	bne.n	8000852 <__aeabi_dmul+0x24a>
 800082a:	ea95 0f0c 	teq	r5, ip
 800082e:	d105      	bne.n	800083c <__aeabi_dmul+0x234>
 8000830:	ea52 3603 	orrs.w	r6, r2, r3, lsl #12
 8000834:	bf1c      	itt	ne
 8000836:	4610      	movne	r0, r2
 8000838:	4619      	movne	r1, r3
 800083a:	d10a      	bne.n	8000852 <__aeabi_dmul+0x24a>
 800083c:	ea81 0103 	eor.w	r1, r1, r3
 8000840:	f001 4100 	and.w	r1, r1, #2147483648	@ 0x80000000
 8000844:	f041 41fe 	orr.w	r1, r1, #2130706432	@ 0x7f000000
 8000848:	f441 0170 	orr.w	r1, r1, #15728640	@ 0xf00000
 800084c:	f04f 0000 	mov.w	r0, #0
 8000850:	bd70      	pop	{r4, r5, r6, pc}
 8000852:	f041 41fe 	orr.w	r1, r1, #2130706432	@ 0x7f000000
 8000856:	f441 0178 	orr.w	r1, r1, #16252928	@ 0xf80000
 800085a:	bd70      	pop	{r4, r5, r6, pc}

0800085c <__aeabi_ddiv>:
 800085c:	b570      	push	{r4, r5, r6, lr}
 800085e:	f04f 0cff 	mov.w	ip, #255	@ 0xff
 8000862:	f44c 6ce0 	orr.w	ip, ip, #1792	@ 0x700
 8000866:	ea1c 5411 	ands.w	r4, ip, r1, lsr #20
 800086a:	bf1d      	ittte	ne
 800086c:	ea1c 5513 	andsne.w	r5, ip, r3, lsr #20
 8000870:	ea94 0f0c 	teqne	r4, ip
 8000874:	ea95 0f0c 	teqne	r5, ip
 8000878:	f000 f8a7 	bleq	80009ca <__aeabi_ddiv+0x16e>
 800087c:	eba4 0405 	sub.w	r4, r4, r5
 8000880:	ea81 0e03 	eor.w	lr, r1, r3
 8000884:	ea52 3503 	orrs.w	r5, r2, r3, lsl #12
 8000888:	ea4f 3101 	mov.w	r1, r1, lsl #12
 800088c:	f000 8088 	beq.w	80009a0 <__aeabi_ddiv+0x144>
 8000890:	ea4f 3303 	mov.w	r3, r3, lsl #12
 8000894:	f04f 5580 	mov.w	r5, #268435456	@ 0x10000000
 8000898:	ea45 1313 	orr.w	r3, r5, r3, lsr #4
 800089c:	ea43 6312 	orr.w	r3, r3, r2, lsr #24
 80008a0:	ea4f 2202 	mov.w	r2, r2, lsl #8
 80008a4:	ea45 1511 	orr.w	r5, r5, r1, lsr #4
 80008a8:	ea45 6510 	orr.w	r5, r5, r0, lsr #24
 80008ac:	ea4f 2600 	mov.w	r6, r0, lsl #8
 80008b0:	f00e 4100 	and.w	r1, lr, #2147483648	@ 0x80000000
 80008b4:	429d      	cmp	r5, r3
 80008b6:	bf08      	it	eq
 80008b8:	4296      	cmpeq	r6, r2
 80008ba:	f144 04fd 	adc.w	r4, r4, #253	@ 0xfd
 80008be:	f504 7440 	add.w	r4, r4, #768	@ 0x300
 80008c2:	d202      	bcs.n	80008ca <__aeabi_ddiv+0x6e>
 80008c4:	085b      	lsrs	r3, r3, #1
 80008c6:	ea4f 0232 	mov.w	r2, r2, rrx
 80008ca:	1ab6      	subs	r6, r6, r2
 80008cc:	eb65 0503 	sbc.w	r5, r5, r3
 80008d0:	085b      	lsrs	r3, r3, #1
 80008d2:	ea4f 0232 	mov.w	r2, r2, rrx
 80008d6:	f44f 1080 	mov.w	r0, #1048576	@ 0x100000
 80008da:	f44f 2c00 	mov.w	ip, #524288	@ 0x80000
 80008de:	ebb6 0e02 	subs.w	lr, r6, r2
 80008e2:	eb75 0e03 	sbcs.w	lr, r5, r3
 80008e6:	bf22      	ittt	cs
 80008e8:	1ab6      	subcs	r6, r6, r2
 80008ea:	4675      	movcs	r5, lr
 80008ec:	ea40 000c 	orrcs.w	r0, r0, ip
 80008f0:	085b      	lsrs	r3, r3, #1
 80008f2:	ea4f 0232 	mov.w	r2, r2, rrx
 80008f6:	ebb6 0e02 	subs.w	lr, r6, r2
 80008fa:	eb75 0e03 	sbcs.w	lr, r5, r3
 80008fe:	bf22      	ittt	cs
 8000900:	1ab6      	subcs	r6, r6, r2
 8000902:	4675      	movcs	r5, lr
 8000904:	ea40 005c 	orrcs.w	r0, r0, ip, lsr #1
 8000908:	085b      	lsrs	r3, r3, #1
 800090a:	ea4f 0232 	mov.w	r2, r2, rrx
 800090e:	ebb6 0e02 	subs.w	lr, r6, r2
 8000912:	eb75 0e03 	sbcs.w	lr, r5, r3
 8000916:	bf22      	ittt	cs
 8000918:	1ab6      	subcs	r6, r6, r2
 800091a:	4675      	movcs	r5, lr
 800091c:	ea40 009c 	orrcs.w	r0, r0, ip, lsr #2
 8000920:	085b      	lsrs	r3, r3, #1
 8000922:	ea4f 0232 	mov.w	r2, r2, rrx
 8000926:	ebb6 0e02 	subs.w	lr, r6, r2
 800092a:	eb75 0e03 	sbcs.w	lr, r5, r3
 800092e:	bf22      	ittt	cs
 8000930:	1ab6      	subcs	r6, r6, r2
 8000932:	4675      	movcs	r5, lr
 8000934:	ea40 00dc 	orrcs.w	r0, r0, ip, lsr #3
 8000938:	ea55 0e06 	orrs.w	lr, r5, r6
 800093c:	d018      	beq.n	8000970 <__aeabi_ddiv+0x114>
 800093e:	ea4f 1505 	mov.w	r5, r5, lsl #4
 8000942:	ea45 7516 	orr.w	r5, r5, r6, lsr #28
 8000946:	ea4f 1606 	mov.w	r6, r6, lsl #4
 800094a:	ea4f 03c3 	mov.w	r3, r3, lsl #3
 800094e:	ea43 7352 	orr.w	r3, r3, r2, lsr #29
 8000952:	ea4f 02c2 	mov.w	r2, r2, lsl #3
 8000956:	ea5f 1c1c 	movs.w	ip, ip, lsr #4
 800095a:	d1c0      	bne.n	80008de <__aeabi_ddiv+0x82>
 800095c:	f411 1f80 	tst.w	r1, #1048576	@ 0x100000
 8000960:	d10b      	bne.n	800097a <__aeabi_ddiv+0x11e>
 8000962:	ea41 0100 	orr.w	r1, r1, r0
 8000966:	f04f 0000 	mov.w	r0, #0
 800096a:	f04f 4c00 	mov.w	ip, #2147483648	@ 0x80000000
 800096e:	e7b6      	b.n	80008de <__aeabi_ddiv+0x82>
 8000970:	f411 1f80 	tst.w	r1, #1048576	@ 0x100000
 8000974:	bf04      	itt	eq
 8000976:	4301      	orreq	r1, r0
 8000978:	2000      	moveq	r0, #0
 800097a:	f1b4 0cfd 	subs.w	ip, r4, #253	@ 0xfd
 800097e:	bf88      	it	hi
 8000980:	f5bc 6fe0 	cmphi.w	ip, #1792	@ 0x700
 8000984:	f63f aeaf 	bhi.w	80006e6 <__aeabi_dmul+0xde>
 8000988:	ebb5 0c03 	subs.w	ip, r5, r3
 800098c:	bf04      	itt	eq
 800098e:	ebb6 0c02 	subseq.w	ip, r6, r2
 8000992:	ea5f 0c50 	movseq.w	ip, r0, lsr #1
 8000996:	f150 0000 	adcs.w	r0, r0, #0
 800099a:	eb41 5104 	adc.w	r1, r1, r4, lsl #20
 800099e:	bd70      	pop	{r4, r5, r6, pc}
 80009a0:	f00e 4e00 	and.w	lr, lr, #2147483648	@ 0x80000000
 80009a4:	ea4e 3111 	orr.w	r1, lr, r1, lsr #12
 80009a8:	eb14 045c 	adds.w	r4, r4, ip, lsr #1
 80009ac:	bfc2      	ittt	gt
 80009ae:	ebd4 050c 	rsbsgt	r5, r4, ip
 80009b2:	ea41 5104 	orrgt.w	r1, r1, r4, lsl #20
 80009b6:	bd70      	popgt	{r4, r5, r6, pc}
 80009b8:	f441 1180 	orr.w	r1, r1, #1048576	@ 0x100000
 80009bc:	f04f 0e00 	mov.w	lr, #0
 80009c0:	3c01      	subs	r4, #1
 80009c2:	e690      	b.n	80006e6 <__aeabi_dmul+0xde>
 80009c4:	ea45 0e06 	orr.w	lr, r5, r6
 80009c8:	e68d      	b.n	80006e6 <__aeabi_dmul+0xde>
 80009ca:	ea0c 5513 	and.w	r5, ip, r3, lsr #20
 80009ce:	ea94 0f0c 	teq	r4, ip
 80009d2:	bf08      	it	eq
 80009d4:	ea95 0f0c 	teqeq	r5, ip
 80009d8:	f43f af3b 	beq.w	8000852 <__aeabi_dmul+0x24a>
 80009dc:	ea94 0f0c 	teq	r4, ip
 80009e0:	d10a      	bne.n	80009f8 <__aeabi_ddiv+0x19c>
 80009e2:	ea50 3401 	orrs.w	r4, r0, r1, lsl #12
 80009e6:	f47f af34 	bne.w	8000852 <__aeabi_dmul+0x24a>
 80009ea:	ea95 0f0c 	teq	r5, ip
 80009ee:	f47f af25 	bne.w	800083c <__aeabi_dmul+0x234>
 80009f2:	4610      	mov	r0, r2
 80009f4:	4619      	mov	r1, r3
 80009f6:	e72c      	b.n	8000852 <__aeabi_dmul+0x24a>
 80009f8:	ea95 0f0c 	teq	r5, ip
 80009fc:	d106      	bne.n	8000a0c <__aeabi_ddiv+0x1b0>
 80009fe:	ea52 3503 	orrs.w	r5, r2, r3, lsl #12
 8000a02:	f43f aefd 	beq.w	8000800 <__aeabi_dmul+0x1f8>
 8000a06:	4610      	mov	r0, r2
 8000a08:	4619      	mov	r1, r3
 8000a0a:	e722      	b.n	8000852 <__aeabi_dmul+0x24a>
 8000a0c:	ea50 0641 	orrs.w	r6, r0, r1, lsl #1
 8000a10:	bf18      	it	ne
 8000a12:	ea52 0643 	orrsne.w	r6, r2, r3, lsl #1
 8000a16:	f47f aec5 	bne.w	80007a4 <__aeabi_dmul+0x19c>
 8000a1a:	ea50 0441 	orrs.w	r4, r0, r1, lsl #1
 8000a1e:	f47f af0d 	bne.w	800083c <__aeabi_dmul+0x234>
 8000a22:	ea52 0543 	orrs.w	r5, r2, r3, lsl #1
 8000a26:	f47f aeeb 	bne.w	8000800 <__aeabi_dmul+0x1f8>
 8000a2a:	e712      	b.n	8000852 <__aeabi_dmul+0x24a>

08000a2c <__gedf2>:
 8000a2c:	f04f 3cff 	mov.w	ip, #4294967295
 8000a30:	e006      	b.n	8000a40 <__cmpdf2+0x4>
 8000a32:	bf00      	nop

08000a34 <__ledf2>:
 8000a34:	f04f 0c01 	mov.w	ip, #1
 8000a38:	e002      	b.n	8000a40 <__cmpdf2+0x4>
 8000a3a:	bf00      	nop

08000a3c <__cmpdf2>:
 8000a3c:	f04f 0c01 	mov.w	ip, #1
 8000a40:	f84d cd04 	str.w	ip, [sp, #-4]!
 8000a44:	ea4f 0c41 	mov.w	ip, r1, lsl #1
 8000a48:	ea7f 5c6c 	mvns.w	ip, ip, asr #21
 8000a4c:	ea4f 0c43 	mov.w	ip, r3, lsl #1
 8000a50:	bf18      	it	ne
 8000a52:	ea7f 5c6c 	mvnsne.w	ip, ip, asr #21
 8000a56:	d01b      	beq.n	8000a90 <__cmpdf2+0x54>
 8000a58:	b001      	add	sp, #4
 8000a5a:	ea50 0c41 	orrs.w	ip, r0, r1, lsl #1
 8000a5e:	bf0c      	ite	eq
 8000a60:	ea52 0c43 	orrseq.w	ip, r2, r3, lsl #1
 8000a64:	ea91 0f03 	teqne	r1, r3
 8000a68:	bf02      	ittt	eq
 8000a6a:	ea90 0f02 	teqeq	r0, r2
 8000a6e:	2000      	moveq	r0, #0
 8000a70:	4770      	bxeq	lr
 8000a72:	f110 0f00 	cmn.w	r0, #0
 8000a76:	ea91 0f03 	teq	r1, r3
 8000a7a:	bf58      	it	pl
 8000a7c:	4299      	cmppl	r1, r3
 8000a7e:	bf08      	it	eq
 8000a80:	4290      	cmpeq	r0, r2
 8000a82:	bf2c      	ite	cs
 8000a84:	17d8      	asrcs	r0, r3, #31
 8000a86:	ea6f 70e3 	mvncc.w	r0, r3, asr #31
 8000a8a:	f040 0001 	orr.w	r0, r0, #1
 8000a8e:	4770      	bx	lr
 8000a90:	ea4f 0c41 	mov.w	ip, r1, lsl #1
 8000a94:	ea7f 5c6c 	mvns.w	ip, ip, asr #21
 8000a98:	d102      	bne.n	8000aa0 <__cmpdf2+0x64>
 8000a9a:	ea50 3c01 	orrs.w	ip, r0, r1, lsl #12
 8000a9e:	d107      	bne.n	8000ab0 <__cmpdf2+0x74>
 8000aa0:	ea4f 0c43 	mov.w	ip, r3, lsl #1
 8000aa4:	ea7f 5c6c 	mvns.w	ip, ip, asr #21
 8000aa8:	d1d6      	bne.n	8000a58 <__cmpdf2+0x1c>
 8000aaa:	ea52 3c03 	orrs.w	ip, r2, r3, lsl #12
 8000aae:	d0d3      	beq.n	8000a58 <__cmpdf2+0x1c>
 8000ab0:	f85d 0b04 	ldr.w	r0, [sp], #4
 8000ab4:	4770      	bx	lr
 8000ab6:	bf00      	nop

08000ab8 <__aeabi_cdrcmple>:
 8000ab8:	4684      	mov	ip, r0
 8000aba:	4610      	mov	r0, r2
 8000abc:	4662      	mov	r2, ip
 8000abe:	468c      	mov	ip, r1
 8000ac0:	4619      	mov	r1, r3
 8000ac2:	4663      	mov	r3, ip
 8000ac4:	e000      	b.n	8000ac8 <__aeabi_cdcmpeq>
 8000ac6:	bf00      	nop

08000ac8 <__aeabi_cdcmpeq>:
 8000ac8:	b501      	push	{r0, lr}
 8000aca:	f7ff ffb7 	bl	8000a3c <__cmpdf2>
 8000ace:	2800      	cmp	r0, #0
 8000ad0:	bf48      	it	mi
 8000ad2:	f110 0f00 	cmnmi.w	r0, #0
 8000ad6:	bd01      	pop	{r0, pc}

08000ad8 <__aeabi_dcmpeq>:
 8000ad8:	f84d ed08 	str.w	lr, [sp, #-8]!
 8000adc:	f7ff fff4 	bl	8000ac8 <__aeabi_cdcmpeq>
 8000ae0:	bf0c      	ite	eq
 8000ae2:	2001      	moveq	r0, #1
 8000ae4:	2000      	movne	r0, #0
 8000ae6:	f85d fb08 	ldr.w	pc, [sp], #8
 8000aea:	bf00      	nop

08000aec <__aeabi_dcmplt>:
 8000aec:	f84d ed08 	str.w	lr, [sp, #-8]!
 8000af0:	f7ff ffea 	bl	8000ac8 <__aeabi_cdcmpeq>
 8000af4:	bf34      	ite	cc
 8000af6:	2001      	movcc	r0, #1
 8000af8:	2000      	movcs	r0, #0
 8000afa:	f85d fb08 	ldr.w	pc, [sp], #8
 8000afe:	bf00      	nop

08000b00 <__aeabi_dcmple>:
 8000b00:	f84d ed08 	str.w	lr, [sp, #-8]!
 8000b04:	f7ff ffe0 	bl	8000ac8 <__aeabi_cdcmpeq>
 8000b08:	bf94      	ite	ls
 8000b0a:	2001      	movls	r0, #1
 8000b0c:	2000      	movhi	r0, #0
 8000b0e:	f85d fb08 	ldr.w	pc, [sp], #8
 8000b12:	bf00      	nop

08000b14 <__aeabi_dcmpge>:
 8000b14:	f84d ed08 	str.w	lr, [sp, #-8]!
 8000b18:	f7ff ffce 	bl	8000ab8 <__aeabi_cdrcmple>
 8000b1c:	bf94      	ite	ls
 8000b1e:	2001      	movls	r0, #1
 8000b20:	2000      	movhi	r0, #0
 8000b22:	f85d fb08 	ldr.w	pc, [sp], #8
 8000b26:	bf00      	nop

08000b28 <__aeabi_dcmpgt>:
 8000b28:	f84d ed08 	str.w	lr, [sp, #-8]!
 8000b2c:	f7ff ffc4 	bl	8000ab8 <__aeabi_cdrcmple>
 8000b30:	bf34      	ite	cc
 8000b32:	2001      	movcc	r0, #1
 8000b34:	2000      	movcs	r0, #0
 8000b36:	f85d fb08 	ldr.w	pc, [sp], #8
 8000b3a:	bf00      	nop

08000b3c <__aeabi_dcmpun>:
 8000b3c:	ea4f 0c41 	mov.w	ip, r1, lsl #1
 8000b40:	ea7f 5c6c 	mvns.w	ip, ip, asr #21
 8000b44:	d102      	bne.n	8000b4c <__aeabi_dcmpun+0x10>
 8000b46:	ea50 3c01 	orrs.w	ip, r0, r1, lsl #12
 8000b4a:	d10a      	bne.n	8000b62 <__aeabi_dcmpun+0x26>
 8000b4c:	ea4f 0c43 	mov.w	ip, r3, lsl #1
 8000b50:	ea7f 5c6c 	mvns.w	ip, ip, asr #21
 8000b54:	d102      	bne.n	8000b5c <__aeabi_dcmpun+0x20>
 8000b56:	ea52 3c03 	orrs.w	ip, r2, r3, lsl #12
 8000b5a:	d102      	bne.n	8000b62 <__aeabi_dcmpun+0x26>
 8000b5c:	f04f 0000 	mov.w	r0, #0
 8000b60:	4770      	bx	lr
 8000b62:	f04f 0001 	mov.w	r0, #1
 8000b66:	4770      	bx	lr

08000b68 <__aeabi_d2iz>:
 8000b68:	ea4f 0241 	mov.w	r2, r1, lsl #1
 8000b6c:	f512 1200 	adds.w	r2, r2, #2097152	@ 0x200000
 8000b70:	d215      	bcs.n	8000b9e <__aeabi_d2iz+0x36>
 8000b72:	d511      	bpl.n	8000b98 <__aeabi_d2iz+0x30>
 8000b74:	f46f 7378 	mvn.w	r3, #992	@ 0x3e0
 8000b78:	ebb3 5262 	subs.w	r2, r3, r2, asr #21
 8000b7c:	d912      	bls.n	8000ba4 <__aeabi_d2iz+0x3c>
 8000b7e:	ea4f 23c1 	mov.w	r3, r1, lsl #11
 8000b82:	f043 4300 	orr.w	r3, r3, #2147483648	@ 0x80000000
 8000b86:	ea43 5350 	orr.w	r3, r3, r0, lsr #21
 8000b8a:	f011 4f00 	tst.w	r1, #2147483648	@ 0x80000000
 8000b8e:	fa23 f002 	lsr.w	r0, r3, r2
 8000b92:	bf18      	it	ne
 8000b94:	4240      	negne	r0, r0
 8000b96:	4770      	bx	lr
 8000b98:	f04f 0000 	mov.w	r0, #0
 8000b9c:	4770      	bx	lr
 8000b9e:	ea50 3001 	orrs.w	r0, r0, r1, lsl #12
 8000ba2:	d105      	bne.n	8000bb0 <__aeabi_d2iz+0x48>
 8000ba4:	f011 4000 	ands.w	r0, r1, #2147483648	@ 0x80000000
 8000ba8:	bf08      	it	eq
 8000baa:	f06f 4000 	mvneq.w	r0, #2147483648	@ 0x80000000
 8000bae:	4770      	bx	lr
 8000bb0:	f04f 0000 	mov.w	r0, #0
 8000bb4:	4770      	bx	lr
 8000bb6:	bf00      	nop

08000bb8 <__aeabi_d2uiz>:
 8000bb8:	004a      	lsls	r2, r1, #1
 8000bba:	d211      	bcs.n	8000be0 <__aeabi_d2uiz+0x28>
 8000bbc:	f512 1200 	adds.w	r2, r2, #2097152	@ 0x200000
 8000bc0:	d211      	bcs.n	8000be6 <__aeabi_d2uiz+0x2e>
 8000bc2:	d50d      	bpl.n	8000be0 <__aeabi_d2uiz+0x28>
 8000bc4:	f46f 7378 	mvn.w	r3, #992	@ 0x3e0
 8000bc8:	ebb3 5262 	subs.w	r2, r3, r2, asr #21
 8000bcc:	d40e      	bmi.n	8000bec <__aeabi_d2uiz+0x34>
 8000bce:	ea4f 23c1 	mov.w	r3, r1, lsl #11
 8000bd2:	f043 4300 	orr.w	r3, r3, #2147483648	@ 0x80000000
 8000bd6:	ea43 5350 	orr.w	r3, r3, r0, lsr #21
 8000bda:	fa23 f002 	lsr.w	r0, r3, r2
 8000bde:	4770      	bx	lr
 8000be0:	f04f 0000 	mov.w	r0, #0
 8000be4:	4770      	bx	lr
 8000be6:	ea50 3001 	orrs.w	r0, r0, r1, lsl #12
 8000bea:	d102      	bne.n	8000bf2 <__aeabi_d2uiz+0x3a>
 8000bec:	f04f 30ff 	mov.w	r0, #4294967295
 8000bf0:	4770      	bx	lr
 8000bf2:	f04f 0000 	mov.w	r0, #0
 8000bf6:	4770      	bx	lr

08000bf8 <__aeabi_d2f>:
 8000bf8:	ea4f 0241 	mov.w	r2, r1, lsl #1
 8000bfc:	f1b2 43e0 	subs.w	r3, r2, #1879048192	@ 0x70000000
 8000c00:	bf24      	itt	cs
 8000c02:	f5b3 1c00 	subscs.w	ip, r3, #2097152	@ 0x200000
 8000c06:	f1dc 5cfe 	rsbscs	ip, ip, #532676608	@ 0x1fc00000
 8000c0a:	d90d      	bls.n	8000c28 <__aeabi_d2f+0x30>
 8000c0c:	f001 4c00 	and.w	ip, r1, #2147483648	@ 0x80000000
 8000c10:	ea4f 02c0 	mov.w	r2, r0, lsl #3
 8000c14:	ea4c 7050 	orr.w	r0, ip, r0, lsr #29
 8000c18:	f1b2 4f00 	cmp.w	r2, #2147483648	@ 0x80000000
 8000c1c:	eb40 0083 	adc.w	r0, r0, r3, lsl #2
 8000c20:	bf08      	it	eq
 8000c22:	f020 0001 	biceq.w	r0, r0, #1
 8000c26:	4770      	bx	lr
 8000c28:	f011 4f80 	tst.w	r1, #1073741824	@ 0x40000000
 8000c2c:	d121      	bne.n	8000c72 <__aeabi_d2f+0x7a>
 8000c2e:	f113 7238 	adds.w	r2, r3, #48234496	@ 0x2e00000
 8000c32:	bfbc      	itt	lt
 8000c34:	f001 4000 	andlt.w	r0, r1, #2147483648	@ 0x80000000
 8000c38:	4770      	bxlt	lr
 8000c3a:	f441 1180 	orr.w	r1, r1, #1048576	@ 0x100000
 8000c3e:	ea4f 5252 	mov.w	r2, r2, lsr #21
 8000c42:	f1c2 0218 	rsb	r2, r2, #24
 8000c46:	f1c2 0c20 	rsb	ip, r2, #32
 8000c4a:	fa10 f30c 	lsls.w	r3, r0, ip
 8000c4e:	fa20 f002 	lsr.w	r0, r0, r2
 8000c52:	bf18      	it	ne
 8000c54:	f040 0001 	orrne.w	r0, r0, #1
 8000c58:	ea4f 23c1 	mov.w	r3, r1, lsl #11
 8000c5c:	ea4f 23d3 	mov.w	r3, r3, lsr #11
 8000c60:	fa03 fc0c 	lsl.w	ip, r3, ip
 8000c64:	ea40 000c 	orr.w	r0, r0, ip
 8000c68:	fa23 f302 	lsr.w	r3, r3, r2
 8000c6c:	ea4f 0343 	mov.w	r3, r3, lsl #1
 8000c70:	e7cc      	b.n	8000c0c <__aeabi_d2f+0x14>
 8000c72:	ea7f 5362 	mvns.w	r3, r2, asr #21
 8000c76:	d107      	bne.n	8000c88 <__aeabi_d2f+0x90>
 8000c78:	ea50 3301 	orrs.w	r3, r0, r1, lsl #12
 8000c7c:	bf1e      	ittt	ne
 8000c7e:	f04f 40fe 	movne.w	r0, #2130706432	@ 0x7f000000
 8000c82:	f440 0040 	orrne.w	r0, r0, #12582912	@ 0xc00000
 8000c86:	4770      	bxne	lr
 8000c88:	f001 4000 	and.w	r0, r1, #2147483648	@ 0x80000000
 8000c8c:	f040 40fe 	orr.w	r0, r0, #2130706432	@ 0x7f000000
 8000c90:	f440 0000 	orr.w	r0, r0, #8388608	@ 0x800000
 8000c94:	4770      	bx	lr
 8000c96:	bf00      	nop

08000c98 <__aeabi_uldivmod>:
 8000c98:	b953      	cbnz	r3, 8000cb0 <__aeabi_uldivmod+0x18>
 8000c9a:	b94a      	cbnz	r2, 8000cb0 <__aeabi_uldivmod+0x18>
 8000c9c:	2900      	cmp	r1, #0
 8000c9e:	bf08      	it	eq
 8000ca0:	2800      	cmpeq	r0, #0
 8000ca2:	bf1c      	itt	ne
 8000ca4:	f04f 31ff 	movne.w	r1, #4294967295
 8000ca8:	f04f 30ff 	movne.w	r0, #4294967295
 8000cac:	f000 b9be 	b.w	800102c <__aeabi_idiv0>
 8000cb0:	f1ad 0c08 	sub.w	ip, sp, #8
 8000cb4:	e96d ce04 	strd	ip, lr, [sp, #-16]!
 8000cb8:	f000 f83c 	bl	8000d34 <__udivmoddi4>
 8000cbc:	f8dd e004 	ldr.w	lr, [sp, #4]
 8000cc0:	e9dd 2302 	ldrd	r2, r3, [sp, #8]
 8000cc4:	b004      	add	sp, #16
 8000cc6:	4770      	bx	lr

08000cc8 <__aeabi_d2lz>:
 8000cc8:	b538      	push	{r3, r4, r5, lr}
 8000cca:	2200      	movs	r2, #0
 8000ccc:	2300      	movs	r3, #0
 8000cce:	4604      	mov	r4, r0
 8000cd0:	460d      	mov	r5, r1
 8000cd2:	f7ff ff0b 	bl	8000aec <__aeabi_dcmplt>
 8000cd6:	b928      	cbnz	r0, 8000ce4 <__aeabi_d2lz+0x1c>
 8000cd8:	4620      	mov	r0, r4
 8000cda:	4629      	mov	r1, r5
 8000cdc:	e8bd 4038 	ldmia.w	sp!, {r3, r4, r5, lr}
 8000ce0:	f000 b80a 	b.w	8000cf8 <__aeabi_d2ulz>
 8000ce4:	4620      	mov	r0, r4
 8000ce6:	f105 4100 	add.w	r1, r5, #2147483648	@ 0x80000000
 8000cea:	f000 f805 	bl	8000cf8 <__aeabi_d2ulz>
 8000cee:	4240      	negs	r0, r0
 8000cf0:	eb61 0141 	sbc.w	r1, r1, r1, lsl #1
 8000cf4:	bd38      	pop	{r3, r4, r5, pc}
 8000cf6:	bf00      	nop

08000cf8 <__aeabi_d2ulz>:
 8000cf8:	b5d0      	push	{r4, r6, r7, lr}
 8000cfa:	4b0c      	ldr	r3, [pc, #48]	@ (8000d2c <__aeabi_d2ulz+0x34>)
 8000cfc:	2200      	movs	r2, #0
 8000cfe:	4606      	mov	r6, r0
 8000d00:	460f      	mov	r7, r1
 8000d02:	f7ff fc81 	bl	8000608 <__aeabi_dmul>
 8000d06:	f7ff ff57 	bl	8000bb8 <__aeabi_d2uiz>
 8000d0a:	4604      	mov	r4, r0
 8000d0c:	f7ff fc02 	bl	8000514 <__aeabi_ui2d>
 8000d10:	4b07      	ldr	r3, [pc, #28]	@ (8000d30 <__aeabi_d2ulz+0x38>)
 8000d12:	2200      	movs	r2, #0
 8000d14:	f7ff fc78 	bl	8000608 <__aeabi_dmul>
 8000d18:	4602      	mov	r2, r0
 8000d1a:	460b      	mov	r3, r1
 8000d1c:	4630      	mov	r0, r6
 8000d1e:	4639      	mov	r1, r7
 8000d20:	f7ff faba 	bl	8000298 <__aeabi_dsub>
 8000d24:	f7ff ff48 	bl	8000bb8 <__aeabi_d2uiz>
 8000d28:	4621      	mov	r1, r4
 8000d2a:	bdd0      	pop	{r4, r6, r7, pc}
 8000d2c:	3df00000 	.word	0x3df00000
 8000d30:	41f00000 	.word	0x41f00000

08000d34 <__udivmoddi4>:
 8000d34:	e92d 47f0 	stmdb	sp!, {r4, r5, r6, r7, r8, r9, sl, lr}
 8000d38:	9d08      	ldr	r5, [sp, #32]
 8000d3a:	468e      	mov	lr, r1
 8000d3c:	4604      	mov	r4, r0
 8000d3e:	4688      	mov	r8, r1
 8000d40:	2b00      	cmp	r3, #0
 8000d42:	d14a      	bne.n	8000dda <__udivmoddi4+0xa6>
 8000d44:	428a      	cmp	r2, r1
 8000d46:	4617      	mov	r7, r2
 8000d48:	d962      	bls.n	8000e10 <__udivmoddi4+0xdc>
 8000d4a:	fab2 f682 	clz	r6, r2
 8000d4e:	b14e      	cbz	r6, 8000d64 <__udivmoddi4+0x30>
 8000d50:	f1c6 0320 	rsb	r3, r6, #32
 8000d54:	fa01 f806 	lsl.w	r8, r1, r6
 8000d58:	fa20 f303 	lsr.w	r3, r0, r3
 8000d5c:	40b7      	lsls	r7, r6
 8000d5e:	ea43 0808 	orr.w	r8, r3, r8
 8000d62:	40b4      	lsls	r4, r6
 8000d64:	ea4f 4e17 	mov.w	lr, r7, lsr #16
 8000d68:	fa1f fc87 	uxth.w	ip, r7
 8000d6c:	fbb8 f1fe 	udiv	r1, r8, lr
 8000d70:	0c23      	lsrs	r3, r4, #16
 8000d72:	fb0e 8811 	mls	r8, lr, r1, r8
 8000d76:	ea43 4308 	orr.w	r3, r3, r8, lsl #16
 8000d7a:	fb01 f20c 	mul.w	r2, r1, ip
 8000d7e:	429a      	cmp	r2, r3
 8000d80:	d909      	bls.n	8000d96 <__udivmoddi4+0x62>
 8000d82:	18fb      	adds	r3, r7, r3
 8000d84:	f101 30ff 	add.w	r0, r1, #4294967295
 8000d88:	f080 80ea 	bcs.w	8000f60 <__udivmoddi4+0x22c>
 8000d8c:	429a      	cmp	r2, r3
 8000d8e:	f240 80e7 	bls.w	8000f60 <__udivmoddi4+0x22c>
 8000d92:	3902      	subs	r1, #2
 8000d94:	443b      	add	r3, r7
 8000d96:	1a9a      	subs	r2, r3, r2
 8000d98:	b2a3      	uxth	r3, r4
 8000d9a:	fbb2 f0fe 	udiv	r0, r2, lr
 8000d9e:	fb0e 2210 	mls	r2, lr, r0, r2
 8000da2:	ea43 4302 	orr.w	r3, r3, r2, lsl #16
 8000da6:	fb00 fc0c 	mul.w	ip, r0, ip
 8000daa:	459c      	cmp	ip, r3
 8000dac:	d909      	bls.n	8000dc2 <__udivmoddi4+0x8e>
 8000dae:	18fb      	adds	r3, r7, r3
 8000db0:	f100 32ff 	add.w	r2, r0, #4294967295
 8000db4:	f080 80d6 	bcs.w	8000f64 <__udivmoddi4+0x230>
 8000db8:	459c      	cmp	ip, r3
 8000dba:	f240 80d3 	bls.w	8000f64 <__udivmoddi4+0x230>
 8000dbe:	443b      	add	r3, r7
 8000dc0:	3802      	subs	r0, #2
 8000dc2:	ea40 4001 	orr.w	r0, r0, r1, lsl #16
 8000dc6:	eba3 030c 	sub.w	r3, r3, ip
 8000dca:	2100      	movs	r1, #0
 8000dcc:	b11d      	cbz	r5, 8000dd6 <__udivmoddi4+0xa2>
 8000dce:	40f3      	lsrs	r3, r6
 8000dd0:	2200      	movs	r2, #0
 8000dd2:	e9c5 3200 	strd	r3, r2, [r5]
 8000dd6:	e8bd 87f0 	ldmia.w	sp!, {r4, r5, r6, r7, r8, r9, sl, pc}
 8000dda:	428b      	cmp	r3, r1
 8000ddc:	d905      	bls.n	8000dea <__udivmoddi4+0xb6>
 8000dde:	b10d      	cbz	r5, 8000de4 <__udivmoddi4+0xb0>
 8000de0:	e9c5 0100 	strd	r0, r1, [r5]
 8000de4:	2100      	movs	r1, #0
 8000de6:	4608      	mov	r0, r1
 8000de8:	e7f5      	b.n	8000dd6 <__udivmoddi4+0xa2>
 8000dea:	fab3 f183 	clz	r1, r3
 8000dee:	2900      	cmp	r1, #0
 8000df0:	d146      	bne.n	8000e80 <__udivmoddi4+0x14c>
 8000df2:	4573      	cmp	r3, lr
 8000df4:	d302      	bcc.n	8000dfc <__udivmoddi4+0xc8>
 8000df6:	4282      	cmp	r2, r0
 8000df8:	f200 8105 	bhi.w	8001006 <__udivmoddi4+0x2d2>
 8000dfc:	1a84      	subs	r4, r0, r2
 8000dfe:	eb6e 0203 	sbc.w	r2, lr, r3
 8000e02:	2001      	movs	r0, #1
 8000e04:	4690      	mov	r8, r2
 8000e06:	2d00      	cmp	r5, #0
 8000e08:	d0e5      	beq.n	8000dd6 <__udivmoddi4+0xa2>
 8000e0a:	e9c5 4800 	strd	r4, r8, [r5]
 8000e0e:	e7e2      	b.n	8000dd6 <__udivmoddi4+0xa2>
 8000e10:	2a00      	cmp	r2, #0
 8000e12:	f000 8090 	beq.w	8000f36 <__udivmoddi4+0x202>
 8000e16:	fab2 f682 	clz	r6, r2
 8000e1a:	2e00      	cmp	r6, #0
 8000e1c:	f040 80a4 	bne.w	8000f68 <__udivmoddi4+0x234>
 8000e20:	1a8a      	subs	r2, r1, r2
 8000e22:	0c03      	lsrs	r3, r0, #16
 8000e24:	ea4f 4e17 	mov.w	lr, r7, lsr #16
 8000e28:	b280      	uxth	r0, r0
 8000e2a:	b2bc      	uxth	r4, r7
 8000e2c:	2101      	movs	r1, #1
 8000e2e:	fbb2 fcfe 	udiv	ip, r2, lr
 8000e32:	fb0e 221c 	mls	r2, lr, ip, r2
 8000e36:	ea43 4302 	orr.w	r3, r3, r2, lsl #16
 8000e3a:	fb04 f20c 	mul.w	r2, r4, ip
 8000e3e:	429a      	cmp	r2, r3
 8000e40:	d907      	bls.n	8000e52 <__udivmoddi4+0x11e>
 8000e42:	18fb      	adds	r3, r7, r3
 8000e44:	f10c 38ff 	add.w	r8, ip, #4294967295
 8000e48:	d202      	bcs.n	8000e50 <__udivmoddi4+0x11c>
 8000e4a:	429a      	cmp	r2, r3
 8000e4c:	f200 80e0 	bhi.w	8001010 <__udivmoddi4+0x2dc>
 8000e50:	46c4      	mov	ip, r8
 8000e52:	1a9b      	subs	r3, r3, r2
 8000e54:	fbb3 f2fe 	udiv	r2, r3, lr
 8000e58:	fb0e 3312 	mls	r3, lr, r2, r3
 8000e5c:	ea40 4303 	orr.w	r3, r0, r3, lsl #16
 8000e60:	fb02 f404 	mul.w	r4, r2, r4
 8000e64:	429c      	cmp	r4, r3
 8000e66:	d907      	bls.n	8000e78 <__udivmoddi4+0x144>
 8000e68:	18fb      	adds	r3, r7, r3
 8000e6a:	f102 30ff 	add.w	r0, r2, #4294967295
 8000e6e:	d202      	bcs.n	8000e76 <__udivmoddi4+0x142>
 8000e70:	429c      	cmp	r4, r3
 8000e72:	f200 80ca 	bhi.w	800100a <__udivmoddi4+0x2d6>
 8000e76:	4602      	mov	r2, r0
 8000e78:	1b1b      	subs	r3, r3, r4
 8000e7a:	ea42 400c 	orr.w	r0, r2, ip, lsl #16
 8000e7e:	e7a5      	b.n	8000dcc <__udivmoddi4+0x98>
 8000e80:	f1c1 0620 	rsb	r6, r1, #32
 8000e84:	408b      	lsls	r3, r1
 8000e86:	fa22 f706 	lsr.w	r7, r2, r6
 8000e8a:	431f      	orrs	r7, r3
 8000e8c:	fa0e f401 	lsl.w	r4, lr, r1
 8000e90:	fa20 f306 	lsr.w	r3, r0, r6
 8000e94:	fa2e fe06 	lsr.w	lr, lr, r6
 8000e98:	ea4f 4917 	mov.w	r9, r7, lsr #16
 8000e9c:	4323      	orrs	r3, r4
 8000e9e:	fa00 f801 	lsl.w	r8, r0, r1
 8000ea2:	fa1f fc87 	uxth.w	ip, r7
 8000ea6:	fbbe f0f9 	udiv	r0, lr, r9
 8000eaa:	0c1c      	lsrs	r4, r3, #16
 8000eac:	fb09 ee10 	mls	lr, r9, r0, lr
 8000eb0:	ea44 440e 	orr.w	r4, r4, lr, lsl #16
 8000eb4:	fb00 fe0c 	mul.w	lr, r0, ip
 8000eb8:	45a6      	cmp	lr, r4
 8000eba:	fa02 f201 	lsl.w	r2, r2, r1
 8000ebe:	d909      	bls.n	8000ed4 <__udivmoddi4+0x1a0>
 8000ec0:	193c      	adds	r4, r7, r4
 8000ec2:	f100 3aff 	add.w	sl, r0, #4294967295
 8000ec6:	f080 809c 	bcs.w	8001002 <__udivmoddi4+0x2ce>
 8000eca:	45a6      	cmp	lr, r4
 8000ecc:	f240 8099 	bls.w	8001002 <__udivmoddi4+0x2ce>
 8000ed0:	3802      	subs	r0, #2
 8000ed2:	443c      	add	r4, r7
 8000ed4:	eba4 040e 	sub.w	r4, r4, lr
 8000ed8:	fa1f fe83 	uxth.w	lr, r3
 8000edc:	fbb4 f3f9 	udiv	r3, r4, r9
 8000ee0:	fb09 4413 	mls	r4, r9, r3, r4
 8000ee4:	ea4e 4404 	orr.w	r4, lr, r4, lsl #16
 8000ee8:	fb03 fc0c 	mul.w	ip, r3, ip
 8000eec:	45a4      	cmp	ip, r4
 8000eee:	d908      	bls.n	8000f02 <__udivmoddi4+0x1ce>
 8000ef0:	193c      	adds	r4, r7, r4
 8000ef2:	f103 3eff 	add.w	lr, r3, #4294967295
 8000ef6:	f080 8082 	bcs.w	8000ffe <__udivmoddi4+0x2ca>
 8000efa:	45a4      	cmp	ip, r4
 8000efc:	d97f      	bls.n	8000ffe <__udivmoddi4+0x2ca>
 8000efe:	3b02      	subs	r3, #2
 8000f00:	443c      	add	r4, r7
 8000f02:	ea43 4000 	orr.w	r0, r3, r0, lsl #16
 8000f06:	eba4 040c 	sub.w	r4, r4, ip
 8000f0a:	fba0 ec02 	umull	lr, ip, r0, r2
 8000f0e:	4564      	cmp	r4, ip
 8000f10:	4673      	mov	r3, lr
 8000f12:	46e1      	mov	r9, ip
 8000f14:	d362      	bcc.n	8000fdc <__udivmoddi4+0x2a8>
 8000f16:	d05f      	beq.n	8000fd8 <__udivmoddi4+0x2a4>
 8000f18:	b15d      	cbz	r5, 8000f32 <__udivmoddi4+0x1fe>
 8000f1a:	ebb8 0203 	subs.w	r2, r8, r3
 8000f1e:	eb64 0409 	sbc.w	r4, r4, r9
 8000f22:	fa04 f606 	lsl.w	r6, r4, r6
 8000f26:	fa22 f301 	lsr.w	r3, r2, r1
 8000f2a:	431e      	orrs	r6, r3
 8000f2c:	40cc      	lsrs	r4, r1
 8000f2e:	e9c5 6400 	strd	r6, r4, [r5]
 8000f32:	2100      	movs	r1, #0
 8000f34:	e74f      	b.n	8000dd6 <__udivmoddi4+0xa2>
 8000f36:	fbb1 fcf2 	udiv	ip, r1, r2
 8000f3a:	0c01      	lsrs	r1, r0, #16
 8000f3c:	ea41 410e 	orr.w	r1, r1, lr, lsl #16
 8000f40:	b280      	uxth	r0, r0
 8000f42:	ea40 4201 	orr.w	r2, r0, r1, lsl #16
 8000f46:	463b      	mov	r3, r7
 8000f48:	4638      	mov	r0, r7
 8000f4a:	463c      	mov	r4, r7
 8000f4c:	46b8      	mov	r8, r7
 8000f4e:	46be      	mov	lr, r7
 8000f50:	2620      	movs	r6, #32
 8000f52:	fbb1 f1f7 	udiv	r1, r1, r7
 8000f56:	eba2 0208 	sub.w	r2, r2, r8
 8000f5a:	ea41 410c 	orr.w	r1, r1, ip, lsl #16
 8000f5e:	e766      	b.n	8000e2e <__udivmoddi4+0xfa>
 8000f60:	4601      	mov	r1, r0
 8000f62:	e718      	b.n	8000d96 <__udivmoddi4+0x62>
 8000f64:	4610      	mov	r0, r2
 8000f66:	e72c      	b.n	8000dc2 <__udivmoddi4+0x8e>
 8000f68:	f1c6 0220 	rsb	r2, r6, #32
 8000f6c:	fa2e f302 	lsr.w	r3, lr, r2
 8000f70:	40b7      	lsls	r7, r6
 8000f72:	40b1      	lsls	r1, r6
 8000f74:	fa20 f202 	lsr.w	r2, r0, r2
 8000f78:	ea4f 4e17 	mov.w	lr, r7, lsr #16
 8000f7c:	430a      	orrs	r2, r1
 8000f7e:	fbb3 f8fe 	udiv	r8, r3, lr
 8000f82:	b2bc      	uxth	r4, r7
 8000f84:	fb0e 3318 	mls	r3, lr, r8, r3
 8000f88:	0c11      	lsrs	r1, r2, #16
 8000f8a:	ea41 4103 	orr.w	r1, r1, r3, lsl #16
 8000f8e:	fb08 f904 	mul.w	r9, r8, r4
 8000f92:	40b0      	lsls	r0, r6
 8000f94:	4589      	cmp	r9, r1
 8000f96:	ea4f 4310 	mov.w	r3, r0, lsr #16
 8000f9a:	b280      	uxth	r0, r0
 8000f9c:	d93e      	bls.n	800101c <__udivmoddi4+0x2e8>
 8000f9e:	1879      	adds	r1, r7, r1
 8000fa0:	f108 3cff 	add.w	ip, r8, #4294967295
 8000fa4:	d201      	bcs.n	8000faa <__udivmoddi4+0x276>
 8000fa6:	4589      	cmp	r9, r1
 8000fa8:	d81f      	bhi.n	8000fea <__udivmoddi4+0x2b6>
 8000faa:	eba1 0109 	sub.w	r1, r1, r9
 8000fae:	fbb1 f9fe 	udiv	r9, r1, lr
 8000fb2:	fb09 f804 	mul.w	r8, r9, r4
 8000fb6:	fb0e 1119 	mls	r1, lr, r9, r1
 8000fba:	b292      	uxth	r2, r2
 8000fbc:	ea42 4201 	orr.w	r2, r2, r1, lsl #16
 8000fc0:	4542      	cmp	r2, r8
 8000fc2:	d229      	bcs.n	8001018 <__udivmoddi4+0x2e4>
 8000fc4:	18ba      	adds	r2, r7, r2
 8000fc6:	f109 31ff 	add.w	r1, r9, #4294967295
 8000fca:	d2c4      	bcs.n	8000f56 <__udivmoddi4+0x222>
 8000fcc:	4542      	cmp	r2, r8
 8000fce:	d2c2      	bcs.n	8000f56 <__udivmoddi4+0x222>
 8000fd0:	f1a9 0102 	sub.w	r1, r9, #2
 8000fd4:	443a      	add	r2, r7
 8000fd6:	e7be      	b.n	8000f56 <__udivmoddi4+0x222>
 8000fd8:	45f0      	cmp	r8, lr
 8000fda:	d29d      	bcs.n	8000f18 <__udivmoddi4+0x1e4>
 8000fdc:	ebbe 0302 	subs.w	r3, lr, r2
 8000fe0:	eb6c 0c07 	sbc.w	ip, ip, r7
 8000fe4:	3801      	subs	r0, #1
 8000fe6:	46e1      	mov	r9, ip
 8000fe8:	e796      	b.n	8000f18 <__udivmoddi4+0x1e4>
 8000fea:	eba7 0909 	sub.w	r9, r7, r9
 8000fee:	4449      	add	r1, r9
 8000ff0:	f1a8 0c02 	sub.w	ip, r8, #2
 8000ff4:	fbb1 f9fe 	udiv	r9, r1, lr
 8000ff8:	fb09 f804 	mul.w	r8, r9, r4
 8000ffc:	e7db      	b.n	8000fb6 <__udivmoddi4+0x282>
 8000ffe:	4673      	mov	r3, lr
 8001000:	e77f      	b.n	8000f02 <__udivmoddi4+0x1ce>
 8001002:	4650      	mov	r0, sl
 8001004:	e766      	b.n	8000ed4 <__udivmoddi4+0x1a0>
 8001006:	4608      	mov	r0, r1
 8001008:	e6fd      	b.n	8000e06 <__udivmoddi4+0xd2>
 800100a:	443b      	add	r3, r7
 800100c:	3a02      	subs	r2, #2
 800100e:	e733      	b.n	8000e78 <__udivmoddi4+0x144>
 8001010:	f1ac 0c02 	sub.w	ip, ip, #2
 8001014:	443b      	add	r3, r7
 8001016:	e71c      	b.n	8000e52 <__udivmoddi4+0x11e>
 8001018:	4649      	mov	r1, r9
 800101a:	e79c      	b.n	8000f56 <__udivmoddi4+0x222>
 800101c:	eba1 0109 	sub.w	r1, r1, r9
 8001020:	46c4      	mov	ip, r8
 8001022:	fbb1 f9fe 	udiv	r9, r1, lr
 8001026:	fb09 f804 	mul.w	r8, r9, r4
 800102a:	e7c4      	b.n	8000fb6 <__udivmoddi4+0x282>

0800102c <__aeabi_idiv0>:
 800102c:	4770      	bx	lr
 800102e:	bf00      	nop

08001030 <Task1>:
uint8_t task1_send_err = 0;
uint8_t task1_receive_err = 0;
uint32_t task1_last_received = 0;

void Task1(void *param)
{
 8001030:	e92d 43f0 	stmdb	sp!, {r4, r5, r6, r7, r8, r9, lr}
 8001034:	b087      	sub	sp, #28
	uint32_t prev_time = 0;
	char tx[20] = {"\0"};
 8001036:	2214      	movs	r2, #20
 8001038:	2100      	movs	r1, #0
 800103a:	a801      	add	r0, sp, #4
 800103c:	f003 ffe1 	bl	8005002 <memset>
	uint8_t cnt = 0;
 8001040:	2400      	movs	r4, #0
	{

		if((getMS() - prev_time) >= 500){
			prev_time = getMS();
			cnt++;
			sprintf(tx,"task1:%d\r\n", cnt);
 8001042:	4f1e      	ldr	r7, [pc, #120]	@ (80010bc <Task1+0x8c>)
			if(xMessageBufferSend(msg_buf_task1_to_task2, tx, strlen(tx), pdMS_TO_TICKS(10)) != strlen(tx))
 8001044:	f8df 808c 	ldr.w	r8, [pc, #140]	@ 80010d4 <Task1+0xa4>
				task1_send_err++;
 8001048:	4e1d      	ldr	r6, [pc, #116]	@ (80010c0 <Task1+0x90>)
	uint32_t prev_time = 0;
 800104a:	4625      	mov	r5, r4
		if((getMS() - prev_time) >= 500){
 800104c:	f002 f83a 	bl	80030c4 <xTaskGetTickCount>
 8001050:	1b40      	subs	r0, r0, r5
 8001052:	f5b0 7ffa 	cmp.w	r0, #500	@ 0x1f4
 8001056:	d31c      	bcc.n	8001092 <Task1+0x62>
			prev_time = getMS();
 8001058:	f002 f834 	bl	80030c4 <xTaskGetTickCount>
			cnt++;
 800105c:	3401      	adds	r4, #1
 800105e:	b2e4      	uxtb	r4, r4
			sprintf(tx,"task1:%d\r\n", cnt);
 8001060:	4622      	mov	r2, r4
 8001062:	4639      	mov	r1, r7
			prev_time = getMS();
 8001064:	4605      	mov	r5, r0
			sprintf(tx,"task1:%d\r\n", cnt);
 8001066:	a801      	add	r0, sp, #4
 8001068:	f003 ff66 	bl	8004f38 <siprintf>
			if(xMessageBufferSend(msg_buf_task1_to_task2, tx, strlen(tx), pdMS_TO_TICKS(10)) != strlen(tx))
 800106c:	a801      	add	r0, sp, #4
 800106e:	f7ff f907 	bl	8000280 <strlen>
 8001072:	230a      	movs	r3, #10
 8001074:	4602      	mov	r2, r0
 8001076:	a901      	add	r1, sp, #4
 8001078:	f8d8 0000 	ldr.w	r0, [r8]
 800107c:	f001 fced 	bl	8002a5a <xStreamBufferSend>
 8001080:	4681      	mov	r9, r0
 8001082:	a801      	add	r0, sp, #4
 8001084:	f7ff f8fc 	bl	8000280 <strlen>
 8001088:	4581      	cmp	r9, r0
				task1_send_err++;
 800108a:	bf1e      	ittt	ne
 800108c:	7833      	ldrbne	r3, [r6, #0]
 800108e:	3301      	addne	r3, #1
 8001090:	7033      	strbne	r3, [r6, #0]
		}

		if(xMessageBufferReceive(msg_buf_task2_to_task1, task1_buff, 30, pdMS_TO_TICKS(5)) == 0)
 8001092:	480c      	ldr	r0, [pc, #48]	@ (80010c4 <Task1+0x94>)
 8001094:	490c      	ldr	r1, [pc, #48]	@ (80010c8 <Task1+0x98>)
 8001096:	6800      	ldr	r0, [r0, #0]
 8001098:	2305      	movs	r3, #5
 800109a:	221e      	movs	r2, #30
 800109c:	f001 fd62 	bl	8002b64 <xStreamBufferReceive>
 80010a0:	b938      	cbnz	r0, 80010b2 <Task1+0x82>
			task1_receive_err++;
 80010a2:	4a0a      	ldr	r2, [pc, #40]	@ (80010cc <Task1+0x9c>)
 80010a4:	7813      	ldrb	r3, [r2, #0]
 80010a6:	3301      	adds	r3, #1
 80010a8:	7013      	strb	r3, [r2, #0]
		else task1_last_received = getMS();

		vTaskDelay(1);
 80010aa:	2001      	movs	r0, #1
 80010ac:	f002 f91a 	bl	80032e4 <vTaskDelay>
		if((getMS() - prev_time) >= 500){
 80010b0:	e7cc      	b.n	800104c <Task1+0x1c>
		else task1_last_received = getMS();
 80010b2:	f002 f807 	bl	80030c4 <xTaskGetTickCount>
 80010b6:	4b06      	ldr	r3, [pc, #24]	@ (80010d0 <Task1+0xa0>)
 80010b8:	6018      	str	r0, [r3, #0]
 80010ba:	e7f6      	b.n	80010aa <Task1+0x7a>
 80010bc:	08008890 	.word	0x08008890
 80010c0:	20000201 	.word	0x20000201
 80010c4:	2000022c 	.word	0x2000022c
 80010c8:	20000216 	.word	0x20000216
 80010cc:	20000200 	.word	0x20000200
 80010d0:	200001fc 	.word	0x200001fc
 80010d4:	20000230 	.word	0x20000230

080010d8 <Task2>:
uint8_t task2_send_err = 0;
uint8_t task2_receive_err = 0;
uint32_t task2_last_received = 0;

void Task2(void *param)
{
 80010d8:	e92d 43f0 	stmdb	sp!, {r4, r5, r6, r7, r8, r9, lr}
 80010dc:	b087      	sub	sp, #28
	uint32_t prev_time = 0;
	char tx[20] = {"\0"};
 80010de:	2214      	movs	r2, #20
 80010e0:	2100      	movs	r1, #0
 80010e2:	a801      	add	r0, sp, #4
 80010e4:	f003 ff8d 	bl	8005002 <memset>
	uint8_t cnt = 0;
 80010e8:	2400      	movs	r4, #0
	{

		if((getMS() - prev_time) >= 500){
			prev_time = getMS();
			cnt++;
			sprintf(tx,"task2:%d\r\n", cnt);
 80010ea:	4f1e      	ldr	r7, [pc, #120]	@ (8001164 <Task2+0x8c>)
			if(xMessageBufferSend(msg_buf_task2_to_task1, tx, strlen(tx), pdMS_TO_TICKS(10)) != strlen(tx))
 80010ec:	f8df 808c 	ldr.w	r8, [pc, #140]	@ 800117c <Task2+0xa4>
				task2_send_err++;
 80010f0:	4e1d      	ldr	r6, [pc, #116]	@ (8001168 <Task2+0x90>)
	uint32_t prev_time = 0;
 80010f2:	4625      	mov	r5, r4
		if((getMS() - prev_time) >= 500){
 80010f4:	f001 ffe6 	bl	80030c4 <xTaskGetTickCount>
 80010f8:	1b40      	subs	r0, r0, r5
 80010fa:	f5b0 7ffa 	cmp.w	r0, #500	@ 0x1f4
 80010fe:	d31c      	bcc.n	800113a <Task2+0x62>
			prev_time = getMS();
 8001100:	f001 ffe0 	bl	80030c4 <xTaskGetTickCount>
			cnt++;
 8001104:	3401      	adds	r4, #1
 8001106:	b2e4      	uxtb	r4, r4
			sprintf(tx,"task2:%d\r\n", cnt);
 8001108:	4622      	mov	r2, r4
 800110a:	4639      	mov	r1, r7
			prev_time = getMS();
 800110c:	4605      	mov	r5, r0
			sprintf(tx,"task2:%d\r\n", cnt);
 800110e:	a801      	add	r0, sp, #4
 8001110:	f003 ff12 	bl	8004f38 <siprintf>
			if(xMessageBufferSend(msg_buf_task2_to_task1, tx, strlen(tx), pdMS_TO_TICKS(10)) != strlen(tx))
 8001114:	a801      	add	r0, sp, #4
 8001116:	f7ff f8b3 	bl	8000280 <strlen>
 800111a:	230a      	movs	r3, #10
 800111c:	4602      	mov	r2, r0
 800111e:	a901      	add	r1, sp, #4
 8001120:	f8d8 0000 	ldr.w	r0, [r8]
 8001124:	f001 fc99 	bl	8002a5a <xStreamBufferSend>
 8001128:	4681      	mov	r9, r0
 800112a:	a801      	add	r0, sp, #4
 800112c:	f7ff f8a8 	bl	8000280 <strlen>
 8001130:	4581      	cmp	r9, r0
				task2_send_err++;
 8001132:	bf1e      	ittt	ne
 8001134:	7833      	ldrbne	r3, [r6, #0]
 8001136:	3301      	addne	r3, #1
 8001138:	7033      	strbne	r3, [r6, #0]
		}

		if(xMessageBufferReceive(msg_buf_task1_to_task2, task2_buff, 30, pdMS_TO_TICKS(5)) == 0)
 800113a:	480c      	ldr	r0, [pc, #48]	@ (800116c <Task2+0x94>)
 800113c:	490c      	ldr	r1, [pc, #48]	@ (8001170 <Task2+0x98>)
 800113e:	6800      	ldr	r0, [r0, #0]
 8001140:	2305      	movs	r3, #5
 8001142:	221e      	movs	r2, #30
 8001144:	f001 fd0e 	bl	8002b64 <xStreamBufferReceive>
 8001148:	b938      	cbnz	r0, 800115a <Task2+0x82>
			task2_receive_err++;
 800114a:	4a0a      	ldr	r2, [pc, #40]	@ (8001174 <Task2+0x9c>)
 800114c:	7813      	ldrb	r3, [r2, #0]
 800114e:	3301      	adds	r3, #1
 8001150:	7013      	strb	r3, [r2, #0]
		else task2_last_received = getMS();

		vTaskDelay(1);
 8001152:	2001      	movs	r0, #1
 8001154:	f002 f8c6 	bl	80032e4 <vTaskDelay>
		if((getMS() - prev_time) >= 500){
 8001158:	e7cc      	b.n	80010f4 <Task2+0x1c>
		else task2_last_received = getMS();
 800115a:	f001 ffb3 	bl	80030c4 <xTaskGetTickCount>
 800115e:	4b06      	ldr	r3, [pc, #24]	@ (8001178 <Task2+0xa0>)
 8001160:	6018      	str	r0, [r3, #0]
 8001162:	e7f6      	b.n	8001152 <Task2+0x7a>
 8001164:	0800889b 	.word	0x0800889b
 8001168:	200001f9 	.word	0x200001f9
 800116c:	20000230 	.word	0x20000230
 8001170:	20000202 	.word	0x20000202
 8001174:	200001f8 	.word	0x200001f8
 8001178:	200001f4 	.word	0x200001f4
 800117c:	2000022c 	.word	0x2000022c

08001180 <SystemClock_Config>:
{
 8001180:	b510      	push	{r4, lr}
 8001182:	b094      	sub	sp, #80	@ 0x50
  RCC_OscInitTypeDef RCC_OscInitStruct = {0};
 8001184:	2214      	movs	r2, #20
 8001186:	2100      	movs	r1, #0
 8001188:	a809      	add	r0, sp, #36	@ 0x24
 800118a:	f003 ff3a 	bl	8005002 <memset>
  RCC_ClkInitTypeDef RCC_ClkInitStruct = {0};
 800118e:	2214      	movs	r2, #20
 8001190:	2100      	movs	r1, #0
 8001192:	a803      	add	r0, sp, #12
 8001194:	f003 ff35 	bl	8005002 <memset>
  __HAL_RCC_PWR_CLK_ENABLE();
 8001198:	2300      	movs	r3, #0
 800119a:	4a1e      	ldr	r2, [pc, #120]	@ (8001214 <SystemClock_Config+0x94>)
 800119c:	9301      	str	r3, [sp, #4]
 800119e:	6c11      	ldr	r1, [r2, #64]	@ 0x40
 80011a0:	f041 5180 	orr.w	r1, r1, #268435456	@ 0x10000000
 80011a4:	6411      	str	r1, [r2, #64]	@ 0x40
 80011a6:	6c12      	ldr	r2, [r2, #64]	@ 0x40
 80011a8:	f002 5280 	and.w	r2, r2, #268435456	@ 0x10000000
 80011ac:	9201      	str	r2, [sp, #4]
 80011ae:	9a01      	ldr	r2, [sp, #4]
  __HAL_PWR_VOLTAGESCALING_CONFIG(PWR_REGULATOR_VOLTAGE_SCALE1);
 80011b0:	4a19      	ldr	r2, [pc, #100]	@ (8001218 <SystemClock_Config+0x98>)
 80011b2:	9302      	str	r3, [sp, #8]
 80011b4:	6811      	ldr	r1, [r2, #0]
 80011b6:	f441 4140 	orr.w	r1, r1, #49152	@ 0xc000
 80011ba:	6011      	str	r1, [r2, #0]
 80011bc:	6812      	ldr	r2, [r2, #0]
  RCC_OscInitStruct.OscillatorType = RCC_OSCILLATORTYPE_HSI;
 80011be:	2402      	movs	r4, #2
  __HAL_PWR_VOLTAGESCALING_CONFIG(PWR_REGULATOR_VOLTAGE_SCALE1);
 80011c0:	f402 4240 	and.w	r2, r2, #49152	@ 0xc000
  RCC_OscInitStruct.PLL.PLLN = 100;
 80011c4:	2008      	movs	r0, #8
  RCC_OscInitStruct.PLL.PLLSource = RCC_PLLSOURCE_HSI;
 80011c6:	e9cd 430e 	strd	r4, r3, [sp, #56]	@ 0x38
  __HAL_PWR_VOLTAGESCALING_CONFIG(PWR_REGULATOR_VOLTAGE_SCALE1);
 80011ca:	9202      	str	r2, [sp, #8]
  RCC_OscInitStruct.PLL.PLLN = 100;
 80011cc:	2364      	movs	r3, #100	@ 0x64
 80011ce:	e9cd 0310 	strd	r0, r3, [sp, #64]	@ 0x40
  __HAL_PWR_VOLTAGESCALING_CONFIG(PWR_REGULATOR_VOLTAGE_SCALE1);
 80011d2:	9a02      	ldr	r2, [sp, #8]
  RCC_OscInitStruct.OscillatorType = RCC_OSCILLATORTYPE_HSI;
 80011d4:	9408      	str	r4, [sp, #32]
  RCC_OscInitStruct.HSICalibrationValue = RCC_HSICALIBRATION_DEFAULT;
 80011d6:	2101      	movs	r1, #1
 80011d8:	2210      	movs	r2, #16
  RCC_OscInitStruct.PLL.PLLQ = 4;
 80011da:	2304      	movs	r3, #4
  if (HAL_RCC_OscConfig(&RCC_OscInitStruct) != HAL_OK)
 80011dc:	a808      	add	r0, sp, #32
  RCC_OscInitStruct.HSICalibrationValue = RCC_HSICALIBRATION_DEFAULT;
 80011de:	e9cd 120b 	strd	r1, r2, [sp, #44]	@ 0x2c
  RCC_OscInitStruct.PLL.PLLP = RCC_PLLP_DIV2;
 80011e2:	9412      	str	r4, [sp, #72]	@ 0x48
  RCC_OscInitStruct.PLL.PLLQ = 4;
 80011e4:	9313      	str	r3, [sp, #76]	@ 0x4c
  if (HAL_RCC_OscConfig(&RCC_OscInitStruct) != HAL_OK)
 80011e6:	f000 fb33 	bl	8001850 <HAL_RCC_OscConfig>
 80011ea:	b108      	cbz	r0, 80011f0 <SystemClock_Config+0x70>
  \details Disables IRQ interrupts by setting special-purpose register PRIMASK.
           Can only be executed in Privileged modes.
 */
__STATIC_FORCEINLINE void __disable_irq(void)
{
  __ASM volatile ("cpsid i" : : : "memory");
 80011ec:	b672      	cpsid	i
void Error_Handler(void)
{
  /* USER CODE BEGIN Error_Handler_Debug */
  /* User can add his own implementation to report the HAL error return state */
  __disable_irq();
  while (1)
 80011ee:	e7fe      	b.n	80011ee <SystemClock_Config+0x6e>
  RCC_ClkInitStruct.ClockType = RCC_CLOCKTYPE_HCLK|RCC_CLOCKTYPE_SYSCLK
 80011f0:	230f      	movs	r3, #15
  RCC_ClkInitStruct.SYSCLKSource = RCC_SYSCLKSOURCE_PLLCLK;
 80011f2:	e9cd 3403 	strd	r3, r4, [sp, #12]
  RCC_ClkInitStruct.APB1CLKDivider = RCC_HCLK_DIV2;
 80011f6:	f44f 5380 	mov.w	r3, #4096	@ 0x1000
  RCC_ClkInitStruct.APB2CLKDivider = RCC_HCLK_DIV1;
 80011fa:	e9cd 3006 	strd	r3, r0, [sp, #24]
  RCC_ClkInitStruct.AHBCLKDivider = RCC_SYSCLK_DIV1;
 80011fe:	9005      	str	r0, [sp, #20]
  if (HAL_RCC_ClockConfig(&RCC_ClkInitStruct, FLASH_LATENCY_3) != HAL_OK)
 8001200:	2103      	movs	r1, #3
 8001202:	a803      	add	r0, sp, #12
 8001204:	f000 fd00 	bl	8001c08 <HAL_RCC_ClockConfig>
 8001208:	b108      	cbz	r0, 800120e <SystemClock_Config+0x8e>
 800120a:	b672      	cpsid	i
  while (1)
 800120c:	e7fe      	b.n	800120c <SystemClock_Config+0x8c>
}
 800120e:	b014      	add	sp, #80	@ 0x50
 8001210:	bd10      	pop	{r4, pc}
 8001212:	bf00      	nop
 8001214:	40023800 	.word	0x40023800
 8001218:	40007000 	.word	0x40007000

0800121c <main>:
{
 800121c:	b500      	push	{lr}
 800121e:	b08b      	sub	sp, #44	@ 0x2c
  HAL_Init();
 8001220:	f000 f9cc 	bl	80015bc <HAL_Init>
  SystemClock_Config();
 8001224:	f7ff ffac 	bl	8001180 <SystemClock_Config>
  GPIO_InitTypeDef GPIO_InitStruct = {0};
 8001228:	2214      	movs	r2, #20
 800122a:	2100      	movs	r1, #0
 800122c:	eb0d 0002 	add.w	r0, sp, r2
 8001230:	f003 fee7 	bl	8005002 <memset>
  __HAL_RCC_GPIOC_CLK_ENABLE();
 8001234:	2400      	movs	r4, #0
 8001236:	4b34      	ldr	r3, [pc, #208]	@ (8001308 <main+0xec>)
 8001238:	9403      	str	r4, [sp, #12]
 800123a:	6b1a      	ldr	r2, [r3, #48]	@ 0x30
  HAL_GPIO_WritePin(LED_GPIO_Port, LED_Pin, GPIO_PIN_RESET);
 800123c:	4833      	ldr	r0, [pc, #204]	@ (800130c <main+0xf0>)
  __HAL_RCC_GPIOC_CLK_ENABLE();
 800123e:	f042 0204 	orr.w	r2, r2, #4
 8001242:	631a      	str	r2, [r3, #48]	@ 0x30
 8001244:	6b1a      	ldr	r2, [r3, #48]	@ 0x30
 8001246:	f002 0204 	and.w	r2, r2, #4
 800124a:	9203      	str	r2, [sp, #12]
 800124c:	9a03      	ldr	r2, [sp, #12]
  __HAL_RCC_GPIOA_CLK_ENABLE();
 800124e:	9404      	str	r4, [sp, #16]
 8001250:	6b1a      	ldr	r2, [r3, #48]	@ 0x30
 8001252:	f042 0201 	orr.w	r2, r2, #1
 8001256:	631a      	str	r2, [r3, #48]	@ 0x30
 8001258:	6b1b      	ldr	r3, [r3, #48]	@ 0x30
 800125a:	f003 0301 	and.w	r3, r3, #1
  HAL_GPIO_WritePin(LED_GPIO_Port, LED_Pin, GPIO_PIN_RESET);
 800125e:	4622      	mov	r2, r4
  __HAL_RCC_GPIOA_CLK_ENABLE();
 8001260:	9304      	str	r3, [sp, #16]
  HAL_GPIO_WritePin(LED_GPIO_Port, LED_Pin, GPIO_PIN_RESET);
 8001262:	2120      	movs	r1, #32
  __HAL_RCC_GPIOA_CLK_ENABLE();
 8001264:	9b04      	ldr	r3, [sp, #16]
  HAL_GPIO_WritePin(LED_GPIO_Port, LED_Pin, GPIO_PIN_RESET);
 8001266:	f000 faed 	bl	8001844 <HAL_GPIO_WritePin>
  GPIO_InitStruct.Pin = BTN_Pin;
 800126a:	f44f 5300 	mov.w	r3, #8192	@ 0x2000
  HAL_GPIO_Init(BTN_GPIO_Port, &GPIO_InitStruct);
 800126e:	4828      	ldr	r0, [pc, #160]	@ (8001310 <main+0xf4>)
  GPIO_InitStruct.Pull = GPIO_NOPULL;
 8001270:	9407      	str	r4, [sp, #28]
  HAL_GPIO_Init(BTN_GPIO_Port, &GPIO_InitStruct);
 8001272:	a905      	add	r1, sp, #20
  GPIO_InitStruct.Mode = GPIO_MODE_INPUT;
 8001274:	e9cd 3405 	strd	r3, r4, [sp, #20]
  GPIO_InitStruct.Mode = GPIO_MODE_OUTPUT_PP;
 8001278:	2501      	movs	r5, #1
  HAL_GPIO_Init(BTN_GPIO_Port, &GPIO_InitStruct);
 800127a:	f000 fa1d 	bl	80016b8 <HAL_GPIO_Init>
  GPIO_InitStruct.Mode = GPIO_MODE_OUTPUT_PP;
 800127e:	2320      	movs	r3, #32
  HAL_GPIO_Init(LED_GPIO_Port, &GPIO_InitStruct);
 8001280:	4822      	ldr	r0, [pc, #136]	@ (800130c <main+0xf0>)
 8001282:	a905      	add	r1, sp, #20
  GPIO_InitStruct.Mode = GPIO_MODE_OUTPUT_PP;
 8001284:	e9cd 3505 	strd	r3, r5, [sp, #20]
  GPIO_InitStruct.Speed = GPIO_SPEED_FREQ_LOW;
 8001288:	e9cd 4407 	strd	r4, r4, [sp, #28]
  HAL_GPIO_Init(LED_GPIO_Port, &GPIO_InitStruct);
 800128c:	f000 fa14 	bl	80016b8 <HAL_GPIO_Init>
  huart2.Instance = USART2;
 8001290:	4820      	ldr	r0, [pc, #128]	@ (8001314 <main+0xf8>)
  huart2.Init.BaudRate = 115200;
 8001292:	4a21      	ldr	r2, [pc, #132]	@ (8001318 <main+0xfc>)
  huart2.Init.Parity = UART_PARITY_NONE;
 8001294:	6104      	str	r4, [r0, #16]
  huart2.Init.BaudRate = 115200;
 8001296:	f44f 33e1 	mov.w	r3, #115200	@ 0x1c200
 800129a:	e9c0 2300 	strd	r2, r3, [r0]
  huart2.Init.Mode = UART_MODE_TX_RX;
 800129e:	230c      	movs	r3, #12
  huart2.Init.StopBits = UART_STOPBITS_1;
 80012a0:	e9c0 4402 	strd	r4, r4, [r0, #8]
  huart2.Init.HwFlowCtl = UART_HWCONTROL_NONE;
 80012a4:	e9c0 3405 	strd	r3, r4, [r0, #20]
  huart2.Init.OverSampling = UART_OVERSAMPLING_16;
 80012a8:	61c4      	str	r4, [r0, #28]
  if (HAL_UART_Init(&huart2) != HAL_OK)
 80012aa:	f000 ff1d 	bl	80020e8 <HAL_UART_Init>
 80012ae:	4604      	mov	r4, r0
 80012b0:	b108      	cbz	r0, 80012b6 <main+0x9a>
 80012b2:	b672      	cpsid	i
  while (1)
 80012b4:	e7fe      	b.n	80012b4 <main+0x98>
  osKernelInitialize();
 80012b6:	f000 ff53 	bl	8002160 <osKernelInitialize>
  xTaskCreate(Task1, "Task1", 512, NULL, 1, &task1_handle);
 80012ba:	4b18      	ldr	r3, [pc, #96]	@ (800131c <main+0x100>)
 80012bc:	4918      	ldr	r1, [pc, #96]	@ (8001320 <main+0x104>)
 80012be:	4819      	ldr	r0, [pc, #100]	@ (8001324 <main+0x108>)
 80012c0:	e9cd 5300 	strd	r5, r3, [sp]
 80012c4:	f44f 7200 	mov.w	r2, #512	@ 0x200
 80012c8:	4623      	mov	r3, r4
 80012ca:	f001 fe75 	bl	8002fb8 <xTaskCreate>
  xTaskCreate(Task2, "Task2", 512, NULL, 2, &task2_handle);
 80012ce:	4b16      	ldr	r3, [pc, #88]	@ (8001328 <main+0x10c>)
 80012d0:	9301      	str	r3, [sp, #4]
 80012d2:	2302      	movs	r3, #2
 80012d4:	4915      	ldr	r1, [pc, #84]	@ (800132c <main+0x110>)
 80012d6:	9300      	str	r3, [sp, #0]
 80012d8:	f44f 7200 	mov.w	r2, #512	@ 0x200
 80012dc:	4623      	mov	r3, r4
 80012de:	4814      	ldr	r0, [pc, #80]	@ (8001330 <main+0x114>)
 80012e0:	f001 fe6a 	bl	8002fb8 <xTaskCreate>
  msg_buf_task1_to_task2 = xMessageBufferCreate(30);
 80012e4:	462a      	mov	r2, r5
 80012e6:	4621      	mov	r1, r4
 80012e8:	201e      	movs	r0, #30
 80012ea:	f001 fb68 	bl	80029be <xStreamBufferGenericCreate>
 80012ee:	4b11      	ldr	r3, [pc, #68]	@ (8001334 <main+0x118>)
  msg_buf_task2_to_task1 = xMessageBufferCreate(30);
 80012f0:	462a      	mov	r2, r5
  msg_buf_task1_to_task2 = xMessageBufferCreate(30);
 80012f2:	6018      	str	r0, [r3, #0]
  msg_buf_task2_to_task1 = xMessageBufferCreate(30);
 80012f4:	4621      	mov	r1, r4
 80012f6:	201e      	movs	r0, #30
 80012f8:	f001 fb61 	bl	80029be <xStreamBufferGenericCreate>
 80012fc:	4b0e      	ldr	r3, [pc, #56]	@ (8001338 <main+0x11c>)
 80012fe:	6018      	str	r0, [r3, #0]
  vTaskStartScheduler();
 8001300:	f001 fe88 	bl	8003014 <vTaskStartScheduler>
  while (1)
 8001304:	e7fe      	b.n	8001304 <main+0xe8>
 8001306:	bf00      	nop
 8001308:	40023800 	.word	0x40023800
 800130c:	40020000 	.word	0x40020000
 8001310:	40020800 	.word	0x40020800
 8001314:	2000023c 	.word	0x2000023c
 8001318:	40004400 	.word	0x40004400
 800131c:	20000238 	.word	0x20000238
 8001320:	080088a6 	.word	0x080088a6
 8001324:	08001031 	.word	0x08001031
 8001328:	20000234 	.word	0x20000234
 800132c:	080088ac 	.word	0x080088ac
 8001330:	080010d9 	.word	0x080010d9
 8001334:	20000230 	.word	0x20000230
 8001338:	2000022c 	.word	0x2000022c

0800133c <HAL_TIM_PeriodElapsedCallback>:
  if (htim->Instance == TIM1)
 800133c:	6802      	ldr	r2, [r0, #0]
 800133e:	4b03      	ldr	r3, [pc, #12]	@ (800134c <HAL_TIM_PeriodElapsedCallback+0x10>)
 8001340:	429a      	cmp	r2, r3
 8001342:	d101      	bne.n	8001348 <HAL_TIM_PeriodElapsedCallback+0xc>
    HAL_IncTick();
 8001344:	f000 b954 	b.w	80015f0 <HAL_IncTick>
}
 8001348:	4770      	bx	lr
 800134a:	bf00      	nop
 800134c:	40010000 	.word	0x40010000

08001350 <HAL_MspInit>:
/* USER CODE END 0 */
/**
  * Initializes the Global MSP.
  */
void HAL_MspInit(void)
{
 8001350:	b082      	sub	sp, #8

  /* USER CODE BEGIN MspInit 0 */

  /* USER CODE END MspInit 0 */

  __HAL_RCC_SYSCFG_CLK_ENABLE();
 8001352:	4b0e      	ldr	r3, [pc, #56]	@ (800138c <HAL_MspInit+0x3c>)
 8001354:	2200      	movs	r2, #0
 8001356:	9200      	str	r2, [sp, #0]
 8001358:	6c59      	ldr	r1, [r3, #68]	@ 0x44
 800135a:	f441 4180 	orr.w	r1, r1, #16384	@ 0x4000
 800135e:	6459      	str	r1, [r3, #68]	@ 0x44
 8001360:	6c59      	ldr	r1, [r3, #68]	@ 0x44
 8001362:	f401 4180 	and.w	r1, r1, #16384	@ 0x4000
 8001366:	9100      	str	r1, [sp, #0]
 8001368:	9900      	ldr	r1, [sp, #0]
  __HAL_RCC_PWR_CLK_ENABLE();
 800136a:	9201      	str	r2, [sp, #4]
 800136c:	6c19      	ldr	r1, [r3, #64]	@ 0x40
 800136e:	f041 5180 	orr.w	r1, r1, #268435456	@ 0x10000000
 8001372:	6419      	str	r1, [r3, #64]	@ 0x40
 8001374:	6c1b      	ldr	r3, [r3, #64]	@ 0x40
 8001376:	f003 5380 	and.w	r3, r3, #268435456	@ 0x10000000
 800137a:	9301      	str	r3, [sp, #4]
 800137c:	9b01      	ldr	r3, [sp, #4]

  /* System interrupt init*/
  /* PendSV_IRQn interrupt configuration */
  HAL_NVIC_SetPriority(PendSV_IRQn, 15, 0);
 800137e:	210f      	movs	r1, #15
 8001380:	f06f 0001 	mvn.w	r0, #1

  /* USER CODE BEGIN MspInit 1 */

  /* USER CODE END MspInit 1 */
}
 8001384:	b002      	add	sp, #8
  HAL_NVIC_SetPriority(PendSV_IRQn, 15, 0);
 8001386:	f000 b957 	b.w	8001638 <HAL_NVIC_SetPriority>
 800138a:	bf00      	nop
 800138c:	40023800 	.word	0x40023800

08001390 <HAL_UART_MspInit>:
  * This function configures the hardware resources used in this example
  * @param huart: UART handle pointer
  * @retval None
  */
void HAL_UART_MspInit(UART_HandleTypeDef* huart)
{
 8001390:	b510      	push	{r4, lr}
 8001392:	4604      	mov	r4, r0
 8001394:	b088      	sub	sp, #32
  GPIO_InitTypeDef GPIO_InitStruct = {0};
 8001396:	2214      	movs	r2, #20
 8001398:	2100      	movs	r1, #0
 800139a:	a803      	add	r0, sp, #12
 800139c:	f003 fe31 	bl	8005002 <memset>
  if(huart->Instance==USART2)
 80013a0:	6822      	ldr	r2, [r4, #0]
 80013a2:	4b14      	ldr	r3, [pc, #80]	@ (80013f4 <HAL_UART_MspInit+0x64>)
 80013a4:	429a      	cmp	r2, r3
 80013a6:	d122      	bne.n	80013ee <HAL_UART_MspInit+0x5e>
  {
    /* USER CODE BEGIN USART2_MspInit 0 */

    /* USER CODE END USART2_MspInit 0 */
    /* Peripheral clock enable */
    __HAL_RCC_USART2_CLK_ENABLE();
 80013a8:	f503 33fa 	add.w	r3, r3, #128000	@ 0x1f400
 80013ac:	2100      	movs	r1, #0
 80013ae:	9101      	str	r1, [sp, #4]
 80013b0:	6c1a      	ldr	r2, [r3, #64]	@ 0x40
    GPIO_InitStruct.Pin = GPIO_PIN_2|GPIO_PIN_3;
    GPIO_InitStruct.Mode = GPIO_MODE_AF_PP;
    GPIO_InitStruct.Pull = GPIO_NOPULL;
    GPIO_InitStruct.Speed = GPIO_SPEED_FREQ_VERY_HIGH;
    GPIO_InitStruct.Alternate = GPIO_AF7_USART2;
    HAL_GPIO_Init(GPIOA, &GPIO_InitStruct);
 80013b2:	4811      	ldr	r0, [pc, #68]	@ (80013f8 <HAL_UART_MspInit+0x68>)
    __HAL_RCC_USART2_CLK_ENABLE();
 80013b4:	f442 3200 	orr.w	r2, r2, #131072	@ 0x20000
 80013b8:	641a      	str	r2, [r3, #64]	@ 0x40
 80013ba:	6c1a      	ldr	r2, [r3, #64]	@ 0x40
 80013bc:	f402 3200 	and.w	r2, r2, #131072	@ 0x20000
 80013c0:	9201      	str	r2, [sp, #4]
 80013c2:	9a01      	ldr	r2, [sp, #4]
    __HAL_RCC_GPIOA_CLK_ENABLE();
 80013c4:	9102      	str	r1, [sp, #8]
 80013c6:	6b1a      	ldr	r2, [r3, #48]	@ 0x30
 80013c8:	f042 0201 	orr.w	r2, r2, #1
 80013cc:	631a      	str	r2, [r3, #48]	@ 0x30
 80013ce:	6b1b      	ldr	r3, [r3, #48]	@ 0x30
 80013d0:	f003 0301 	and.w	r3, r3, #1
 80013d4:	9302      	str	r3, [sp, #8]
 80013d6:	9b02      	ldr	r3, [sp, #8]
    GPIO_InitStruct.Mode = GPIO_MODE_AF_PP;
 80013d8:	220c      	movs	r2, #12
 80013da:	2302      	movs	r3, #2
    GPIO_InitStruct.Alternate = GPIO_AF7_USART2;
 80013dc:	2103      	movs	r1, #3
    GPIO_InitStruct.Mode = GPIO_MODE_AF_PP;
 80013de:	e9cd 2303 	strd	r2, r3, [sp, #12]
    GPIO_InitStruct.Alternate = GPIO_AF7_USART2;
 80013e2:	2307      	movs	r3, #7
 80013e4:	e9cd 1306 	strd	r1, r3, [sp, #24]
    HAL_GPIO_Init(GPIOA, &GPIO_InitStruct);
 80013e8:	a903      	add	r1, sp, #12
 80013ea:	f000 f965 	bl	80016b8 <HAL_GPIO_Init>

    /* USER CODE END USART2_MspInit 1 */

  }

}
 80013ee:	b008      	add	sp, #32
 80013f0:	bd10      	pop	{r4, pc}
 80013f2:	bf00      	nop
 80013f4:	40004400 	.word	0x40004400
 80013f8:	40020000 	.word	0x40020000

080013fc <HAL_InitTick>:
  *         reset by HAL_Init() or at any time when clock is configured, by HAL_RCC_ClockConfig().
  * @param  TickPriority: Tick interrupt priority.
  * @retval HAL status
  */
HAL_StatusTypeDef HAL_InitTick(uint32_t TickPriority)
{
 80013fc:	b570      	push	{r4, r5, r6, lr}
 80013fe:	b088      	sub	sp, #32
  uint32_t              pFLatency;

  HAL_StatusTypeDef     status;

  /* Enable TIM1 clock */
  __HAL_RCC_TIM1_CLK_ENABLE();
 8001400:	2400      	movs	r4, #0
 8001402:	4b1d      	ldr	r3, [pc, #116]	@ (8001478 <HAL_InitTick+0x7c>)
 8001404:	9402      	str	r4, [sp, #8]
 8001406:	6c5a      	ldr	r2, [r3, #68]	@ 0x44

  /* Compute the prescaler value to have TIM1 counter clock equal to 1MHz */
  uwPrescalerValue = (uint32_t) ((uwTimclock / 1000000U) - 1U);

  /* Initialize TIM1 */
  htim1.Instance = TIM1;
 8001408:	4d1c      	ldr	r5, [pc, #112]	@ (800147c <HAL_InitTick+0x80>)
  __HAL_RCC_TIM1_CLK_ENABLE();
 800140a:	f042 0201 	orr.w	r2, r2, #1
 800140e:	645a      	str	r2, [r3, #68]	@ 0x44
 8001410:	6c5b      	ldr	r3, [r3, #68]	@ 0x44
 8001412:	f003 0301 	and.w	r3, r3, #1
  HAL_RCC_GetClockConfig(&clkconfig, &pFLatency);
 8001416:	a901      	add	r1, sp, #4
  __HAL_RCC_TIM1_CLK_ENABLE();
 8001418:	9302      	str	r3, [sp, #8]
{
 800141a:	4606      	mov	r6, r0
  HAL_RCC_GetClockConfig(&clkconfig, &pFLatency);
 800141c:	a803      	add	r0, sp, #12
  __HAL_RCC_TIM1_CLK_ENABLE();
 800141e:	9b02      	ldr	r3, [sp, #8]
  HAL_RCC_GetClockConfig(&clkconfig, &pFLatency);
 8001420:	f000 fcac 	bl	8001d7c <HAL_RCC_GetClockConfig>
      uwTimclock = HAL_RCC_GetPCLK2Freq();
 8001424:	f000 fc9a 	bl	8001d5c <HAL_RCC_GetPCLK2Freq>
  htim1.Instance = TIM1;
 8001428:	4b15      	ldr	r3, [pc, #84]	@ (8001480 <HAL_InitTick+0x84>)
 800142a:	602b      	str	r3, [r5, #0]
   * Period = [(TIM1CLK/1000) - 1]. to have a (1/1000) s time base.
   * Prescaler = (uwTimclock/1000000 - 1) to have a 1MHz counter clock.
   * ClockDivision = 0
   * Counter direction = Up
   */
  htim1.Init.Period = (1000000U / 1000U) - 1U;
 800142c:	f240 33e7 	movw	r3, #999	@ 0x3e7
 8001430:	60eb      	str	r3, [r5, #12]
  uwPrescalerValue = (uint32_t) ((uwTimclock / 1000000U) - 1U);
 8001432:	4b14      	ldr	r3, [pc, #80]	@ (8001484 <HAL_InitTick+0x88>)
 8001434:	fbb0 f0f3 	udiv	r0, r0, r3
 8001438:	3801      	subs	r0, #1
  htim1.Init.Prescaler = uwPrescalerValue;
 800143a:	6068      	str	r0, [r5, #4]
  htim1.Init.ClockDivision = 0;
  htim1.Init.CounterMode = TIM_COUNTERMODE_UP;
  htim1.Init.AutoReloadPreload = TIM_AUTORELOAD_PRELOAD_DISABLE;

  status = HAL_TIM_Base_Init(&htim1);
 800143c:	4628      	mov	r0, r5
  htim1.Init.ClockDivision = 0;
 800143e:	612c      	str	r4, [r5, #16]
  htim1.Init.CounterMode = TIM_COUNTERMODE_UP;
 8001440:	60ac      	str	r4, [r5, #8]
  htim1.Init.AutoReloadPreload = TIM_AUTORELOAD_PRELOAD_DISABLE;
 8001442:	61ac      	str	r4, [r5, #24]
  status = HAL_TIM_Base_Init(&htim1);
 8001444:	f000 fdc4 	bl	8001fd0 <HAL_TIM_Base_Init>
  if (status == HAL_OK)
 8001448:	4604      	mov	r4, r0
 800144a:	b980      	cbnz	r0, 800146e <HAL_InitTick+0x72>
  {
    /* Start the TIM time Base generation in interrupt mode */
    status = HAL_TIM_Base_Start_IT(&htim1);
 800144c:	4628      	mov	r0, r5
 800144e:	f000 fcb5 	bl	8001dbc <HAL_TIM_Base_Start_IT>
    if (status == HAL_OK)
 8001452:	4604      	mov	r4, r0
 8001454:	b958      	cbnz	r0, 800146e <HAL_InitTick+0x72>
    {
    /* Enable the TIM1 global Interrupt */
        HAL_NVIC_EnableIRQ(TIM1_UP_TIM10_IRQn);
 8001456:	2019      	movs	r0, #25
 8001458:	f000 f920 	bl	800169c <HAL_NVIC_EnableIRQ>
      /* Configure the SysTick IRQ priority */
      if (TickPriority < (1UL << __NVIC_PRIO_BITS))
 800145c:	2e0f      	cmp	r6, #15
 800145e:	d809      	bhi.n	8001474 <HAL_InitTick+0x78>
      {
        /* Configure the TIM IRQ priority */
        HAL_NVIC_SetPriority(TIM1_UP_TIM10_IRQn, TickPriority, 0U);
 8001460:	4622      	mov	r2, r4
 8001462:	4631      	mov	r1, r6
 8001464:	2019      	movs	r0, #25
 8001466:	f000 f8e7 	bl	8001638 <HAL_NVIC_SetPriority>
        uwTickPrio = TickPriority;
 800146a:	4b07      	ldr	r3, [pc, #28]	@ (8001488 <HAL_InitTick+0x8c>)
 800146c:	601e      	str	r6, [r3, #0]
    }
  }

 /* Return function status */
  return status;
}
 800146e:	4620      	mov	r0, r4
 8001470:	b008      	add	sp, #32
 8001472:	bd70      	pop	{r4, r5, r6, pc}
        status = HAL_ERROR;
 8001474:	2401      	movs	r4, #1
 8001476:	e7fa      	b.n	800146e <HAL_InitTick+0x72>
 8001478:	40023800 	.word	0x40023800
 800147c:	20000284 	.word	0x20000284
 8001480:	40010000 	.word	0x40010000
 8001484:	000f4240 	.word	0x000f4240
 8001488:	20000008 	.word	0x20000008

0800148c <NMI_Handler>:
{
  /* USER CODE BEGIN NonMaskableInt_IRQn 0 */

  /* USER CODE END NonMaskableInt_IRQn 0 */
  /* USER CODE BEGIN NonMaskableInt_IRQn 1 */
   while (1)
 800148c:	e7fe      	b.n	800148c <NMI_Handler>

0800148e <HardFault_Handler>:
void HardFault_Handler(void)
{
  /* USER CODE BEGIN HardFault_IRQn 0 */

  /* USER CODE END HardFault_IRQn 0 */
  while (1)
 800148e:	e7fe      	b.n	800148e <HardFault_Handler>

08001490 <MemManage_Handler>:
void MemManage_Handler(void)
{
  /* USER CODE BEGIN MemoryManagement_IRQn 0 */

  /* USER CODE END MemoryManagement_IRQn 0 */
  while (1)
 8001490:	e7fe      	b.n	8001490 <MemManage_Handler>

08001492 <BusFault_Handler>:
void BusFault_Handler(void)
{
  /* USER CODE BEGIN BusFault_IRQn 0 */

  /* USER CODE END BusFault_IRQn 0 */
  while (1)
 8001492:	e7fe      	b.n	8001492 <BusFault_Handler>

08001494 <UsageFault_Handler>:
void UsageFault_Handler(void)
{
  /* USER CODE BEGIN UsageFault_IRQn 0 */

  /* USER CODE END UsageFault_IRQn 0 */
  while (1)
 8001494:	e7fe      	b.n	8001494 <UsageFault_Handler>

08001496 <DebugMon_Handler>:

  /* USER CODE END DebugMonitor_IRQn 0 */
  /* USER CODE BEGIN DebugMonitor_IRQn 1 */

  /* USER CODE END DebugMonitor_IRQn 1 */
}
 8001496:	4770      	bx	lr

08001498 <TIM1_UP_TIM10_IRQHandler>:
void TIM1_UP_TIM10_IRQHandler(void)
{
  /* USER CODE BEGIN TIM1_UP_TIM10_IRQn 0 */

  /* USER CODE END TIM1_UP_TIM10_IRQn 0 */
  HAL_TIM_IRQHandler(&htim1);
 8001498:	4801      	ldr	r0, [pc, #4]	@ (80014a0 <TIM1_UP_TIM10_IRQHandler+0x8>)
 800149a:	f000 bcc5 	b.w	8001e28 <HAL_TIM_IRQHandler>
 800149e:	bf00      	nop
 80014a0:	20000284 	.word	0x20000284

080014a4 <_getpid>:
}

int _getpid(void)
{
  return 1;
}
 80014a4:	2001      	movs	r0, #1
 80014a6:	4770      	bx	lr

080014a8 <_kill>:

int _kill(int pid, int sig)
{
 80014a8:	b508      	push	{r3, lr}
  (void)pid;
  (void)sig;
  errno = EINVAL;
 80014aa:	f003 fe5b 	bl	8005164 <__errno>
 80014ae:	2316      	movs	r3, #22
 80014b0:	6003      	str	r3, [r0, #0]
  return -1;
}
 80014b2:	f04f 30ff 	mov.w	r0, #4294967295
 80014b6:	bd08      	pop	{r3, pc}

080014b8 <_exit>:

void _exit (int status)
{
 80014b8:	b508      	push	{r3, lr}
  errno = EINVAL;
 80014ba:	f003 fe53 	bl	8005164 <__errno>
 80014be:	2316      	movs	r3, #22
 80014c0:	6003      	str	r3, [r0, #0]
  _kill(status, -1);
  while (1) {}    /* Make sure we hang here */
 80014c2:	e7fe      	b.n	80014c2 <_exit+0xa>

080014c4 <_read>:
}

__attribute__((weak)) int _read(int file, char *ptr, int len)
{
 80014c4:	b570      	push	{r4, r5, r6, lr}
 80014c6:	460d      	mov	r5, r1
 80014c8:	4614      	mov	r4, r2
  (void)file;
  int DataIdx;

  for (DataIdx = 0; DataIdx < len; DataIdx++)
 80014ca:	460e      	mov	r6, r1
 80014cc:	1b73      	subs	r3, r6, r5
 80014ce:	429c      	cmp	r4, r3
 80014d0:	dc01      	bgt.n	80014d6 <_read+0x12>
  {
    *ptr++ = __io_getchar();
  }

  return len;
}
 80014d2:	4620      	mov	r0, r4
 80014d4:	bd70      	pop	{r4, r5, r6, pc}
    *ptr++ = __io_getchar();
 80014d6:	f3af 8000 	nop.w
 80014da:	f806 0b01 	strb.w	r0, [r6], #1
  for (DataIdx = 0; DataIdx < len; DataIdx++)
 80014de:	e7f5      	b.n	80014cc <_read+0x8>

080014e0 <_write>:

__attribute__((weak)) int _write(int file, char *ptr, int len)
{
 80014e0:	b570      	push	{r4, r5, r6, lr}
 80014e2:	460d      	mov	r5, r1
 80014e4:	4614      	mov	r4, r2
  (void)file;
  int DataIdx;

  for (DataIdx = 0; DataIdx < len; DataIdx++)
 80014e6:	460e      	mov	r6, r1
 80014e8:	1b73      	subs	r3, r6, r5
 80014ea:	429c      	cmp	r4, r3
 80014ec:	dc01      	bgt.n	80014f2 <_write+0x12>
  {
    __io_putchar(*ptr++);
  }
  return len;
}
 80014ee:	4620      	mov	r0, r4
 80014f0:	bd70      	pop	{r4, r5, r6, pc}
    __io_putchar(*ptr++);
 80014f2:	f816 0b01 	ldrb.w	r0, [r6], #1
 80014f6:	f3af 8000 	nop.w
  for (DataIdx = 0; DataIdx < len; DataIdx++)
 80014fa:	e7f5      	b.n	80014e8 <_write+0x8>

080014fc <_close>:

int _close(int file)
{
  (void)file;
  return -1;
}
 80014fc:	f04f 30ff 	mov.w	r0, #4294967295
 8001500:	4770      	bx	lr

08001502 <_fstat>:


int _fstat(int file, struct stat *st)
{
  (void)file;
  st->st_mode = S_IFCHR;
 8001502:	f44f 5300 	mov.w	r3, #8192	@ 0x2000
 8001506:	604b      	str	r3, [r1, #4]
  return 0;
}
 8001508:	2000      	movs	r0, #0
 800150a:	4770      	bx	lr

0800150c <_isatty>:

int _isatty(int file)
{
  (void)file;
  return 1;
}
 800150c:	2001      	movs	r0, #1
 800150e:	4770      	bx	lr

08001510 <_lseek>:
{
  (void)file;
  (void)ptr;
  (void)dir;
  return 0;
}
 8001510:	2000      	movs	r0, #0
 8001512:	4770      	bx	lr

08001514 <_sbrk>:
  const uint32_t stack_limit = (uint32_t)&_estack - (uint32_t)&_Min_Stack_Size;
  const uint8_t *max_heap = (uint8_t *)stack_limit;
  uint8_t *prev_heap_end;

  /* Initialize heap end at first call */
  if (NULL == __sbrk_heap_end)
 8001514:	4a0b      	ldr	r2, [pc, #44]	@ (8001544 <_sbrk+0x30>)
 8001516:	6811      	ldr	r1, [r2, #0]
{
 8001518:	b510      	push	{r4, lr}
 800151a:	4603      	mov	r3, r0
  if (NULL == __sbrk_heap_end)
 800151c:	b909      	cbnz	r1, 8001522 <_sbrk+0xe>
  {
    __sbrk_heap_end = &_end;
 800151e:	490a      	ldr	r1, [pc, #40]	@ (8001548 <_sbrk+0x34>)
 8001520:	6011      	str	r1, [r2, #0]
  }

  /* Protect heap from growing into the reserved MSP stack */
  if (__sbrk_heap_end + incr > max_heap)
 8001522:	6810      	ldr	r0, [r2, #0]
 8001524:	4909      	ldr	r1, [pc, #36]	@ (800154c <_sbrk+0x38>)
 8001526:	4c0a      	ldr	r4, [pc, #40]	@ (8001550 <_sbrk+0x3c>)
 8001528:	4403      	add	r3, r0
 800152a:	1b09      	subs	r1, r1, r4
 800152c:	428b      	cmp	r3, r1
 800152e:	d906      	bls.n	800153e <_sbrk+0x2a>
  {
    errno = ENOMEM;
 8001530:	f003 fe18 	bl	8005164 <__errno>
 8001534:	230c      	movs	r3, #12
 8001536:	6003      	str	r3, [r0, #0]
    return (void *)-1;
 8001538:	f04f 30ff 	mov.w	r0, #4294967295

  prev_heap_end = __sbrk_heap_end;
  __sbrk_heap_end += incr;

  return (void *)prev_heap_end;
}
 800153c:	bd10      	pop	{r4, pc}
  __sbrk_heap_end += incr;
 800153e:	6013      	str	r3, [r2, #0]
  return (void *)prev_heap_end;
 8001540:	e7fc      	b.n	800153c <_sbrk+0x28>
 8001542:	bf00      	nop
 8001544:	200002cc 	.word	0x200002cc
 8001548:	20004e08 	.word	0x20004e08
 800154c:	20020000 	.word	0x20020000
 8001550:	00000400 	.word	0x00000400

08001554 <SystemInit>:
  */
void SystemInit(void)
{
  /* FPU settings ------------------------------------------------------------*/
  #if (__FPU_PRESENT == 1) && (__FPU_USED == 1)
    SCB->CPACR |= ((3UL << 10*2)|(3UL << 11*2));  /* set CP10 and CP11 Full Access */
 8001554:	4a03      	ldr	r2, [pc, #12]	@ (8001564 <SystemInit+0x10>)
 8001556:	f8d2 3088 	ldr.w	r3, [r2, #136]	@ 0x88
 800155a:	f443 0370 	orr.w	r3, r3, #15728640	@ 0xf00000
 800155e:	f8c2 3088 	str.w	r3, [r2, #136]	@ 0x88

  /* Configure the Vector Table location -------------------------------------*/
#if defined(USER_VECT_TAB_ADDRESS)
  SCB->VTOR = VECT_TAB_BASE_ADDRESS | VECT_TAB_OFFSET; /* Vector Table Relocation in Internal SRAM */
#endif /* USER_VECT_TAB_ADDRESS */
}
 8001562:	4770      	bx	lr
 8001564:	e000ed00 	.word	0xe000ed00

08001568 <Reset_Handler>:

    .section  .text.Reset_Handler
  .weak  Reset_Handler
  .type  Reset_Handler, %function
Reset_Handler:  
  ldr   sp, =_estack    		 /* set stack pointer */
 8001568:	f8df d034 	ldr.w	sp, [pc, #52]	@ 80015a0 <LoopFillZerobss+0xe>

/* Call the clock system initialization function.*/
  bl  SystemInit   
 800156c:	f7ff fff2 	bl	8001554 <SystemInit>

/* Copy the data segment initializers from flash to SRAM */  
  ldr r0, =_sdata
 8001570:	480c      	ldr	r0, [pc, #48]	@ (80015a4 <LoopFillZerobss+0x12>)
  ldr r1, =_edata
 8001572:	490d      	ldr	r1, [pc, #52]	@ (80015a8 <LoopFillZerobss+0x16>)
  ldr r2, =_sidata
 8001574:	4a0d      	ldr	r2, [pc, #52]	@ (80015ac <LoopFillZerobss+0x1a>)
  movs r3, #0
 8001576:	2300      	movs	r3, #0
  b LoopCopyDataInit
 8001578:	e002      	b.n	8001580 <LoopCopyDataInit>

0800157a <CopyDataInit>:

CopyDataInit:
  ldr r4, [r2, r3]
 800157a:	58d4      	ldr	r4, [r2, r3]
  str r4, [r0, r3]
 800157c:	50c4      	str	r4, [r0, r3]
  adds r3, r3, #4
 800157e:	3304      	adds	r3, #4

08001580 <LoopCopyDataInit>:

LoopCopyDataInit:
  adds r4, r0, r3
 8001580:	18c4      	adds	r4, r0, r3
  cmp r4, r1
 8001582:	428c      	cmp	r4, r1
  bcc CopyDataInit
 8001584:	d3f9      	bcc.n	800157a <CopyDataInit>
  
/* Zero fill the bss segment. */
  ldr r2, =_sbss
 8001586:	4a0a      	ldr	r2, [pc, #40]	@ (80015b0 <LoopFillZerobss+0x1e>)
  ldr r4, =_ebss
 8001588:	4c0a      	ldr	r4, [pc, #40]	@ (80015b4 <LoopFillZerobss+0x22>)
  movs r3, #0
 800158a:	2300      	movs	r3, #0
  b LoopFillZerobss
 800158c:	e001      	b.n	8001592 <LoopFillZerobss>

0800158e <FillZerobss>:

FillZerobss:
  str  r3, [r2]
 800158e:	6013      	str	r3, [r2, #0]
  adds r2, r2, #4
 8001590:	3204      	adds	r2, #4

08001592 <LoopFillZerobss>:

LoopFillZerobss:
  cmp r2, r4
 8001592:	42a2      	cmp	r2, r4
  bcc FillZerobss
 8001594:	d3fb      	bcc.n	800158e <FillZerobss>

/* Call static constructors */
    bl __libc_init_array
 8001596:	f003 fdeb 	bl	8005170 <__libc_init_array>
/* Call the application's entry point.*/
  bl  main
 800159a:	f7ff fe3f 	bl	800121c <main>
  bx  lr    
 800159e:	4770      	bx	lr
  ldr   sp, =_estack    		 /* set stack pointer */
 80015a0:	20020000 	.word	0x20020000
  ldr r0, =_sdata
 80015a4:	20000000 	.word	0x20000000
  ldr r1, =_edata
 80015a8:	200001d8 	.word	0x200001d8
  ldr r2, =_sidata
 80015ac:	08008d14 	.word	0x08008d14
  ldr r2, =_sbss
 80015b0:	200001d8 	.word	0x200001d8
  ldr r4, =_ebss
 80015b4:	20004e04 	.word	0x20004e04

080015b8 <ADC_IRQHandler>:
 * @retval None       
*/
    .section  .text.Default_Handler,"ax",%progbits
Default_Handler:
Infinite_Loop:
  b  Infinite_Loop
 80015b8:	e7fe      	b.n	80015b8 <ADC_IRQHandler>
	...

080015bc <HAL_Init>:
  *         need to ensure that the SysTick time base is always set to 1 millisecond
  *         to have correct HAL operation.
  * @retval HAL status
  */
HAL_StatusTypeDef HAL_Init(void)
{
 80015bc:	b508      	push	{r3, lr}
  /* Configure Flash prefetch, Instruction cache, Data cache */ 
#if (INSTRUCTION_CACHE_ENABLE != 0U)
  __HAL_FLASH_INSTRUCTION_CACHE_ENABLE();
 80015be:	4b0b      	ldr	r3, [pc, #44]	@ (80015ec <HAL_Init+0x30>)
 80015c0:	681a      	ldr	r2, [r3, #0]
 80015c2:	f442 7200 	orr.w	r2, r2, #512	@ 0x200
 80015c6:	601a      	str	r2, [r3, #0]
#endif /* INSTRUCTION_CACHE_ENABLE */

#if (DATA_CACHE_ENABLE != 0U)
  __HAL_FLASH_DATA_CACHE_ENABLE();
 80015c8:	681a      	ldr	r2, [r3, #0]
 80015ca:	f442 6280 	orr.w	r2, r2, #1024	@ 0x400
 80015ce:	601a      	str	r2, [r3, #0]
#endif /* DATA_CACHE_ENABLE */

#if (PREFETCH_ENABLE != 0U)
  __HAL_FLASH_PREFETCH_BUFFER_ENABLE();
 80015d0:	681a      	ldr	r2, [r3, #0]
 80015d2:	f442 7280 	orr.w	r2, r2, #256	@ 0x100
 80015d6:	601a      	str	r2, [r3, #0]
#endif /* PREFETCH_ENABLE */

  /* Set Interrupt Group Priority */
  HAL_NVIC_SetPriorityGrouping(NVIC_PRIORITYGROUP_4);
 80015d8:	2003      	movs	r0, #3
 80015da:	f000 f81b 	bl	8001614 <HAL_NVIC_SetPriorityGrouping>

  /* Use systick as time base source and configure 1ms tick (default clock after Reset is HSI) */
  HAL_InitTick(TICK_INT_PRIORITY);
 80015de:	200f      	movs	r0, #15
 80015e0:	f7ff ff0c 	bl	80013fc <HAL_InitTick>

  /* Init the low level hardware */
  HAL_MspInit();
 80015e4:	f7ff feb4 	bl	8001350 <HAL_MspInit>

  /* Return function status */
  return HAL_OK;
}
 80015e8:	2000      	movs	r0, #0
 80015ea:	bd08      	pop	{r3, pc}
 80015ec:	40023c00 	.word	0x40023c00

080015f0 <HAL_IncTick>:
  *      implementations in user file.
  * @retval None
  */
__weak void HAL_IncTick(void)
{
  uwTick += uwTickFreq;
 80015f0:	4a03      	ldr	r2, [pc, #12]	@ (8001600 <HAL_IncTick+0x10>)
 80015f2:	4b04      	ldr	r3, [pc, #16]	@ (8001604 <HAL_IncTick+0x14>)
 80015f4:	6811      	ldr	r1, [r2, #0]
 80015f6:	781b      	ldrb	r3, [r3, #0]
 80015f8:	440b      	add	r3, r1
 80015fa:	6013      	str	r3, [r2, #0]
}
 80015fc:	4770      	bx	lr
 80015fe:	bf00      	nop
 8001600:	200002d0 	.word	0x200002d0
 8001604:	20000004 	.word	0x20000004

08001608 <HAL_GetTick>:
  *       implementations in user file.
  * @retval tick value
  */
__weak uint32_t HAL_GetTick(void)
{
  return uwTick;
 8001608:	4b01      	ldr	r3, [pc, #4]	@ (8001610 <HAL_GetTick+0x8>)
 800160a:	6818      	ldr	r0, [r3, #0]
}
 800160c:	4770      	bx	lr
 800160e:	bf00      	nop
 8001610:	200002d0 	.word	0x200002d0

08001614 <HAL_NVIC_SetPriorityGrouping>:
__STATIC_INLINE void __NVIC_SetPriorityGrouping(uint32_t PriorityGroup)
{
  uint32_t reg_value;
  uint32_t PriorityGroupTmp = (PriorityGroup & (uint32_t)0x07UL);             /* only values 0..7 are used          */

  reg_value  =  SCB->AIRCR;                                                   /* read old register configuration    */
 8001614:	4907      	ldr	r1, [pc, #28]	@ (8001634 <HAL_NVIC_SetPriorityGrouping+0x20>)
 8001616:	68ca      	ldr	r2, [r1, #12]
  reg_value &= ~((uint32_t)(SCB_AIRCR_VECTKEY_Msk | SCB_AIRCR_PRIGROUP_Msk)); /* clear bits to change               */
 8001618:	f422 62e0 	bic.w	r2, r2, #1792	@ 0x700
  reg_value  =  (reg_value                                   |
                ((uint32_t)0x5FAUL << SCB_AIRCR_VECTKEY_Pos) |
                (PriorityGroupTmp << SCB_AIRCR_PRIGROUP_Pos)  );              /* Insert write key and priority group */
 800161c:	0203      	lsls	r3, r0, #8
  reg_value &= ~((uint32_t)(SCB_AIRCR_VECTKEY_Msk | SCB_AIRCR_PRIGROUP_Msk)); /* clear bits to change               */
 800161e:	0412      	lsls	r2, r2, #16
                (PriorityGroupTmp << SCB_AIRCR_PRIGROUP_Pos)  );              /* Insert write key and priority group */
 8001620:	f403 63e0 	and.w	r3, r3, #1792	@ 0x700
  reg_value &= ~((uint32_t)(SCB_AIRCR_VECTKEY_Msk | SCB_AIRCR_PRIGROUP_Msk)); /* clear bits to change               */
 8001624:	0c12      	lsrs	r2, r2, #16
                ((uint32_t)0x5FAUL << SCB_AIRCR_VECTKEY_Pos) |
 8001626:	4313      	orrs	r3, r2
  reg_value  =  (reg_value                                   |
 8001628:	f043 63bf 	orr.w	r3, r3, #100139008	@ 0x5f80000
 800162c:	f443 3300 	orr.w	r3, r3, #131072	@ 0x20000
  SCB->AIRCR =  reg_value;
 8001630:	60cb      	str	r3, [r1, #12]
  /* Check the parameters */
  assert_param(IS_NVIC_PRIORITY_GROUP(PriorityGroup));
  
  /* Set the PRIGROUP[10:8] bits according to the PriorityGroup parameter value */
  NVIC_SetPriorityGrouping(PriorityGroup);
}
 8001632:	4770      	bx	lr
 8001634:	e000ed00 	.word	0xe000ed00

08001638 <HAL_NVIC_SetPriority>:
  \details Reads the priority grouping field from the NVIC Interrupt Controller.
  \return                Priority grouping field (SCB->AIRCR [10:8] PRIGROUP field).
 */
__STATIC_INLINE uint32_t __NVIC_GetPriorityGrouping(void)
{
  return ((uint32_t)((SCB->AIRCR & SCB_AIRCR_PRIGROUP_Msk) >> SCB_AIRCR_PRIGROUP_Pos));
 8001638:	4b16      	ldr	r3, [pc, #88]	@ (8001694 <HAL_NVIC_SetPriority+0x5c>)
  *         This parameter can be a value between 0 and 15
  *         A lower priority value indicates a higher priority.          
  * @retval None
  */
void HAL_NVIC_SetPriority(IRQn_Type IRQn, uint32_t PreemptPriority, uint32_t SubPriority)
{ 
 800163a:	b530      	push	{r4, r5, lr}
 800163c:	68dc      	ldr	r4, [r3, #12]
 800163e:	f3c4 2402 	ubfx	r4, r4, #8, #3
{
  uint32_t PriorityGroupTmp = (PriorityGroup & (uint32_t)0x07UL);   /* only values 0..7 are used          */
  uint32_t PreemptPriorityBits;
  uint32_t SubPriorityBits;

  PreemptPriorityBits = ((7UL - PriorityGroupTmp) > (uint32_t)(__NVIC_PRIO_BITS)) ? (uint32_t)(__NVIC_PRIO_BITS) : (uint32_t)(7UL - PriorityGroupTmp);
 8001642:	f1c4 0307 	rsb	r3, r4, #7
  SubPriorityBits     = ((PriorityGroupTmp + (uint32_t)(__NVIC_PRIO_BITS)) < (uint32_t)7UL) ? (uint32_t)0UL : (uint32_t)((PriorityGroupTmp - 7UL) + (uint32_t)(__NVIC_PRIO_BITS));
 8001646:	1d25      	adds	r5, r4, #4
  PreemptPriorityBits = ((7UL - PriorityGroupTmp) > (uint32_t)(__NVIC_PRIO_BITS)) ? (uint32_t)(__NVIC_PRIO_BITS) : (uint32_t)(7UL - PriorityGroupTmp);
 8001648:	2b04      	cmp	r3, #4
 800164a:	bf28      	it	cs
 800164c:	2304      	movcs	r3, #4
  SubPriorityBits     = ((PriorityGroupTmp + (uint32_t)(__NVIC_PRIO_BITS)) < (uint32_t)7UL) ? (uint32_t)0UL : (uint32_t)((PriorityGroupTmp - 7UL) + (uint32_t)(__NVIC_PRIO_BITS));
 800164e:	2d06      	cmp	r5, #6

  return (
           ((PreemptPriority & (uint32_t)((1UL << (PreemptPriorityBits)) - 1UL)) << SubPriorityBits) |
 8001650:	f04f 35ff 	mov.w	r5, #4294967295
  SubPriorityBits     = ((PriorityGroupTmp + (uint32_t)(__NVIC_PRIO_BITS)) < (uint32_t)7UL) ? (uint32_t)0UL : (uint32_t)((PriorityGroupTmp - 7UL) + (uint32_t)(__NVIC_PRIO_BITS));
 8001654:	bf8c      	ite	hi
 8001656:	3c03      	subhi	r4, #3
 8001658:	2400      	movls	r4, #0
           ((PreemptPriority & (uint32_t)((1UL << (PreemptPriorityBits)) - 1UL)) << SubPriorityBits) |
 800165a:	fa05 f303 	lsl.w	r3, r5, r3
 800165e:	ea21 0303 	bic.w	r3, r1, r3
           ((SubPriority     & (uint32_t)((1UL << (SubPriorityBits    )) - 1UL)))
 8001662:	40a5      	lsls	r5, r4
 8001664:	ea22 0205 	bic.w	r2, r2, r5
           ((PreemptPriority & (uint32_t)((1UL << (PreemptPriorityBits)) - 1UL)) << SubPriorityBits) |
 8001668:	40a3      	lsls	r3, r4
  if ((int32_t)(IRQn) >= 0)
 800166a:	2800      	cmp	r0, #0
           ((PreemptPriority & (uint32_t)((1UL << (PreemptPriorityBits)) - 1UL)) << SubPriorityBits) |
 800166c:	ea43 0302 	orr.w	r3, r3, r2
    NVIC->IP[((uint32_t)IRQn)]               = (uint8_t)((priority << (8U - __NVIC_PRIO_BITS)) & (uint32_t)0xFFUL);
 8001670:	bfac      	ite	ge
 8001672:	f100 4060 	addge.w	r0, r0, #3758096384	@ 0xe0000000
    SCB->SHP[(((uint32_t)IRQn) & 0xFUL)-4UL] = (uint8_t)((priority << (8U - __NVIC_PRIO_BITS)) & (uint32_t)0xFFUL);
 8001676:	4a08      	ldrlt	r2, [pc, #32]	@ (8001698 <HAL_NVIC_SetPriority+0x60>)
    NVIC->IP[((uint32_t)IRQn)]               = (uint8_t)((priority << (8U - __NVIC_PRIO_BITS)) & (uint32_t)0xFFUL);
 8001678:	ea4f 1303 	mov.w	r3, r3, lsl #4
    SCB->SHP[(((uint32_t)IRQn) & 0xFUL)-4UL] = (uint8_t)((priority << (8U - __NVIC_PRIO_BITS)) & (uint32_t)0xFFUL);
 800167c:	bfb8      	it	lt
 800167e:	f000 000f 	andlt.w	r0, r0, #15
    NVIC->IP[((uint32_t)IRQn)]               = (uint8_t)((priority << (8U - __NVIC_PRIO_BITS)) & (uint32_t)0xFFUL);
 8001682:	b2db      	uxtb	r3, r3
 8001684:	bfaa      	itet	ge
 8001686:	f500 4061 	addge.w	r0, r0, #57600	@ 0xe100
    SCB->SHP[(((uint32_t)IRQn) & 0xFUL)-4UL] = (uint8_t)((priority << (8U - __NVIC_PRIO_BITS)) & (uint32_t)0xFFUL);
 800168a:	5413      	strblt	r3, [r2, r0]
    NVIC->IP[((uint32_t)IRQn)]               = (uint8_t)((priority << (8U - __NVIC_PRIO_BITS)) & (uint32_t)0xFFUL);
 800168c:	f880 3300 	strbge.w	r3, [r0, #768]	@ 0x300
  assert_param(IS_NVIC_PREEMPTION_PRIORITY(PreemptPriority));
  
  prioritygroup = NVIC_GetPriorityGrouping();
  
  NVIC_SetPriority(IRQn, NVIC_EncodePriority(prioritygroup, PreemptPriority, SubPriority));
}
 8001690:	bd30      	pop	{r4, r5, pc}
 8001692:	bf00      	nop
 8001694:	e000ed00 	.word	0xe000ed00
 8001698:	e000ed14 	.word	0xe000ed14

0800169c <HAL_NVIC_EnableIRQ>:
  if ((int32_t)(IRQn) >= 0)
 800169c:	2800      	cmp	r0, #0
 800169e:	db07      	blt.n	80016b0 <HAL_NVIC_EnableIRQ+0x14>
    NVIC->ISER[(((uint32_t)IRQn) >> 5UL)] = (uint32_t)(1UL << (((uint32_t)IRQn) & 0x1FUL));
 80016a0:	4a04      	ldr	r2, [pc, #16]	@ (80016b4 <HAL_NVIC_EnableIRQ+0x18>)
 80016a2:	0941      	lsrs	r1, r0, #5
 80016a4:	2301      	movs	r3, #1
 80016a6:	f000 001f 	and.w	r0, r0, #31
 80016aa:	4083      	lsls	r3, r0
 80016ac:	f842 3021 	str.w	r3, [r2, r1, lsl #2]
  /* Check the parameters */
  assert_param(IS_NVIC_DEVICE_IRQ(IRQn));
  
  /* Enable interrupt */
  NVIC_EnableIRQ(IRQn);
}
 80016b0:	4770      	bx	lr
 80016b2:	bf00      	nop
 80016b4:	e000e100 	.word	0xe000e100

080016b8 <HAL_GPIO_Init>:
  * @param  GPIO_Init pointer to a GPIO_InitTypeDef structure that contains
  *         the configuration information for the specified GPIO peripheral.
  * @retval None
  */
void HAL_GPIO_Init(GPIO_TypeDef  *GPIOx, GPIO_InitTypeDef *GPIO_Init)
{
 80016b8:	e92d 4ff7 	stmdb	sp!, {r0, r1, r2, r4, r5, r6, r7, r8, r9, sl, fp, lr}
      /*--------------------- EXTI Mode Configuration ------------------------*/
      /* Configure the External Interrupt or event for the current IO */
      if((GPIO_Init->Mode & EXTI_MODE) != 0x00U)
      {
        /* Enable SYSCFG Clock */
        __HAL_RCC_SYSCFG_CLK_ENABLE();
 80016bc:	f8df 9180 	ldr.w	r9, [pc, #384]	@ 8001840 <HAL_GPIO_Init+0x188>
        temp &= ~(0x0FU << (4U * (position & 0x03U)));
        temp |= ((uint32_t)(GPIO_GET_INDEX(GPIOx)) << (4U * (position & 0x03U)));
        SYSCFG->EXTICR[position >> 2U] = temp;

        /* Clear Rising Falling edge configuration */
        temp = EXTI->RTSR;
 80016c0:	4a5d      	ldr	r2, [pc, #372]	@ (8001838 <HAL_GPIO_Init+0x180>)
  for(position = 0U; position < GPIO_NUMBER; position++)
 80016c2:	2300      	movs	r3, #0
    iocurrent = (uint32_t)(GPIO_Init->Pin) & ioposition;
 80016c4:	680d      	ldr	r5, [r1, #0]
    ioposition = 0x01U << position;
 80016c6:	2401      	movs	r4, #1
 80016c8:	409c      	lsls	r4, r3
    iocurrent = (uint32_t)(GPIO_Init->Pin) & ioposition;
 80016ca:	ea04 0605 	and.w	r6, r4, r5
    if(iocurrent == ioposition)
 80016ce:	43ac      	bics	r4, r5
 80016d0:	f040 80a3 	bne.w	800181a <HAL_GPIO_Init+0x162>
      if(((GPIO_Init->Mode & GPIO_MODE) == MODE_OUTPUT) || \
 80016d4:	684d      	ldr	r5, [r1, #4]
        temp &= ~(GPIO_OSPEEDER_OSPEEDR0 << (position * 2U));
 80016d6:	2703      	movs	r7, #3
      if(((GPIO_Init->Mode & GPIO_MODE) == MODE_OUTPUT) || \
 80016d8:	f005 0403 	and.w	r4, r5, #3
 80016dc:	ea4f 0843 	mov.w	r8, r3, lsl #1
        temp &= ~(GPIO_OSPEEDER_OSPEEDR0 << (position * 2U));
 80016e0:	fa07 fc08 	lsl.w	ip, r7, r8
      if(((GPIO_Init->Mode & GPIO_MODE) == MODE_OUTPUT) || \
 80016e4:	1e67      	subs	r7, r4, #1
 80016e6:	2f01      	cmp	r7, #1
        temp &= ~(GPIO_OSPEEDER_OSPEEDR0 << (position * 2U));
 80016e8:	ea6f 0c0c 	mvn.w	ip, ip
      if(((GPIO_Init->Mode & GPIO_MODE) == MODE_OUTPUT) || \
 80016ec:	d834      	bhi.n	8001758 <HAL_GPIO_Init+0xa0>
        temp = GPIOx->OSPEEDR; 
 80016ee:	6887      	ldr	r7, [r0, #8]
        temp &= ~(GPIO_OSPEEDER_OSPEEDR0 << (position * 2U));
 80016f0:	ea07 0e0c 	and.w	lr, r7, ip
        temp |= (GPIO_Init->Speed << (position * 2U));
 80016f4:	68cf      	ldr	r7, [r1, #12]
 80016f6:	fa07 f708 	lsl.w	r7, r7, r8
 80016fa:	ea47 070e 	orr.w	r7, r7, lr
        GPIOx->OSPEEDR = temp;
 80016fe:	6087      	str	r7, [r0, #8]
        temp = GPIOx->OTYPER;
 8001700:	6847      	ldr	r7, [r0, #4]
        temp &= ~(GPIO_OTYPER_OT_0 << position) ;
 8001702:	ea27 0e06 	bic.w	lr, r7, r6
        temp |= (((GPIO_Init->Mode & OUTPUT_TYPE) >> OUTPUT_TYPE_Pos) << position);
 8001706:	f3c5 1700 	ubfx	r7, r5, #4, #1
 800170a:	409f      	lsls	r7, r3
 800170c:	ea47 070e 	orr.w	r7, r7, lr
        GPIOx->OTYPER = temp;
 8001710:	6047      	str	r7, [r0, #4]
        temp = GPIOx->PUPDR;
 8001712:	68c7      	ldr	r7, [r0, #12]
        temp &= ~(GPIO_PUPDR_PUPDR0 << (position * 2U));
 8001714:	ea07 0e0c 	and.w	lr, r7, ip
        temp |= ((GPIO_Init->Pull) << (position * 2U));
 8001718:	688f      	ldr	r7, [r1, #8]
 800171a:	fa07 f708 	lsl.w	r7, r7, r8
 800171e:	ea47 070e 	orr.w	r7, r7, lr
      if((GPIO_Init->Mode & GPIO_MODE) == MODE_AF)
 8001722:	2c02      	cmp	r4, #2
        GPIOx->PUPDR = temp;
 8001724:	60c7      	str	r7, [r0, #12]
      if((GPIO_Init->Mode & GPIO_MODE) == MODE_AF)
 8001726:	d119      	bne.n	800175c <HAL_GPIO_Init+0xa4>
        temp = GPIOx->AFR[position >> 3U];
 8001728:	ea4f 0ad3 	mov.w	sl, r3, lsr #3
 800172c:	eb00 0a8a 	add.w	sl, r0, sl, lsl #2
        temp &= ~(0xFU << ((uint32_t)(position & 0x07U) * 4U)) ;
 8001730:	f003 0b07 	and.w	fp, r3, #7
        temp = GPIOx->AFR[position >> 3U];
 8001734:	f8da 7020 	ldr.w	r7, [sl, #32]
        temp &= ~(0xFU << ((uint32_t)(position & 0x07U) * 4U)) ;
 8001738:	ea4f 0b8b 	mov.w	fp, fp, lsl #2
 800173c:	f04f 0e0f 	mov.w	lr, #15
 8001740:	fa0e fe0b 	lsl.w	lr, lr, fp
 8001744:	ea27 0e0e 	bic.w	lr, r7, lr
        temp |= ((uint32_t)(GPIO_Init->Alternate) << (((uint32_t)position & 0x07U) * 4U));
 8001748:	690f      	ldr	r7, [r1, #16]
 800174a:	fa07 f70b 	lsl.w	r7, r7, fp
 800174e:	ea47 070e 	orr.w	r7, r7, lr
        GPIOx->AFR[position >> 3U] = temp;
 8001752:	f8ca 7020 	str.w	r7, [sl, #32]
 8001756:	e001      	b.n	800175c <HAL_GPIO_Init+0xa4>
      if((GPIO_Init->Mode & GPIO_MODE) != MODE_ANALOG)
 8001758:	2c03      	cmp	r4, #3
 800175a:	d1da      	bne.n	8001712 <HAL_GPIO_Init+0x5a>
      temp = GPIOx->MODER;
 800175c:	6807      	ldr	r7, [r0, #0]
      temp |= ((GPIO_Init->Mode & GPIO_MODE) << (position * 2U));
 800175e:	fa04 f408 	lsl.w	r4, r4, r8
      temp &= ~(GPIO_MODER_MODER0 << (position * 2U));
 8001762:	ea07 070c 	and.w	r7, r7, ip
      temp |= ((GPIO_Init->Mode & GPIO_MODE) << (position * 2U));
 8001766:	433c      	orrs	r4, r7
      if((GPIO_Init->Mode & EXTI_MODE) != 0x00U)
 8001768:	f415 3f40 	tst.w	r5, #196608	@ 0x30000
      GPIOx->MODER = temp;
 800176c:	6004      	str	r4, [r0, #0]
      if((GPIO_Init->Mode & EXTI_MODE) != 0x00U)
 800176e:	d054      	beq.n	800181a <HAL_GPIO_Init+0x162>
        __HAL_RCC_SYSCFG_CLK_ENABLE();
 8001770:	2400      	movs	r4, #0
 8001772:	9401      	str	r4, [sp, #4]
 8001774:	f8d9 4044 	ldr.w	r4, [r9, #68]	@ 0x44
 8001778:	f444 4480 	orr.w	r4, r4, #16384	@ 0x4000
 800177c:	f8c9 4044 	str.w	r4, [r9, #68]	@ 0x44
 8001780:	f8d9 4044 	ldr.w	r4, [r9, #68]	@ 0x44
 8001784:	f023 0703 	bic.w	r7, r3, #3
 8001788:	f107 4780 	add.w	r7, r7, #1073741824	@ 0x40000000
 800178c:	f404 4480 	and.w	r4, r4, #16384	@ 0x4000
 8001790:	f507 379c 	add.w	r7, r7, #79872	@ 0x13800
 8001794:	9401      	str	r4, [sp, #4]
        temp &= ~(0x0FU << (4U * (position & 0x03U)));
 8001796:	f003 0c03 	and.w	ip, r3, #3
        __HAL_RCC_SYSCFG_CLK_ENABLE();
 800179a:	9c01      	ldr	r4, [sp, #4]
        temp = SYSCFG->EXTICR[position >> 2U];
 800179c:	f8d7 e008 	ldr.w	lr, [r7, #8]
        temp &= ~(0x0FU << (4U * (position & 0x03U)));
 80017a0:	ea4f 0c8c 	mov.w	ip, ip, lsl #2
 80017a4:	240f      	movs	r4, #15
 80017a6:	fa04 f40c 	lsl.w	r4, r4, ip
 80017aa:	ea2e 0e04 	bic.w	lr, lr, r4
        temp |= ((uint32_t)(GPIO_GET_INDEX(GPIOx)) << (4U * (position & 0x03U)));
 80017ae:	4c23      	ldr	r4, [pc, #140]	@ (800183c <HAL_GPIO_Init+0x184>)
 80017b0:	42a0      	cmp	r0, r4
 80017b2:	d039      	beq.n	8001828 <HAL_GPIO_Init+0x170>
 80017b4:	f504 6480 	add.w	r4, r4, #1024	@ 0x400
 80017b8:	42a0      	cmp	r0, r4
 80017ba:	d037      	beq.n	800182c <HAL_GPIO_Init+0x174>
 80017bc:	f504 6480 	add.w	r4, r4, #1024	@ 0x400
 80017c0:	42a0      	cmp	r0, r4
 80017c2:	d035      	beq.n	8001830 <HAL_GPIO_Init+0x178>
 80017c4:	f504 6480 	add.w	r4, r4, #1024	@ 0x400
 80017c8:	42a0      	cmp	r0, r4
 80017ca:	d033      	beq.n	8001834 <HAL_GPIO_Init+0x17c>
 80017cc:	f504 6480 	add.w	r4, r4, #1024	@ 0x400
 80017d0:	42a0      	cmp	r0, r4
 80017d2:	bf14      	ite	ne
 80017d4:	2407      	movne	r4, #7
 80017d6:	2404      	moveq	r4, #4
 80017d8:	fa04 f40c 	lsl.w	r4, r4, ip
 80017dc:	ea44 040e 	orr.w	r4, r4, lr
        SYSCFG->EXTICR[position >> 2U] = temp;
 80017e0:	60bc      	str	r4, [r7, #8]
        temp = EXTI->RTSR;
 80017e2:	6894      	ldr	r4, [r2, #8]
        temp &= ~((uint32_t)iocurrent);
 80017e4:	43f7      	mvns	r7, r6
        if((GPIO_Init->Mode & TRIGGER_RISING) != 0x00U)
 80017e6:	f415 1f80 	tst.w	r5, #1048576	@ 0x100000
        temp &= ~((uint32_t)iocurrent);
 80017ea:	bf0c      	ite	eq
 80017ec:	403c      	andeq	r4, r7
        {
          temp |= iocurrent;
 80017ee:	4334      	orrne	r4, r6
        }
        EXTI->RTSR = temp;
 80017f0:	6094      	str	r4, [r2, #8]

        temp = EXTI->FTSR;
 80017f2:	68d4      	ldr	r4, [r2, #12]
        temp &= ~((uint32_t)iocurrent);
        if((GPIO_Init->Mode & TRIGGER_FALLING) != 0x00U)
 80017f4:	f415 1f00 	tst.w	r5, #2097152	@ 0x200000
        temp &= ~((uint32_t)iocurrent);
 80017f8:	bf0c      	ite	eq
 80017fa:	403c      	andeq	r4, r7
        {
          temp |= iocurrent;
 80017fc:	4334      	orrne	r4, r6
        }
        EXTI->FTSR = temp;
 80017fe:	60d4      	str	r4, [r2, #12]

        temp = EXTI->EMR;
 8001800:	6854      	ldr	r4, [r2, #4]
        temp &= ~((uint32_t)iocurrent);
        if((GPIO_Init->Mode & EXTI_EVT) != 0x00U)
 8001802:	f415 3f00 	tst.w	r5, #131072	@ 0x20000
        temp &= ~((uint32_t)iocurrent);
 8001806:	bf0c      	ite	eq
 8001808:	403c      	andeq	r4, r7
        {
          temp |= iocurrent;
 800180a:	4334      	orrne	r4, r6
        }
        EXTI->EMR = temp;
 800180c:	6054      	str	r4, [r2, #4]

        /* Clear EXTI line configuration */
        temp = EXTI->IMR;
 800180e:	6814      	ldr	r4, [r2, #0]
        temp &= ~((uint32_t)iocurrent);
        if((GPIO_Init->Mode & EXTI_IT) != 0x00U)
 8001810:	03ed      	lsls	r5, r5, #15
        temp &= ~((uint32_t)iocurrent);
 8001812:	bf54      	ite	pl
 8001814:	403c      	andpl	r4, r7
        {
          temp |= iocurrent;
 8001816:	4334      	orrmi	r4, r6
        }
        EXTI->IMR = temp;
 8001818:	6014      	str	r4, [r2, #0]
  for(position = 0U; position < GPIO_NUMBER; position++)
 800181a:	3301      	adds	r3, #1
 800181c:	2b10      	cmp	r3, #16
 800181e:	f47f af51 	bne.w	80016c4 <HAL_GPIO_Init+0xc>
      }
    }
  }
}
 8001822:	b003      	add	sp, #12
 8001824:	e8bd 8ff0 	ldmia.w	sp!, {r4, r5, r6, r7, r8, r9, sl, fp, pc}
        temp |= ((uint32_t)(GPIO_GET_INDEX(GPIOx)) << (4U * (position & 0x03U)));
 8001828:	2400      	movs	r4, #0
 800182a:	e7d5      	b.n	80017d8 <HAL_GPIO_Init+0x120>
 800182c:	2401      	movs	r4, #1
 800182e:	e7d3      	b.n	80017d8 <HAL_GPIO_Init+0x120>
 8001830:	2402      	movs	r4, #2
 8001832:	e7d1      	b.n	80017d8 <HAL_GPIO_Init+0x120>
 8001834:	2403      	movs	r4, #3
 8001836:	e7cf      	b.n	80017d8 <HAL_GPIO_Init+0x120>
 8001838:	40013c00 	.word	0x40013c00
 800183c:	40020000 	.word	0x40020000
 8001840:	40023800 	.word	0x40023800

08001844 <HAL_GPIO_WritePin>:
{
  /* Check the parameters */
  assert_param(IS_GPIO_PIN(GPIO_Pin));
  assert_param(IS_GPIO_PIN_ACTION(PinState));

  if(PinState != GPIO_PIN_RESET)
 8001844:	b10a      	cbz	r2, 800184a <HAL_GPIO_WritePin+0x6>
  {
    GPIOx->BSRR = GPIO_Pin;
  }
  else
  {
    GPIOx->BSRR = (uint32_t)GPIO_Pin << 16U;
 8001846:	6181      	str	r1, [r0, #24]
  }
}
 8001848:	4770      	bx	lr
    GPIOx->BSRR = (uint32_t)GPIO_Pin << 16U;
 800184a:	0409      	lsls	r1, r1, #16
 800184c:	e7fb      	b.n	8001846 <HAL_GPIO_WritePin+0x2>
	...

08001850 <HAL_RCC_OscConfig>:
  *         supported by this API. User should request a transition to HSE Off
  *         first and then HSE On or HSE Bypass.
  * @retval HAL status
  */
__weak HAL_StatusTypeDef HAL_RCC_OscConfig(const RCC_OscInitTypeDef  *RCC_OscInitStruct)
{
 8001850:	e92d 41f3 	stmdb	sp!, {r0, r1, r4, r5, r6, r7, r8, lr}
  uint32_t tickstart;
  uint32_t pll_config;
  /* Check Null pointer */
  if (RCC_OscInitStruct == NULL)
 8001854:	4604      	mov	r4, r0
 8001856:	b340      	cbz	r0, 80018aa <HAL_RCC_OscConfig+0x5a>
  }

  /* Check the parameters */
  assert_param(IS_RCC_OSCILLATORTYPE(RCC_OscInitStruct->OscillatorType));
  /*------------------------------- HSE Configuration ------------------------*/
  if (((RCC_OscInitStruct->OscillatorType) & RCC_OSCILLATORTYPE_HSE) == RCC_OSCILLATORTYPE_HSE)
 8001858:	6803      	ldr	r3, [r0, #0]
 800185a:	07de      	lsls	r6, r3, #31
 800185c:	d410      	bmi.n	8001880 <HAL_RCC_OscConfig+0x30>
        }
      }
    }
  }
  /*----------------------------- HSI Configuration --------------------------*/
  if (((RCC_OscInitStruct->OscillatorType) & RCC_OSCILLATORTYPE_HSI) == RCC_OSCILLATORTYPE_HSI)
 800185e:	6823      	ldr	r3, [r4, #0]
 8001860:	079d      	lsls	r5, r3, #30
 8001862:	d45b      	bmi.n	800191c <HAL_RCC_OscConfig+0xcc>
        }
      }
    }
  }
  /*------------------------------ LSI Configuration -------------------------*/
  if (((RCC_OscInitStruct->OscillatorType) & RCC_OSCILLATORTYPE_LSI) == RCC_OSCILLATORTYPE_LSI)
 8001864:	6823      	ldr	r3, [r4, #0]
 8001866:	0719      	lsls	r1, r3, #28
 8001868:	f100 809d 	bmi.w	80019a6 <HAL_RCC_OscConfig+0x156>
        }
      }
    }
  }
  /*------------------------------ LSE Configuration -------------------------*/
  if (((RCC_OscInitStruct->OscillatorType) & RCC_OSCILLATORTYPE_LSE) == RCC_OSCILLATORTYPE_LSE)
 800186c:	6823      	ldr	r3, [r4, #0]
 800186e:	075a      	lsls	r2, r3, #29
 8001870:	f100 80bd 	bmi.w	80019ee <HAL_RCC_OscConfig+0x19e>
    }
  }
  /*-------------------------------- PLL Configuration -----------------------*/
  /* Check the parameters */
  assert_param(IS_RCC_PLL(RCC_OscInitStruct->PLL.PLLState));
  if ((RCC_OscInitStruct->PLL.PLLState) != RCC_PLL_NONE)
 8001874:	69a3      	ldr	r3, [r4, #24]
 8001876:	2b00      	cmp	r3, #0
 8001878:	f040 8124 	bne.w	8001ac4 <HAL_RCC_OscConfig+0x274>
          return HAL_ERROR;
        }
      }
    }
  }
  return HAL_OK;
 800187c:	2000      	movs	r0, #0
 800187e:	e02c      	b.n	80018da <HAL_RCC_OscConfig+0x8a>
    if ((__HAL_RCC_GET_SYSCLK_SOURCE() == RCC_CFGR_SWS_HSE) || \
 8001880:	4b8d      	ldr	r3, [pc, #564]	@ (8001ab8 <HAL_RCC_OscConfig+0x268>)
 8001882:	689a      	ldr	r2, [r3, #8]
 8001884:	f002 020c 	and.w	r2, r2, #12
 8001888:	2a04      	cmp	r2, #4
 800188a:	d007      	beq.n	800189c <HAL_RCC_OscConfig+0x4c>
        ((__HAL_RCC_GET_SYSCLK_SOURCE() == RCC_CFGR_SWS_PLL) && ((RCC->PLLCFGR & RCC_PLLCFGR_PLLSRC) == RCC_PLLCFGR_PLLSRC_HSE)))
 800188c:	689a      	ldr	r2, [r3, #8]
 800188e:	f002 020c 	and.w	r2, r2, #12
    if ((__HAL_RCC_GET_SYSCLK_SOURCE() == RCC_CFGR_SWS_HSE) || \
 8001892:	2a08      	cmp	r2, #8
 8001894:	d10b      	bne.n	80018ae <HAL_RCC_OscConfig+0x5e>
        ((__HAL_RCC_GET_SYSCLK_SOURCE() == RCC_CFGR_SWS_PLL) && ((RCC->PLLCFGR & RCC_PLLCFGR_PLLSRC) == RCC_PLLCFGR_PLLSRC_HSE)))
 8001896:	685b      	ldr	r3, [r3, #4]
 8001898:	0259      	lsls	r1, r3, #9
 800189a:	d508      	bpl.n	80018ae <HAL_RCC_OscConfig+0x5e>
      if ((__HAL_RCC_GET_FLAG(RCC_FLAG_HSERDY) != RESET) && (RCC_OscInitStruct->HSEState == RCC_HSE_OFF))
 800189c:	4b86      	ldr	r3, [pc, #536]	@ (8001ab8 <HAL_RCC_OscConfig+0x268>)
 800189e:	681b      	ldr	r3, [r3, #0]
 80018a0:	039a      	lsls	r2, r3, #14
 80018a2:	d5dc      	bpl.n	800185e <HAL_RCC_OscConfig+0xe>
 80018a4:	6863      	ldr	r3, [r4, #4]
 80018a6:	2b00      	cmp	r3, #0
 80018a8:	d1d9      	bne.n	800185e <HAL_RCC_OscConfig+0xe>
    return HAL_ERROR;
 80018aa:	2001      	movs	r0, #1
 80018ac:	e015      	b.n	80018da <HAL_RCC_OscConfig+0x8a>
      __HAL_RCC_HSE_CONFIG(RCC_OscInitStruct->HSEState);
 80018ae:	6863      	ldr	r3, [r4, #4]
 80018b0:	4d81      	ldr	r5, [pc, #516]	@ (8001ab8 <HAL_RCC_OscConfig+0x268>)
 80018b2:	f5b3 3f80 	cmp.w	r3, #65536	@ 0x10000
 80018b6:	d113      	bne.n	80018e0 <HAL_RCC_OscConfig+0x90>
 80018b8:	682b      	ldr	r3, [r5, #0]
 80018ba:	f443 3380 	orr.w	r3, r3, #65536	@ 0x10000
 80018be:	602b      	str	r3, [r5, #0]
        tickstart = HAL_GetTick();
 80018c0:	f7ff fea2 	bl	8001608 <HAL_GetTick>
        while (__HAL_RCC_GET_FLAG(RCC_FLAG_HSERDY) == RESET)
 80018c4:	4e7c      	ldr	r6, [pc, #496]	@ (8001ab8 <HAL_RCC_OscConfig+0x268>)
        tickstart = HAL_GetTick();
 80018c6:	4605      	mov	r5, r0
        while (__HAL_RCC_GET_FLAG(RCC_FLAG_HSERDY) == RESET)
 80018c8:	6833      	ldr	r3, [r6, #0]
 80018ca:	039b      	lsls	r3, r3, #14
 80018cc:	d4c7      	bmi.n	800185e <HAL_RCC_OscConfig+0xe>
          if ((HAL_GetTick() - tickstart) > HSE_TIMEOUT_VALUE)
 80018ce:	f7ff fe9b 	bl	8001608 <HAL_GetTick>
 80018d2:	1b40      	subs	r0, r0, r5
 80018d4:	2864      	cmp	r0, #100	@ 0x64
 80018d6:	d9f7      	bls.n	80018c8 <HAL_RCC_OscConfig+0x78>
            return HAL_TIMEOUT;
 80018d8:	2003      	movs	r0, #3
}
 80018da:	b002      	add	sp, #8
 80018dc:	e8bd 81f0 	ldmia.w	sp!, {r4, r5, r6, r7, r8, pc}
      __HAL_RCC_HSE_CONFIG(RCC_OscInitStruct->HSEState);
 80018e0:	f5b3 2fa0 	cmp.w	r3, #327680	@ 0x50000
 80018e4:	d104      	bne.n	80018f0 <HAL_RCC_OscConfig+0xa0>
 80018e6:	682b      	ldr	r3, [r5, #0]
 80018e8:	f443 2380 	orr.w	r3, r3, #262144	@ 0x40000
 80018ec:	602b      	str	r3, [r5, #0]
 80018ee:	e7e3      	b.n	80018b8 <HAL_RCC_OscConfig+0x68>
 80018f0:	682a      	ldr	r2, [r5, #0]
 80018f2:	f422 3280 	bic.w	r2, r2, #65536	@ 0x10000
 80018f6:	602a      	str	r2, [r5, #0]
 80018f8:	682a      	ldr	r2, [r5, #0]
 80018fa:	f422 2280 	bic.w	r2, r2, #262144	@ 0x40000
 80018fe:	602a      	str	r2, [r5, #0]
      if ((RCC_OscInitStruct->HSEState) != RCC_HSE_OFF)
 8001900:	2b00      	cmp	r3, #0
 8001902:	d1dd      	bne.n	80018c0 <HAL_RCC_OscConfig+0x70>
        tickstart = HAL_GetTick();
 8001904:	f7ff fe80 	bl	8001608 <HAL_GetTick>
 8001908:	4606      	mov	r6, r0
        while (__HAL_RCC_GET_FLAG(RCC_FLAG_HSERDY) != RESET)
 800190a:	682b      	ldr	r3, [r5, #0]
 800190c:	039f      	lsls	r7, r3, #14
 800190e:	d5a6      	bpl.n	800185e <HAL_RCC_OscConfig+0xe>
          if ((HAL_GetTick() - tickstart) > HSE_TIMEOUT_VALUE)
 8001910:	f7ff fe7a 	bl	8001608 <HAL_GetTick>
 8001914:	1b80      	subs	r0, r0, r6
 8001916:	2864      	cmp	r0, #100	@ 0x64
 8001918:	d9f7      	bls.n	800190a <HAL_RCC_OscConfig+0xba>
 800191a:	e7dd      	b.n	80018d8 <HAL_RCC_OscConfig+0x88>
    if ((__HAL_RCC_GET_SYSCLK_SOURCE() == RCC_CFGR_SWS_HSI) || \
 800191c:	4b66      	ldr	r3, [pc, #408]	@ (8001ab8 <HAL_RCC_OscConfig+0x268>)
 800191e:	689a      	ldr	r2, [r3, #8]
 8001920:	f012 0f0c 	tst.w	r2, #12
 8001924:	d007      	beq.n	8001936 <HAL_RCC_OscConfig+0xe6>
        ((__HAL_RCC_GET_SYSCLK_SOURCE() == RCC_CFGR_SWS_PLL) && ((RCC->PLLCFGR & RCC_PLLCFGR_PLLSRC) == RCC_PLLCFGR_PLLSRC_HSI)))
 8001926:	689a      	ldr	r2, [r3, #8]
 8001928:	f002 020c 	and.w	r2, r2, #12
    if ((__HAL_RCC_GET_SYSCLK_SOURCE() == RCC_CFGR_SWS_HSI) || \
 800192c:	2a08      	cmp	r2, #8
 800192e:	d111      	bne.n	8001954 <HAL_RCC_OscConfig+0x104>
        ((__HAL_RCC_GET_SYSCLK_SOURCE() == RCC_CFGR_SWS_PLL) && ((RCC->PLLCFGR & RCC_PLLCFGR_PLLSRC) == RCC_PLLCFGR_PLLSRC_HSI)))
 8001930:	685b      	ldr	r3, [r3, #4]
 8001932:	025d      	lsls	r5, r3, #9
 8001934:	d40e      	bmi.n	8001954 <HAL_RCC_OscConfig+0x104>
      if ((__HAL_RCC_GET_FLAG(RCC_FLAG_HSIRDY) != RESET) && (RCC_OscInitStruct->HSIState != RCC_HSI_ON))
 8001936:	4a60      	ldr	r2, [pc, #384]	@ (8001ab8 <HAL_RCC_OscConfig+0x268>)
 8001938:	6813      	ldr	r3, [r2, #0]
 800193a:	0799      	lsls	r1, r3, #30
 800193c:	d502      	bpl.n	8001944 <HAL_RCC_OscConfig+0xf4>
 800193e:	68e3      	ldr	r3, [r4, #12]
 8001940:	2b01      	cmp	r3, #1
 8001942:	d1b2      	bne.n	80018aa <HAL_RCC_OscConfig+0x5a>
        __HAL_RCC_HSI_CALIBRATIONVALUE_ADJUST(RCC_OscInitStruct->HSICalibrationValue);
 8001944:	6813      	ldr	r3, [r2, #0]
 8001946:	6921      	ldr	r1, [r4, #16]
 8001948:	f023 03f8 	bic.w	r3, r3, #248	@ 0xf8
 800194c:	ea43 03c1 	orr.w	r3, r3, r1, lsl #3
 8001950:	6013      	str	r3, [r2, #0]
      if ((__HAL_RCC_GET_FLAG(RCC_FLAG_HSIRDY) != RESET) && (RCC_OscInitStruct->HSIState != RCC_HSI_ON))
 8001952:	e787      	b.n	8001864 <HAL_RCC_OscConfig+0x14>
      if ((RCC_OscInitStruct->HSIState) != RCC_HSI_OFF)
 8001954:	68e2      	ldr	r2, [r4, #12]
 8001956:	4b59      	ldr	r3, [pc, #356]	@ (8001abc <HAL_RCC_OscConfig+0x26c>)
 8001958:	b1b2      	cbz	r2, 8001988 <HAL_RCC_OscConfig+0x138>
        __HAL_RCC_HSI_ENABLE();
 800195a:	2201      	movs	r2, #1
 800195c:	601a      	str	r2, [r3, #0]
        tickstart = HAL_GetTick();
 800195e:	f7ff fe53 	bl	8001608 <HAL_GetTick>
        while (__HAL_RCC_GET_FLAG(RCC_FLAG_HSIRDY) == RESET)
 8001962:	4d55      	ldr	r5, [pc, #340]	@ (8001ab8 <HAL_RCC_OscConfig+0x268>)
        tickstart = HAL_GetTick();
 8001964:	4606      	mov	r6, r0
        while (__HAL_RCC_GET_FLAG(RCC_FLAG_HSIRDY) == RESET)
 8001966:	682b      	ldr	r3, [r5, #0]
 8001968:	079b      	lsls	r3, r3, #30
 800196a:	d507      	bpl.n	800197c <HAL_RCC_OscConfig+0x12c>
        __HAL_RCC_HSI_CALIBRATIONVALUE_ADJUST(RCC_OscInitStruct->HSICalibrationValue);
 800196c:	682b      	ldr	r3, [r5, #0]
 800196e:	6922      	ldr	r2, [r4, #16]
 8001970:	f023 03f8 	bic.w	r3, r3, #248	@ 0xf8
 8001974:	ea43 03c2 	orr.w	r3, r3, r2, lsl #3
 8001978:	602b      	str	r3, [r5, #0]
 800197a:	e773      	b.n	8001864 <HAL_RCC_OscConfig+0x14>
          if ((HAL_GetTick() - tickstart) > HSI_TIMEOUT_VALUE)
 800197c:	f7ff fe44 	bl	8001608 <HAL_GetTick>
 8001980:	1b80      	subs	r0, r0, r6
 8001982:	2802      	cmp	r0, #2
 8001984:	d9ef      	bls.n	8001966 <HAL_RCC_OscConfig+0x116>
 8001986:	e7a7      	b.n	80018d8 <HAL_RCC_OscConfig+0x88>
        __HAL_RCC_HSI_DISABLE();
 8001988:	601a      	str	r2, [r3, #0]
        tickstart = HAL_GetTick();
 800198a:	f7ff fe3d 	bl	8001608 <HAL_GetTick>
        while (__HAL_RCC_GET_FLAG(RCC_FLAG_HSIRDY) != RESET)
 800198e:	4e4a      	ldr	r6, [pc, #296]	@ (8001ab8 <HAL_RCC_OscConfig+0x268>)
        tickstart = HAL_GetTick();
 8001990:	4605      	mov	r5, r0
        while (__HAL_RCC_GET_FLAG(RCC_FLAG_HSIRDY) != RESET)
 8001992:	6833      	ldr	r3, [r6, #0]
 8001994:	079f      	lsls	r7, r3, #30
 8001996:	f57f af65 	bpl.w	8001864 <HAL_RCC_OscConfig+0x14>
          if ((HAL_GetTick() - tickstart) > HSI_TIMEOUT_VALUE)
 800199a:	f7ff fe35 	bl	8001608 <HAL_GetTick>
 800199e:	1b40      	subs	r0, r0, r5
 80019a0:	2802      	cmp	r0, #2
 80019a2:	d9f6      	bls.n	8001992 <HAL_RCC_OscConfig+0x142>
 80019a4:	e798      	b.n	80018d8 <HAL_RCC_OscConfig+0x88>
    if ((RCC_OscInitStruct->LSIState) != RCC_LSI_OFF)
 80019a6:	6962      	ldr	r2, [r4, #20]
 80019a8:	4b44      	ldr	r3, [pc, #272]	@ (8001abc <HAL_RCC_OscConfig+0x26c>)
 80019aa:	b182      	cbz	r2, 80019ce <HAL_RCC_OscConfig+0x17e>
      __HAL_RCC_LSI_ENABLE();
 80019ac:	2201      	movs	r2, #1
 80019ae:	f8c3 2e80 	str.w	r2, [r3, #3712]	@ 0xe80
      tickstart = HAL_GetTick();
 80019b2:	f7ff fe29 	bl	8001608 <HAL_GetTick>
      while (__HAL_RCC_GET_FLAG(RCC_FLAG_LSIRDY) == RESET)
 80019b6:	4e40      	ldr	r6, [pc, #256]	@ (8001ab8 <HAL_RCC_OscConfig+0x268>)
      tickstart = HAL_GetTick();
 80019b8:	4605      	mov	r5, r0
      while (__HAL_RCC_GET_FLAG(RCC_FLAG_LSIRDY) == RESET)
 80019ba:	6f73      	ldr	r3, [r6, #116]	@ 0x74
 80019bc:	079b      	lsls	r3, r3, #30
 80019be:	f53f af55 	bmi.w	800186c <HAL_RCC_OscConfig+0x1c>
        if ((HAL_GetTick() - tickstart) > LSI_TIMEOUT_VALUE)
 80019c2:	f7ff fe21 	bl	8001608 <HAL_GetTick>
 80019c6:	1b40      	subs	r0, r0, r5
 80019c8:	2802      	cmp	r0, #2
 80019ca:	d9f6      	bls.n	80019ba <HAL_RCC_OscConfig+0x16a>
 80019cc:	e784      	b.n	80018d8 <HAL_RCC_OscConfig+0x88>
      __HAL_RCC_LSI_DISABLE();
 80019ce:	f8c3 2e80 	str.w	r2, [r3, #3712]	@ 0xe80
      tickstart = HAL_GetTick();
 80019d2:	f7ff fe19 	bl	8001608 <HAL_GetTick>
      while (__HAL_RCC_GET_FLAG(RCC_FLAG_LSIRDY) != RESET)
 80019d6:	4e38      	ldr	r6, [pc, #224]	@ (8001ab8 <HAL_RCC_OscConfig+0x268>)
      tickstart = HAL_GetTick();
 80019d8:	4605      	mov	r5, r0
      while (__HAL_RCC_GET_FLAG(RCC_FLAG_LSIRDY) != RESET)
 80019da:	6f73      	ldr	r3, [r6, #116]	@ 0x74
 80019dc:	079f      	lsls	r7, r3, #30
 80019de:	f57f af45 	bpl.w	800186c <HAL_RCC_OscConfig+0x1c>
        if ((HAL_GetTick() - tickstart) > LSI_TIMEOUT_VALUE)
 80019e2:	f7ff fe11 	bl	8001608 <HAL_GetTick>
 80019e6:	1b40      	subs	r0, r0, r5
 80019e8:	2802      	cmp	r0, #2
 80019ea:	d9f6      	bls.n	80019da <HAL_RCC_OscConfig+0x18a>
 80019ec:	e774      	b.n	80018d8 <HAL_RCC_OscConfig+0x88>
    if (__HAL_RCC_PWR_IS_CLK_DISABLED())
 80019ee:	4b32      	ldr	r3, [pc, #200]	@ (8001ab8 <HAL_RCC_OscConfig+0x268>)
 80019f0:	6c1a      	ldr	r2, [r3, #64]	@ 0x40
 80019f2:	f012 5280 	ands.w	r2, r2, #268435456	@ 0x10000000
 80019f6:	d128      	bne.n	8001a4a <HAL_RCC_OscConfig+0x1fa>
      __HAL_RCC_PWR_CLK_ENABLE();
 80019f8:	9201      	str	r2, [sp, #4]
 80019fa:	6c1a      	ldr	r2, [r3, #64]	@ 0x40
 80019fc:	f042 5280 	orr.w	r2, r2, #268435456	@ 0x10000000
 8001a00:	641a      	str	r2, [r3, #64]	@ 0x40
 8001a02:	6c1b      	ldr	r3, [r3, #64]	@ 0x40
 8001a04:	f003 5380 	and.w	r3, r3, #268435456	@ 0x10000000
 8001a08:	9301      	str	r3, [sp, #4]
 8001a0a:	9b01      	ldr	r3, [sp, #4]
      pwrclkchanged = SET;
 8001a0c:	2701      	movs	r7, #1
    if (HAL_IS_BIT_CLR(PWR->CR, PWR_CR_DBP))
 8001a0e:	4d2c      	ldr	r5, [pc, #176]	@ (8001ac0 <HAL_RCC_OscConfig+0x270>)
 8001a10:	682b      	ldr	r3, [r5, #0]
 8001a12:	05d8      	lsls	r0, r3, #23
 8001a14:	d51b      	bpl.n	8001a4e <HAL_RCC_OscConfig+0x1fe>
    __HAL_RCC_LSE_CONFIG(RCC_OscInitStruct->LSEState);
 8001a16:	68a3      	ldr	r3, [r4, #8]
 8001a18:	4d27      	ldr	r5, [pc, #156]	@ (8001ab8 <HAL_RCC_OscConfig+0x268>)
 8001a1a:	2b01      	cmp	r3, #1
 8001a1c:	d127      	bne.n	8001a6e <HAL_RCC_OscConfig+0x21e>
 8001a1e:	6f2b      	ldr	r3, [r5, #112]	@ 0x70
 8001a20:	f043 0301 	orr.w	r3, r3, #1
 8001a24:	672b      	str	r3, [r5, #112]	@ 0x70
      tickstart = HAL_GetTick();
 8001a26:	f7ff fdef 	bl	8001608 <HAL_GetTick>
      while (__HAL_RCC_GET_FLAG(RCC_FLAG_LSERDY) == RESET)
 8001a2a:	4e23      	ldr	r6, [pc, #140]	@ (8001ab8 <HAL_RCC_OscConfig+0x268>)
      tickstart = HAL_GetTick();
 8001a2c:	4605      	mov	r5, r0
        if ((HAL_GetTick() - tickstart) > RCC_LSE_TIMEOUT_VALUE)
 8001a2e:	f241 3888 	movw	r8, #5000	@ 0x1388
      while (__HAL_RCC_GET_FLAG(RCC_FLAG_LSERDY) == RESET)
 8001a32:	6f33      	ldr	r3, [r6, #112]	@ 0x70
 8001a34:	079a      	lsls	r2, r3, #30
 8001a36:	d539      	bpl.n	8001aac <HAL_RCC_OscConfig+0x25c>
    if (pwrclkchanged == SET)
 8001a38:	2f00      	cmp	r7, #0
 8001a3a:	f43f af1b 	beq.w	8001874 <HAL_RCC_OscConfig+0x24>
      __HAL_RCC_PWR_CLK_DISABLE();
 8001a3e:	4a1e      	ldr	r2, [pc, #120]	@ (8001ab8 <HAL_RCC_OscConfig+0x268>)
 8001a40:	6c13      	ldr	r3, [r2, #64]	@ 0x40
 8001a42:	f023 5380 	bic.w	r3, r3, #268435456	@ 0x10000000
 8001a46:	6413      	str	r3, [r2, #64]	@ 0x40
 8001a48:	e714      	b.n	8001874 <HAL_RCC_OscConfig+0x24>
    FlagStatus       pwrclkchanged = RESET;
 8001a4a:	2700      	movs	r7, #0
 8001a4c:	e7df      	b.n	8001a0e <HAL_RCC_OscConfig+0x1be>
      SET_BIT(PWR->CR, PWR_CR_DBP);
 8001a4e:	682b      	ldr	r3, [r5, #0]
 8001a50:	f443 7380 	orr.w	r3, r3, #256	@ 0x100
 8001a54:	602b      	str	r3, [r5, #0]
      tickstart = HAL_GetTick();
 8001a56:	f7ff fdd7 	bl	8001608 <HAL_GetTick>
 8001a5a:	4606      	mov	r6, r0
      while (HAL_IS_BIT_CLR(PWR->CR, PWR_CR_DBP))
 8001a5c:	682b      	ldr	r3, [r5, #0]
 8001a5e:	05d9      	lsls	r1, r3, #23
 8001a60:	d4d9      	bmi.n	8001a16 <HAL_RCC_OscConfig+0x1c6>
        if ((HAL_GetTick() - tickstart) > RCC_DBP_TIMEOUT_VALUE)
 8001a62:	f7ff fdd1 	bl	8001608 <HAL_GetTick>
 8001a66:	1b80      	subs	r0, r0, r6
 8001a68:	2802      	cmp	r0, #2
 8001a6a:	d9f7      	bls.n	8001a5c <HAL_RCC_OscConfig+0x20c>
 8001a6c:	e734      	b.n	80018d8 <HAL_RCC_OscConfig+0x88>
    __HAL_RCC_LSE_CONFIG(RCC_OscInitStruct->LSEState);
 8001a6e:	2b05      	cmp	r3, #5
 8001a70:	d104      	bne.n	8001a7c <HAL_RCC_OscConfig+0x22c>
 8001a72:	6f2b      	ldr	r3, [r5, #112]	@ 0x70
 8001a74:	f043 0304 	orr.w	r3, r3, #4
 8001a78:	672b      	str	r3, [r5, #112]	@ 0x70
 8001a7a:	e7d0      	b.n	8001a1e <HAL_RCC_OscConfig+0x1ce>
 8001a7c:	6f2a      	ldr	r2, [r5, #112]	@ 0x70
 8001a7e:	f022 0201 	bic.w	r2, r2, #1
 8001a82:	672a      	str	r2, [r5, #112]	@ 0x70
 8001a84:	6f2a      	ldr	r2, [r5, #112]	@ 0x70
 8001a86:	f022 0204 	bic.w	r2, r2, #4
 8001a8a:	672a      	str	r2, [r5, #112]	@ 0x70
    if ((RCC_OscInitStruct->LSEState) != RCC_LSE_OFF)
 8001a8c:	2b00      	cmp	r3, #0
 8001a8e:	d1ca      	bne.n	8001a26 <HAL_RCC_OscConfig+0x1d6>
      tickstart = HAL_GetTick();
 8001a90:	f7ff fdba 	bl	8001608 <HAL_GetTick>
        if ((HAL_GetTick() - tickstart) > RCC_LSE_TIMEOUT_VALUE)
 8001a94:	f241 3888 	movw	r8, #5000	@ 0x1388
      tickstart = HAL_GetTick();
 8001a98:	4606      	mov	r6, r0
      while (__HAL_RCC_GET_FLAG(RCC_FLAG_LSERDY) != RESET)
 8001a9a:	6f2b      	ldr	r3, [r5, #112]	@ 0x70
 8001a9c:	079b      	lsls	r3, r3, #30
 8001a9e:	d5cb      	bpl.n	8001a38 <HAL_RCC_OscConfig+0x1e8>
        if ((HAL_GetTick() - tickstart) > RCC_LSE_TIMEOUT_VALUE)
 8001aa0:	f7ff fdb2 	bl	8001608 <HAL_GetTick>
 8001aa4:	1b80      	subs	r0, r0, r6
 8001aa6:	4540      	cmp	r0, r8
 8001aa8:	d9f7      	bls.n	8001a9a <HAL_RCC_OscConfig+0x24a>
 8001aaa:	e715      	b.n	80018d8 <HAL_RCC_OscConfig+0x88>
        if ((HAL_GetTick() - tickstart) > RCC_LSE_TIMEOUT_VALUE)
 8001aac:	f7ff fdac 	bl	8001608 <HAL_GetTick>
 8001ab0:	1b40      	subs	r0, r0, r5
 8001ab2:	4540      	cmp	r0, r8
 8001ab4:	d9bd      	bls.n	8001a32 <HAL_RCC_OscConfig+0x1e2>
 8001ab6:	e70f      	b.n	80018d8 <HAL_RCC_OscConfig+0x88>
 8001ab8:	40023800 	.word	0x40023800
 8001abc:	42470000 	.word	0x42470000
 8001ac0:	40007000 	.word	0x40007000
    if (__HAL_RCC_GET_SYSCLK_SOURCE() != RCC_CFGR_SWS_PLL)
 8001ac4:	4d37      	ldr	r5, [pc, #220]	@ (8001ba4 <HAL_RCC_OscConfig+0x354>)
 8001ac6:	68aa      	ldr	r2, [r5, #8]
 8001ac8:	f002 020c 	and.w	r2, r2, #12
 8001acc:	2a08      	cmp	r2, #8
 8001ace:	d03e      	beq.n	8001b4e <HAL_RCC_OscConfig+0x2fe>
      if ((RCC_OscInitStruct->PLL.PLLState) == RCC_PLL_ON)
 8001ad0:	2b02      	cmp	r3, #2
 8001ad2:	4b35      	ldr	r3, [pc, #212]	@ (8001ba8 <HAL_RCC_OscConfig+0x358>)
 8001ad4:	f04f 0200 	mov.w	r2, #0
        __HAL_RCC_PLL_DISABLE();
 8001ad8:	661a      	str	r2, [r3, #96]	@ 0x60
      if ((RCC_OscInitStruct->PLL.PLLState) == RCC_PLL_ON)
 8001ada:	d12b      	bne.n	8001b34 <HAL_RCC_OscConfig+0x2e4>
        tickstart = HAL_GetTick();
 8001adc:	f7ff fd94 	bl	8001608 <HAL_GetTick>
 8001ae0:	4606      	mov	r6, r0
        while (__HAL_RCC_GET_FLAG(RCC_FLAG_PLLRDY) != RESET)
 8001ae2:	682b      	ldr	r3, [r5, #0]
 8001ae4:	0199      	lsls	r1, r3, #6
 8001ae6:	d41f      	bmi.n	8001b28 <HAL_RCC_OscConfig+0x2d8>
        WRITE_REG(RCC->PLLCFGR, (RCC_OscInitStruct->PLL.PLLSource                                            | \
 8001ae8:	e9d4 3207 	ldrd	r3, r2, [r4, #28]
 8001aec:	4313      	orrs	r3, r2
 8001aee:	6a62      	ldr	r2, [r4, #36]	@ 0x24
 8001af0:	ea43 1382 	orr.w	r3, r3, r2, lsl #6
 8001af4:	6ae2      	ldr	r2, [r4, #44]	@ 0x2c
 8001af6:	ea43 6302 	orr.w	r3, r3, r2, lsl #24
 8001afa:	6aa2      	ldr	r2, [r4, #40]	@ 0x28
 8001afc:	0852      	lsrs	r2, r2, #1
 8001afe:	3a01      	subs	r2, #1
 8001b00:	ea43 4302 	orr.w	r3, r3, r2, lsl #16
 8001b04:	606b      	str	r3, [r5, #4]
        __HAL_RCC_PLL_ENABLE();
 8001b06:	4b28      	ldr	r3, [pc, #160]	@ (8001ba8 <HAL_RCC_OscConfig+0x358>)
        while (__HAL_RCC_GET_FLAG(RCC_FLAG_PLLRDY) == RESET)
 8001b08:	4d26      	ldr	r5, [pc, #152]	@ (8001ba4 <HAL_RCC_OscConfig+0x354>)
        __HAL_RCC_PLL_ENABLE();
 8001b0a:	2201      	movs	r2, #1
 8001b0c:	661a      	str	r2, [r3, #96]	@ 0x60
        tickstart = HAL_GetTick();
 8001b0e:	f7ff fd7b 	bl	8001608 <HAL_GetTick>
 8001b12:	4604      	mov	r4, r0
        while (__HAL_RCC_GET_FLAG(RCC_FLAG_PLLRDY) == RESET)
 8001b14:	682b      	ldr	r3, [r5, #0]
 8001b16:	019a      	lsls	r2, r3, #6
 8001b18:	f53f aeb0 	bmi.w	800187c <HAL_RCC_OscConfig+0x2c>
          if ((HAL_GetTick() - tickstart) > PLL_TIMEOUT_VALUE)
 8001b1c:	f7ff fd74 	bl	8001608 <HAL_GetTick>
 8001b20:	1b00      	subs	r0, r0, r4
 8001b22:	2802      	cmp	r0, #2
 8001b24:	d9f6      	bls.n	8001b14 <HAL_RCC_OscConfig+0x2c4>
 8001b26:	e6d7      	b.n	80018d8 <HAL_RCC_OscConfig+0x88>
          if ((HAL_GetTick() - tickstart) > PLL_TIMEOUT_VALUE)
 8001b28:	f7ff fd6e 	bl	8001608 <HAL_GetTick>
 8001b2c:	1b80      	subs	r0, r0, r6
 8001b2e:	2802      	cmp	r0, #2
 8001b30:	d9d7      	bls.n	8001ae2 <HAL_RCC_OscConfig+0x292>
 8001b32:	e6d1      	b.n	80018d8 <HAL_RCC_OscConfig+0x88>
        tickstart = HAL_GetTick();
 8001b34:	f7ff fd68 	bl	8001608 <HAL_GetTick>
 8001b38:	4604      	mov	r4, r0
        while (__HAL_RCC_GET_FLAG(RCC_FLAG_PLLRDY) != RESET)
 8001b3a:	682b      	ldr	r3, [r5, #0]
 8001b3c:	019b      	lsls	r3, r3, #6
 8001b3e:	f57f ae9d 	bpl.w	800187c <HAL_RCC_OscConfig+0x2c>
          if ((HAL_GetTick() - tickstart) > PLL_TIMEOUT_VALUE)
 8001b42:	f7ff fd61 	bl	8001608 <HAL_GetTick>
 8001b46:	1b00      	subs	r0, r0, r4
 8001b48:	2802      	cmp	r0, #2
 8001b4a:	d9f6      	bls.n	8001b3a <HAL_RCC_OscConfig+0x2ea>
 8001b4c:	e6c4      	b.n	80018d8 <HAL_RCC_OscConfig+0x88>
      if ((RCC_OscInitStruct->PLL.PLLState) == RCC_PLL_OFF)
 8001b4e:	2b01      	cmp	r3, #1
 8001b50:	f43f aeab 	beq.w	80018aa <HAL_RCC_OscConfig+0x5a>
        pll_config = RCC->PLLCFGR;
 8001b54:	686b      	ldr	r3, [r5, #4]
        if (((RCC_OscInitStruct->PLL.PLLState) == RCC_PLL_OFF) ||
 8001b56:	69e2      	ldr	r2, [r4, #28]
            (READ_BIT(pll_config, RCC_PLLCFGR_PLLSRC) != RCC_OscInitStruct->PLL.PLLSource) ||
 8001b58:	f403 0180 	and.w	r1, r3, #4194304	@ 0x400000
        if (((RCC_OscInitStruct->PLL.PLLState) == RCC_PLL_OFF) ||
 8001b5c:	4291      	cmp	r1, r2
 8001b5e:	f47f aea4 	bne.w	80018aa <HAL_RCC_OscConfig+0x5a>
            (READ_BIT(pll_config, RCC_PLLCFGR_PLLSRC) != RCC_OscInitStruct->PLL.PLLSource) ||
 8001b62:	6a21      	ldr	r1, [r4, #32]
            (READ_BIT(pll_config, RCC_PLLCFGR_PLLM) != (RCC_OscInitStruct->PLL.PLLM) << RCC_PLLCFGR_PLLM_Pos) ||
 8001b64:	f003 023f 	and.w	r2, r3, #63	@ 0x3f
            (READ_BIT(pll_config, RCC_PLLCFGR_PLLSRC) != RCC_OscInitStruct->PLL.PLLSource) ||
 8001b68:	428a      	cmp	r2, r1
 8001b6a:	f47f ae9e 	bne.w	80018aa <HAL_RCC_OscConfig+0x5a>
            (READ_BIT(pll_config, RCC_PLLCFGR_PLLN) != (RCC_OscInitStruct->PLL.PLLN) << RCC_PLLCFGR_PLLN_Pos) ||
 8001b6e:	6a61      	ldr	r1, [r4, #36]	@ 0x24
            (READ_BIT(pll_config, RCC_PLLCFGR_PLLM) != (RCC_OscInitStruct->PLL.PLLM) << RCC_PLLCFGR_PLLM_Pos) ||
 8001b70:	f647 72c0 	movw	r2, #32704	@ 0x7fc0
 8001b74:	401a      	ands	r2, r3
 8001b76:	ebb2 1f81 	cmp.w	r2, r1, lsl #6
 8001b7a:	f47f ae96 	bne.w	80018aa <HAL_RCC_OscConfig+0x5a>
            (READ_BIT(pll_config, RCC_PLLCFGR_PLLP) != (((RCC_OscInitStruct->PLL.PLLP >> 1U) - 1U)) << RCC_PLLCFGR_PLLP_Pos) ||
 8001b7e:	6aa2      	ldr	r2, [r4, #40]	@ 0x28
 8001b80:	0852      	lsrs	r2, r2, #1
 8001b82:	f403 3140 	and.w	r1, r3, #196608	@ 0x30000
 8001b86:	3a01      	subs	r2, #1
            (READ_BIT(pll_config, RCC_PLLCFGR_PLLN) != (RCC_OscInitStruct->PLL.PLLN) << RCC_PLLCFGR_PLLN_Pos) ||
 8001b88:	ebb1 4f02 	cmp.w	r1, r2, lsl #16
 8001b8c:	f47f ae8d 	bne.w	80018aa <HAL_RCC_OscConfig+0x5a>
            (READ_BIT(pll_config, RCC_PLLCFGR_PLLQ) != (RCC_OscInitStruct->PLL.PLLQ << RCC_PLLCFGR_PLLQ_Pos)))
 8001b90:	6ae2      	ldr	r2, [r4, #44]	@ 0x2c
 8001b92:	f003 6370 	and.w	r3, r3, #251658240	@ 0xf000000
            (READ_BIT(pll_config, RCC_PLLCFGR_PLLP) != (((RCC_OscInitStruct->PLL.PLLP >> 1U) - 1U)) << RCC_PLLCFGR_PLLP_Pos) ||
 8001b96:	ebb3 6f02 	cmp.w	r3, r2, lsl #24
 8001b9a:	bf14      	ite	ne
 8001b9c:	2001      	movne	r0, #1
 8001b9e:	2000      	moveq	r0, #0
 8001ba0:	e69b      	b.n	80018da <HAL_RCC_OscConfig+0x8a>
 8001ba2:	bf00      	nop
 8001ba4:	40023800 	.word	0x40023800
 8001ba8:	42470000 	.word	0x42470000

08001bac <HAL_RCC_GetSysClockFreq>:
  uint32_t pllvco = 0U;
  uint32_t pllp = 0U;
  uint32_t sysclockfreq = 0U;

  /* Get SYSCLK source -------------------------------------------------------*/
  switch (RCC->CFGR & RCC_CFGR_SWS)
 8001bac:	4913      	ldr	r1, [pc, #76]	@ (8001bfc <HAL_RCC_GetSysClockFreq+0x50>)
{
 8001bae:	b508      	push	{r3, lr}
  switch (RCC->CFGR & RCC_CFGR_SWS)
 8001bb0:	688b      	ldr	r3, [r1, #8]
 8001bb2:	f003 030c 	and.w	r3, r3, #12
 8001bb6:	2b04      	cmp	r3, #4
 8001bb8:	d01c      	beq.n	8001bf4 <HAL_RCC_GetSysClockFreq+0x48>
 8001bba:	2b08      	cmp	r3, #8
 8001bbc:	d11c      	bne.n	8001bf8 <HAL_RCC_GetSysClockFreq+0x4c>
    }
    case RCC_CFGR_SWS_PLL:  /* PLL used as system clock  source */
    {
      /* PLL_VCO = (HSE_VALUE or HSI_VALUE / PLLM) * PLLN
      SYSCLK = PLL_VCO / PLLP */
      pllm = RCC->PLLCFGR & RCC_PLLCFGR_PLLM;
 8001bbe:	684a      	ldr	r2, [r1, #4]
      if (__HAL_RCC_GET_PLL_OSCSOURCE() != RCC_PLLSOURCE_HSI)
 8001bc0:	684b      	ldr	r3, [r1, #4]
      {
        /* HSE used as PLL clock source */
        pllvco = (uint32_t)((((uint64_t) HSE_VALUE * ((uint64_t)((RCC->PLLCFGR & RCC_PLLCFGR_PLLN) >> RCC_PLLCFGR_PLLN_Pos)))) / (uint64_t)pllm);
 8001bc2:	6849      	ldr	r1, [r1, #4]
      if (__HAL_RCC_GET_PLL_OSCSOURCE() != RCC_PLLSOURCE_HSI)
 8001bc4:	f413 0380 	ands.w	r3, r3, #4194304	@ 0x400000
        pllvco = (uint32_t)((((uint64_t) HSE_VALUE * ((uint64_t)((RCC->PLLCFGR & RCC_PLLCFGR_PLLN) >> RCC_PLLCFGR_PLLN_Pos)))) / (uint64_t)pllm);
 8001bc8:	bf14      	ite	ne
 8001bca:	480d      	ldrne	r0, [pc, #52]	@ (8001c00 <HAL_RCC_GetSysClockFreq+0x54>)
      }
      else
      {
        /* HSI used as PLL clock source */
        pllvco = (uint32_t)((((uint64_t) HSI_VALUE * ((uint64_t)((RCC->PLLCFGR & RCC_PLLCFGR_PLLN) >> RCC_PLLCFGR_PLLN_Pos)))) / (uint64_t)pllm);
 8001bcc:	480d      	ldreq	r0, [pc, #52]	@ (8001c04 <HAL_RCC_GetSysClockFreq+0x58>)
        pllvco = (uint32_t)((((uint64_t) HSE_VALUE * ((uint64_t)((RCC->PLLCFGR & RCC_PLLCFGR_PLLN) >> RCC_PLLCFGR_PLLN_Pos)))) / (uint64_t)pllm);
 8001bce:	f3c1 1188 	ubfx	r1, r1, #6, #9
 8001bd2:	bf18      	it	ne
 8001bd4:	2300      	movne	r3, #0
      pllm = RCC->PLLCFGR & RCC_PLLCFGR_PLLM;
 8001bd6:	f002 023f 	and.w	r2, r2, #63	@ 0x3f
        pllvco = (uint32_t)((((uint64_t) HSI_VALUE * ((uint64_t)((RCC->PLLCFGR & RCC_PLLCFGR_PLLN) >> RCC_PLLCFGR_PLLN_Pos)))) / (uint64_t)pllm);
 8001bda:	fba1 0100 	umull	r0, r1, r1, r0
 8001bde:	f7ff f85b 	bl	8000c98 <__aeabi_uldivmod>
      }
      pllp = ((((RCC->PLLCFGR & RCC_PLLCFGR_PLLP) >> RCC_PLLCFGR_PLLP_Pos) + 1U) * 2U);
 8001be2:	4b06      	ldr	r3, [pc, #24]	@ (8001bfc <HAL_RCC_GetSysClockFreq+0x50>)
 8001be4:	685b      	ldr	r3, [r3, #4]
 8001be6:	f3c3 4301 	ubfx	r3, r3, #16, #2
 8001bea:	3301      	adds	r3, #1
 8001bec:	005b      	lsls	r3, r3, #1

      sysclockfreq = pllvco / pllp;
 8001bee:	fbb0 f0f3 	udiv	r0, r0, r3
      sysclockfreq = HSI_VALUE;
      break;
    }
  }
  return sysclockfreq;
}
 8001bf2:	bd08      	pop	{r3, pc}
  switch (RCC->CFGR & RCC_CFGR_SWS)
 8001bf4:	4802      	ldr	r0, [pc, #8]	@ (8001c00 <HAL_RCC_GetSysClockFreq+0x54>)
 8001bf6:	e7fc      	b.n	8001bf2 <HAL_RCC_GetSysClockFreq+0x46>
      sysclockfreq = HSI_VALUE;
 8001bf8:	4802      	ldr	r0, [pc, #8]	@ (8001c04 <HAL_RCC_GetSysClockFreq+0x58>)
  return sysclockfreq;
 8001bfa:	e7fa      	b.n	8001bf2 <HAL_RCC_GetSysClockFreq+0x46>
 8001bfc:	40023800 	.word	0x40023800
 8001c00:	017d7840 	.word	0x017d7840
 8001c04:	00f42400 	.word	0x00f42400

08001c08 <HAL_RCC_ClockConfig>:
{
 8001c08:	e92d 41f0 	stmdb	sp!, {r4, r5, r6, r7, r8, lr}
 8001c0c:	460d      	mov	r5, r1
  if (RCC_ClkInitStruct == NULL)
 8001c0e:	4604      	mov	r4, r0
 8001c10:	b910      	cbnz	r0, 8001c18 <HAL_RCC_ClockConfig+0x10>
    return HAL_ERROR;
 8001c12:	2001      	movs	r0, #1
}
 8001c14:	e8bd 81f0 	ldmia.w	sp!, {r4, r5, r6, r7, r8, pc}
  if (FLatency > __HAL_FLASH_GET_LATENCY())
 8001c18:	4b43      	ldr	r3, [pc, #268]	@ (8001d28 <HAL_RCC_ClockConfig+0x120>)
 8001c1a:	681a      	ldr	r2, [r3, #0]
 8001c1c:	f002 0207 	and.w	r2, r2, #7
 8001c20:	428a      	cmp	r2, r1
 8001c22:	d328      	bcc.n	8001c76 <HAL_RCC_ClockConfig+0x6e>
  if (((RCC_ClkInitStruct->ClockType) & RCC_CLOCKTYPE_HCLK) == RCC_CLOCKTYPE_HCLK)
 8001c24:	6821      	ldr	r1, [r4, #0]
 8001c26:	078f      	lsls	r7, r1, #30
 8001c28:	d42d      	bmi.n	8001c86 <HAL_RCC_ClockConfig+0x7e>
  if (((RCC_ClkInitStruct->ClockType) & RCC_CLOCKTYPE_SYSCLK) == RCC_CLOCKTYPE_SYSCLK)
 8001c2a:	07c8      	lsls	r0, r1, #31
 8001c2c:	d440      	bmi.n	8001cb0 <HAL_RCC_ClockConfig+0xa8>
  if (FLatency < __HAL_FLASH_GET_LATENCY())
 8001c2e:	4b3e      	ldr	r3, [pc, #248]	@ (8001d28 <HAL_RCC_ClockConfig+0x120>)
 8001c30:	681a      	ldr	r2, [r3, #0]
 8001c32:	f002 0207 	and.w	r2, r2, #7
 8001c36:	42aa      	cmp	r2, r5
 8001c38:	d865      	bhi.n	8001d06 <HAL_RCC_ClockConfig+0xfe>
  if (((RCC_ClkInitStruct->ClockType) & RCC_CLOCKTYPE_PCLK1) == RCC_CLOCKTYPE_PCLK1)
 8001c3a:	6822      	ldr	r2, [r4, #0]
 8001c3c:	0751      	lsls	r1, r2, #29
 8001c3e:	d46b      	bmi.n	8001d18 <HAL_RCC_ClockConfig+0x110>
  if (((RCC_ClkInitStruct->ClockType) & RCC_CLOCKTYPE_PCLK2) == RCC_CLOCKTYPE_PCLK2)
 8001c40:	0713      	lsls	r3, r2, #28
 8001c42:	d507      	bpl.n	8001c54 <HAL_RCC_ClockConfig+0x4c>
    MODIFY_REG(RCC->CFGR, RCC_CFGR_PPRE2, ((RCC_ClkInitStruct->APB2CLKDivider) << 3U));
 8001c44:	4a39      	ldr	r2, [pc, #228]	@ (8001d2c <HAL_RCC_ClockConfig+0x124>)
 8001c46:	6921      	ldr	r1, [r4, #16]
 8001c48:	6893      	ldr	r3, [r2, #8]
 8001c4a:	f423 4360 	bic.w	r3, r3, #57344	@ 0xe000
 8001c4e:	ea43 03c1 	orr.w	r3, r3, r1, lsl #3
 8001c52:	6093      	str	r3, [r2, #8]
  SystemCoreClock = HAL_RCC_GetSysClockFreq() >> AHBPrescTable[(RCC->CFGR & RCC_CFGR_HPRE) >> RCC_CFGR_HPRE_Pos];
 8001c54:	f7ff ffaa 	bl	8001bac <HAL_RCC_GetSysClockFreq>
 8001c58:	4b34      	ldr	r3, [pc, #208]	@ (8001d2c <HAL_RCC_ClockConfig+0x124>)
 8001c5a:	4a35      	ldr	r2, [pc, #212]	@ (8001d30 <HAL_RCC_ClockConfig+0x128>)
 8001c5c:	689b      	ldr	r3, [r3, #8]
 8001c5e:	f3c3 1303 	ubfx	r3, r3, #4, #4
 8001c62:	5cd3      	ldrb	r3, [r2, r3]
 8001c64:	40d8      	lsrs	r0, r3
 8001c66:	4b33      	ldr	r3, [pc, #204]	@ (8001d34 <HAL_RCC_ClockConfig+0x12c>)
 8001c68:	6018      	str	r0, [r3, #0]
  HAL_InitTick(uwTickPrio);
 8001c6a:	4b33      	ldr	r3, [pc, #204]	@ (8001d38 <HAL_RCC_ClockConfig+0x130>)
 8001c6c:	6818      	ldr	r0, [r3, #0]
 8001c6e:	f7ff fbc5 	bl	80013fc <HAL_InitTick>
  return HAL_OK;
 8001c72:	2000      	movs	r0, #0
 8001c74:	e7ce      	b.n	8001c14 <HAL_RCC_ClockConfig+0xc>
    __HAL_FLASH_SET_LATENCY(FLatency);
 8001c76:	b2ca      	uxtb	r2, r1
 8001c78:	701a      	strb	r2, [r3, #0]
    if (__HAL_FLASH_GET_LATENCY() != FLatency)
 8001c7a:	681b      	ldr	r3, [r3, #0]
 8001c7c:	f003 0307 	and.w	r3, r3, #7
 8001c80:	428b      	cmp	r3, r1
 8001c82:	d1c6      	bne.n	8001c12 <HAL_RCC_ClockConfig+0xa>
 8001c84:	e7ce      	b.n	8001c24 <HAL_RCC_ClockConfig+0x1c>
    if (((RCC_ClkInitStruct->ClockType) & RCC_CLOCKTYPE_PCLK1) == RCC_CLOCKTYPE_PCLK1)
 8001c86:	4b29      	ldr	r3, [pc, #164]	@ (8001d2c <HAL_RCC_ClockConfig+0x124>)
 8001c88:	f011 0f04 	tst.w	r1, #4
      MODIFY_REG(RCC->CFGR, RCC_CFGR_PPRE1, RCC_HCLK_DIV16);
 8001c8c:	bf1e      	ittt	ne
 8001c8e:	689a      	ldrne	r2, [r3, #8]
 8001c90:	f442 52e0 	orrne.w	r2, r2, #7168	@ 0x1c00
 8001c94:	609a      	strne	r2, [r3, #8]
    if (((RCC_ClkInitStruct->ClockType) & RCC_CLOCKTYPE_PCLK2) == RCC_CLOCKTYPE_PCLK2)
 8001c96:	070e      	lsls	r6, r1, #28
      MODIFY_REG(RCC->CFGR, RCC_CFGR_PPRE2, (RCC_HCLK_DIV16 << 3));
 8001c98:	bf42      	ittt	mi
 8001c9a:	689a      	ldrmi	r2, [r3, #8]
 8001c9c:	f442 4260 	orrmi.w	r2, r2, #57344	@ 0xe000
 8001ca0:	609a      	strmi	r2, [r3, #8]
    MODIFY_REG(RCC->CFGR, RCC_CFGR_HPRE, RCC_ClkInitStruct->AHBCLKDivider);
 8001ca2:	689a      	ldr	r2, [r3, #8]
 8001ca4:	68a0      	ldr	r0, [r4, #8]
 8001ca6:	f022 02f0 	bic.w	r2, r2, #240	@ 0xf0
 8001caa:	4302      	orrs	r2, r0
 8001cac:	609a      	str	r2, [r3, #8]
 8001cae:	e7bc      	b.n	8001c2a <HAL_RCC_ClockConfig+0x22>
    if (RCC_ClkInitStruct->SYSCLKSource == RCC_SYSCLKSOURCE_HSE)
 8001cb0:	6862      	ldr	r2, [r4, #4]
 8001cb2:	4b1e      	ldr	r3, [pc, #120]	@ (8001d2c <HAL_RCC_ClockConfig+0x124>)
 8001cb4:	2a01      	cmp	r2, #1
 8001cb6:	d11c      	bne.n	8001cf2 <HAL_RCC_ClockConfig+0xea>
      if (__HAL_RCC_GET_FLAG(RCC_FLAG_HSERDY) == RESET)
 8001cb8:	681b      	ldr	r3, [r3, #0]
 8001cba:	f413 3f00 	tst.w	r3, #131072	@ 0x20000
      if (__HAL_RCC_GET_FLAG(RCC_FLAG_HSIRDY) == RESET)
 8001cbe:	d0a8      	beq.n	8001c12 <HAL_RCC_ClockConfig+0xa>
    __HAL_RCC_SYSCLK_CONFIG(RCC_ClkInitStruct->SYSCLKSource);
 8001cc0:	4e1a      	ldr	r6, [pc, #104]	@ (8001d2c <HAL_RCC_ClockConfig+0x124>)
 8001cc2:	68b3      	ldr	r3, [r6, #8]
 8001cc4:	f023 0303 	bic.w	r3, r3, #3
 8001cc8:	4313      	orrs	r3, r2
 8001cca:	60b3      	str	r3, [r6, #8]
    tickstart = HAL_GetTick();
 8001ccc:	f7ff fc9c 	bl	8001608 <HAL_GetTick>
      if ((HAL_GetTick() - tickstart) > CLOCKSWITCH_TIMEOUT_VALUE)
 8001cd0:	f241 3888 	movw	r8, #5000	@ 0x1388
    tickstart = HAL_GetTick();
 8001cd4:	4607      	mov	r7, r0
    while (__HAL_RCC_GET_SYSCLK_SOURCE() != (RCC_ClkInitStruct->SYSCLKSource << RCC_CFGR_SWS_Pos))
 8001cd6:	68b3      	ldr	r3, [r6, #8]
 8001cd8:	6862      	ldr	r2, [r4, #4]
 8001cda:	f003 030c 	and.w	r3, r3, #12
 8001cde:	ebb3 0f82 	cmp.w	r3, r2, lsl #2
 8001ce2:	d0a4      	beq.n	8001c2e <HAL_RCC_ClockConfig+0x26>
      if ((HAL_GetTick() - tickstart) > CLOCKSWITCH_TIMEOUT_VALUE)
 8001ce4:	f7ff fc90 	bl	8001608 <HAL_GetTick>
 8001ce8:	1bc0      	subs	r0, r0, r7
 8001cea:	4540      	cmp	r0, r8
 8001cec:	d9f3      	bls.n	8001cd6 <HAL_RCC_ClockConfig+0xce>
        return HAL_TIMEOUT;
 8001cee:	2003      	movs	r0, #3
 8001cf0:	e790      	b.n	8001c14 <HAL_RCC_ClockConfig+0xc>
    else if ((RCC_ClkInitStruct->SYSCLKSource == RCC_SYSCLKSOURCE_PLLCLK)   ||
 8001cf2:	1e91      	subs	r1, r2, #2
 8001cf4:	2901      	cmp	r1, #1
      if (__HAL_RCC_GET_FLAG(RCC_FLAG_PLLRDY) == RESET)
 8001cf6:	681b      	ldr	r3, [r3, #0]
    else if ((RCC_ClkInitStruct->SYSCLKSource == RCC_SYSCLKSOURCE_PLLCLK)   ||
 8001cf8:	d802      	bhi.n	8001d00 <HAL_RCC_ClockConfig+0xf8>
      if (__HAL_RCC_GET_FLAG(RCC_FLAG_PLLRDY) == RESET)
 8001cfa:	f013 7f00 	tst.w	r3, #33554432	@ 0x2000000
 8001cfe:	e7de      	b.n	8001cbe <HAL_RCC_ClockConfig+0xb6>
      if (__HAL_RCC_GET_FLAG(RCC_FLAG_HSIRDY) == RESET)
 8001d00:	f013 0f02 	tst.w	r3, #2
 8001d04:	e7db      	b.n	8001cbe <HAL_RCC_ClockConfig+0xb6>
    __HAL_FLASH_SET_LATENCY(FLatency);
 8001d06:	b2ea      	uxtb	r2, r5
 8001d08:	701a      	strb	r2, [r3, #0]
    if (__HAL_FLASH_GET_LATENCY() != FLatency)
 8001d0a:	681b      	ldr	r3, [r3, #0]
 8001d0c:	f003 0307 	and.w	r3, r3, #7
 8001d10:	42ab      	cmp	r3, r5
 8001d12:	f47f af7e 	bne.w	8001c12 <HAL_RCC_ClockConfig+0xa>
 8001d16:	e790      	b.n	8001c3a <HAL_RCC_ClockConfig+0x32>
    MODIFY_REG(RCC->CFGR, RCC_CFGR_PPRE1, RCC_ClkInitStruct->APB1CLKDivider);
 8001d18:	4904      	ldr	r1, [pc, #16]	@ (8001d2c <HAL_RCC_ClockConfig+0x124>)
 8001d1a:	68e0      	ldr	r0, [r4, #12]
 8001d1c:	688b      	ldr	r3, [r1, #8]
 8001d1e:	f423 53e0 	bic.w	r3, r3, #7168	@ 0x1c00
 8001d22:	4303      	orrs	r3, r0
 8001d24:	608b      	str	r3, [r1, #8]
 8001d26:	e78b      	b.n	8001c40 <HAL_RCC_ClockConfig+0x38>
 8001d28:	40023c00 	.word	0x40023c00
 8001d2c:	40023800 	.word	0x40023800
 8001d30:	08008aa2 	.word	0x08008aa2
 8001d34:	20000000 	.word	0x20000000
 8001d38:	20000008 	.word	0x20000008

08001d3c <HAL_RCC_GetPCLK1Freq>:
  * @retval PCLK1 frequency
  */
uint32_t HAL_RCC_GetPCLK1Freq(void)
{
  /* Get HCLK source and Compute PCLK1 frequency ---------------------------*/
  return (HAL_RCC_GetHCLKFreq() >> APBPrescTable[(RCC->CFGR & RCC_CFGR_PPRE1) >> RCC_CFGR_PPRE1_Pos]);
 8001d3c:	4b04      	ldr	r3, [pc, #16]	@ (8001d50 <HAL_RCC_GetPCLK1Freq+0x14>)
 8001d3e:	4a05      	ldr	r2, [pc, #20]	@ (8001d54 <HAL_RCC_GetPCLK1Freq+0x18>)
 8001d40:	689b      	ldr	r3, [r3, #8]
 8001d42:	f3c3 2382 	ubfx	r3, r3, #10, #3
 8001d46:	5cd3      	ldrb	r3, [r2, r3]
 8001d48:	4a03      	ldr	r2, [pc, #12]	@ (8001d58 <HAL_RCC_GetPCLK1Freq+0x1c>)
 8001d4a:	6810      	ldr	r0, [r2, #0]
}
 8001d4c:	40d8      	lsrs	r0, r3
 8001d4e:	4770      	bx	lr
 8001d50:	40023800 	.word	0x40023800
 8001d54:	08008a9a 	.word	0x08008a9a
 8001d58:	20000000 	.word	0x20000000

08001d5c <HAL_RCC_GetPCLK2Freq>:
  * @retval PCLK2 frequency
  */
uint32_t HAL_RCC_GetPCLK2Freq(void)
{
  /* Get HCLK source and Compute PCLK2 frequency ---------------------------*/
  return (HAL_RCC_GetHCLKFreq() >> APBPrescTable[(RCC->CFGR & RCC_CFGR_PPRE2) >> RCC_CFGR_PPRE2_Pos]);
 8001d5c:	4b04      	ldr	r3, [pc, #16]	@ (8001d70 <HAL_RCC_GetPCLK2Freq+0x14>)
 8001d5e:	4a05      	ldr	r2, [pc, #20]	@ (8001d74 <HAL_RCC_GetPCLK2Freq+0x18>)
 8001d60:	689b      	ldr	r3, [r3, #8]
 8001d62:	f3c3 3342 	ubfx	r3, r3, #13, #3
 8001d66:	5cd3      	ldrb	r3, [r2, r3]
 8001d68:	4a03      	ldr	r2, [pc, #12]	@ (8001d78 <HAL_RCC_GetPCLK2Freq+0x1c>)
 8001d6a:	6810      	ldr	r0, [r2, #0]
}
 8001d6c:	40d8      	lsrs	r0, r3
 8001d6e:	4770      	bx	lr
 8001d70:	40023800 	.word	0x40023800
 8001d74:	08008a9a 	.word	0x08008a9a
 8001d78:	20000000 	.word	0x20000000

08001d7c <HAL_RCC_GetClockConfig>:
  * @retval None
  */
void HAL_RCC_GetClockConfig(RCC_ClkInitTypeDef  *RCC_ClkInitStruct, uint32_t *pFLatency)
{
  /* Set all possible values for the Clock type parameter --------------------*/
  RCC_ClkInitStruct->ClockType = RCC_CLOCKTYPE_SYSCLK | RCC_CLOCKTYPE_HCLK | RCC_CLOCKTYPE_PCLK1 | RCC_CLOCKTYPE_PCLK2;
 8001d7c:	230f      	movs	r3, #15
 8001d7e:	6003      	str	r3, [r0, #0]

  /* Get the SYSCLK configuration --------------------------------------------*/
  RCC_ClkInitStruct->SYSCLKSource = (uint32_t)(RCC->CFGR & RCC_CFGR_SW);
 8001d80:	4b0b      	ldr	r3, [pc, #44]	@ (8001db0 <HAL_RCC_GetClockConfig+0x34>)
 8001d82:	689a      	ldr	r2, [r3, #8]
 8001d84:	f002 0203 	and.w	r2, r2, #3
 8001d88:	6042      	str	r2, [r0, #4]

  /* Get the HCLK configuration ----------------------------------------------*/
  RCC_ClkInitStruct->AHBCLKDivider = (uint32_t)(RCC->CFGR & RCC_CFGR_HPRE);
 8001d8a:	689a      	ldr	r2, [r3, #8]
 8001d8c:	f002 02f0 	and.w	r2, r2, #240	@ 0xf0
 8001d90:	6082      	str	r2, [r0, #8]

  /* Get the APB1 configuration ----------------------------------------------*/
  RCC_ClkInitStruct->APB1CLKDivider = (uint32_t)(RCC->CFGR & RCC_CFGR_PPRE1);
 8001d92:	689a      	ldr	r2, [r3, #8]
 8001d94:	f402 52e0 	and.w	r2, r2, #7168	@ 0x1c00
 8001d98:	60c2      	str	r2, [r0, #12]

  /* Get the APB2 configuration ----------------------------------------------*/
  RCC_ClkInitStruct->APB2CLKDivider = (uint32_t)((RCC->CFGR & RCC_CFGR_PPRE2) >> 3U);
 8001d9a:	689b      	ldr	r3, [r3, #8]
 8001d9c:	08db      	lsrs	r3, r3, #3
 8001d9e:	f403 53e0 	and.w	r3, r3, #7168	@ 0x1c00
 8001da2:	6103      	str	r3, [r0, #16]

  /* Get the Flash Wait State (Latency) configuration ------------------------*/
  *pFLatency = (uint32_t)(FLASH->ACR & FLASH_ACR_LATENCY);
 8001da4:	4b03      	ldr	r3, [pc, #12]	@ (8001db4 <HAL_RCC_GetClockConfig+0x38>)
 8001da6:	681b      	ldr	r3, [r3, #0]
 8001da8:	f003 0307 	and.w	r3, r3, #7
 8001dac:	600b      	str	r3, [r1, #0]
}
 8001dae:	4770      	bx	lr
 8001db0:	40023800 	.word	0x40023800
 8001db4:	40023c00 	.word	0x40023c00

08001db8 <HAL_TIM_Base_MspInit>:
  UNUSED(htim);

  /* NOTE : This function should not be modified, when the callback is needed,
            the HAL_TIM_Base_MspInit could be implemented in the user file
   */
}
 8001db8:	4770      	bx	lr
	...

08001dbc <HAL_TIM_Base_Start_IT>:

  /* Check the parameters */
  assert_param(IS_TIM_INSTANCE(htim->Instance));

  /* Check the TIM state */
  if (htim->State != HAL_TIM_STATE_READY)
 8001dbc:	f890 303d 	ldrb.w	r3, [r0, #61]	@ 0x3d
 8001dc0:	2b01      	cmp	r3, #1
 8001dc2:	d128      	bne.n	8001e16 <HAL_TIM_Base_Start_IT+0x5a>
  {
    return HAL_ERROR;
  }

  /* Set the TIM state */
  htim->State = HAL_TIM_STATE_BUSY;
 8001dc4:	2302      	movs	r3, #2
 8001dc6:	f880 303d 	strb.w	r3, [r0, #61]	@ 0x3d

  /* Enable the TIM Update interrupt */
  __HAL_TIM_ENABLE_IT(htim, TIM_IT_UPDATE);
 8001dca:	6803      	ldr	r3, [r0, #0]
 8001dcc:	68da      	ldr	r2, [r3, #12]
 8001dce:	f042 0201 	orr.w	r2, r2, #1
 8001dd2:	60da      	str	r2, [r3, #12]

  /* Enable the Peripheral, except in trigger mode where enable is automatically done with trigger */
  if (IS_TIM_SLAVE_INSTANCE(htim->Instance))
 8001dd4:	4a11      	ldr	r2, [pc, #68]	@ (8001e1c <HAL_TIM_Base_Start_IT+0x60>)
 8001dd6:	4293      	cmp	r3, r2
 8001dd8:	d012      	beq.n	8001e00 <HAL_TIM_Base_Start_IT+0x44>
 8001dda:	f1b3 4f80 	cmp.w	r3, #1073741824	@ 0x40000000
 8001dde:	d00f      	beq.n	8001e00 <HAL_TIM_Base_Start_IT+0x44>
 8001de0:	f5a2 427c 	sub.w	r2, r2, #64512	@ 0xfc00
 8001de4:	4293      	cmp	r3, r2
 8001de6:	d00b      	beq.n	8001e00 <HAL_TIM_Base_Start_IT+0x44>
 8001de8:	f502 6280 	add.w	r2, r2, #1024	@ 0x400
 8001dec:	4293      	cmp	r3, r2
 8001dee:	d007      	beq.n	8001e00 <HAL_TIM_Base_Start_IT+0x44>
 8001df0:	f502 6280 	add.w	r2, r2, #1024	@ 0x400
 8001df4:	4293      	cmp	r3, r2
 8001df6:	d003      	beq.n	8001e00 <HAL_TIM_Base_Start_IT+0x44>
 8001df8:	f502 329a 	add.w	r2, r2, #78848	@ 0x13400
 8001dfc:	4293      	cmp	r3, r2
 8001dfe:	d104      	bne.n	8001e0a <HAL_TIM_Base_Start_IT+0x4e>
  {
    tmpsmcr = htim->Instance->SMCR & TIM_SMCR_SMS;
 8001e00:	689a      	ldr	r2, [r3, #8]
 8001e02:	f002 0207 	and.w	r2, r2, #7
    if (!IS_TIM_SLAVEMODE_TRIGGER_ENABLED(tmpsmcr))
 8001e06:	2a06      	cmp	r2, #6
 8001e08:	d003      	beq.n	8001e12 <HAL_TIM_Base_Start_IT+0x56>
    {
      __HAL_TIM_ENABLE(htim);
 8001e0a:	681a      	ldr	r2, [r3, #0]
 8001e0c:	f042 0201 	orr.w	r2, r2, #1
 8001e10:	601a      	str	r2, [r3, #0]
  {
    __HAL_TIM_ENABLE(htim);
  }

  /* Return function status */
  return HAL_OK;
 8001e12:	2000      	movs	r0, #0
 8001e14:	4770      	bx	lr
    return HAL_ERROR;
 8001e16:	2001      	movs	r0, #1
}
 8001e18:	4770      	bx	lr
 8001e1a:	bf00      	nop
 8001e1c:	40010000 	.word	0x40010000

08001e20 <HAL_TIM_OC_DelayElapsedCallback>:
/**
  * @brief  Output Compare callback in non-blocking mode
  * @param  htim TIM OC handle
  * @retval None
  */
__weak void HAL_TIM_OC_DelayElapsedCallback(TIM_HandleTypeDef *htim)
 8001e20:	4770      	bx	lr

08001e22 <HAL_TIM_IC_CaptureCallback>:
/**
  * @brief  Input Capture callback in non-blocking mode
  * @param  htim TIM IC handle
  * @retval None
  */
__weak void HAL_TIM_IC_CaptureCallback(TIM_HandleTypeDef *htim)
 8001e22:	4770      	bx	lr

08001e24 <HAL_TIM_PWM_PulseFinishedCallback>:
/**
  * @brief  PWM Pulse finished callback in non-blocking mode
  * @param  htim TIM handle
  * @retval None
  */
__weak void HAL_TIM_PWM_PulseFinishedCallback(TIM_HandleTypeDef *htim)
 8001e24:	4770      	bx	lr

08001e26 <HAL_TIM_TriggerCallback>:
/**
  * @brief  Hall Trigger detection callback in non-blocking mode
  * @param  htim TIM handle
  * @retval None
  */
__weak void HAL_TIM_TriggerCallback(TIM_HandleTypeDef *htim)
 8001e26:	4770      	bx	lr

08001e28 <HAL_TIM_IRQHandler>:
  uint32_t itsource = htim->Instance->DIER;
 8001e28:	6803      	ldr	r3, [r0, #0]
{
 8001e2a:	b570      	push	{r4, r5, r6, lr}
  uint32_t itsource = htim->Instance->DIER;
 8001e2c:	68dd      	ldr	r5, [r3, #12]
  uint32_t itflag   = htim->Instance->SR;
 8001e2e:	691e      	ldr	r6, [r3, #16]
  if ((itflag & (TIM_FLAG_CC1)) == (TIM_FLAG_CC1))
 8001e30:	07b1      	lsls	r1, r6, #30
{
 8001e32:	4604      	mov	r4, r0
  if ((itflag & (TIM_FLAG_CC1)) == (TIM_FLAG_CC1))
 8001e34:	d50d      	bpl.n	8001e52 <HAL_TIM_IRQHandler+0x2a>
    if ((itsource & (TIM_IT_CC1)) == (TIM_IT_CC1))
 8001e36:	07aa      	lsls	r2, r5, #30
 8001e38:	d50b      	bpl.n	8001e52 <HAL_TIM_IRQHandler+0x2a>
        __HAL_TIM_CLEAR_FLAG(htim, TIM_FLAG_CC1);
 8001e3a:	f06f 0202 	mvn.w	r2, #2
 8001e3e:	611a      	str	r2, [r3, #16]
        htim->Channel = HAL_TIM_ACTIVE_CHANNEL_1;
 8001e40:	2201      	movs	r2, #1
 8001e42:	7702      	strb	r2, [r0, #28]
        if ((htim->Instance->CCMR1 & TIM_CCMR1_CC1S) != 0x00U)
 8001e44:	699b      	ldr	r3, [r3, #24]
 8001e46:	079b      	lsls	r3, r3, #30
 8001e48:	d069      	beq.n	8001f1e <HAL_TIM_IRQHandler+0xf6>
          HAL_TIM_IC_CaptureCallback(htim);
 8001e4a:	f7ff ffea 	bl	8001e22 <HAL_TIM_IC_CaptureCallback>
        htim->Channel = HAL_TIM_ACTIVE_CHANNEL_CLEARED;
 8001e4e:	2300      	movs	r3, #0
 8001e50:	7723      	strb	r3, [r4, #28]
  if ((itflag & (TIM_FLAG_CC2)) == (TIM_FLAG_CC2))
 8001e52:	0771      	lsls	r1, r6, #29
 8001e54:	d510      	bpl.n	8001e78 <HAL_TIM_IRQHandler+0x50>
    if ((itsource & (TIM_IT_CC2)) == (TIM_IT_CC2))
 8001e56:	076a      	lsls	r2, r5, #29
 8001e58:	d50e      	bpl.n	8001e78 <HAL_TIM_IRQHandler+0x50>
      __HAL_TIM_CLEAR_FLAG(htim, TIM_FLAG_CC2);
 8001e5a:	6823      	ldr	r3, [r4, #0]
 8001e5c:	f06f 0204 	mvn.w	r2, #4
 8001e60:	611a      	str	r2, [r3, #16]
      htim->Channel = HAL_TIM_ACTIVE_CHANNEL_2;
 8001e62:	2202      	movs	r2, #2
 8001e64:	7722      	strb	r2, [r4, #28]
      if ((htim->Instance->CCMR1 & TIM_CCMR1_CC2S) != 0x00U)
 8001e66:	699b      	ldr	r3, [r3, #24]
 8001e68:	f413 7f40 	tst.w	r3, #768	@ 0x300
        HAL_TIM_IC_CaptureCallback(htim);
 8001e6c:	4620      	mov	r0, r4
      if ((htim->Instance->CCMR1 & TIM_CCMR1_CC2S) != 0x00U)
 8001e6e:	d05c      	beq.n	8001f2a <HAL_TIM_IRQHandler+0x102>
        HAL_TIM_IC_CaptureCallback(htim);
 8001e70:	f7ff ffd7 	bl	8001e22 <HAL_TIM_IC_CaptureCallback>
      htim->Channel = HAL_TIM_ACTIVE_CHANNEL_CLEARED;
 8001e74:	2300      	movs	r3, #0
 8001e76:	7723      	strb	r3, [r4, #28]
  if ((itflag & (TIM_FLAG_CC3)) == (TIM_FLAG_CC3))
 8001e78:	0733      	lsls	r3, r6, #28
 8001e7a:	d50f      	bpl.n	8001e9c <HAL_TIM_IRQHandler+0x74>
    if ((itsource & (TIM_IT_CC3)) == (TIM_IT_CC3))
 8001e7c:	0728      	lsls	r0, r5, #28
 8001e7e:	d50d      	bpl.n	8001e9c <HAL_TIM_IRQHandler+0x74>
      __HAL_TIM_CLEAR_FLAG(htim, TIM_FLAG_CC3);
 8001e80:	6823      	ldr	r3, [r4, #0]
 8001e82:	f06f 0208 	mvn.w	r2, #8
 8001e86:	611a      	str	r2, [r3, #16]
      htim->Channel = HAL_TIM_ACTIVE_CHANNEL_3;
 8001e88:	2204      	movs	r2, #4
 8001e8a:	7722      	strb	r2, [r4, #28]
      if ((htim->Instance->CCMR2 & TIM_CCMR2_CC3S) != 0x00U)
 8001e8c:	69db      	ldr	r3, [r3, #28]
 8001e8e:	0799      	lsls	r1, r3, #30
        HAL_TIM_IC_CaptureCallback(htim);
 8001e90:	4620      	mov	r0, r4
      if ((htim->Instance->CCMR2 & TIM_CCMR2_CC3S) != 0x00U)
 8001e92:	d050      	beq.n	8001f36 <HAL_TIM_IRQHandler+0x10e>
        HAL_TIM_IC_CaptureCallback(htim);
 8001e94:	f7ff ffc5 	bl	8001e22 <HAL_TIM_IC_CaptureCallback>
      htim->Channel = HAL_TIM_ACTIVE_CHANNEL_CLEARED;
 8001e98:	2300      	movs	r3, #0
 8001e9a:	7723      	strb	r3, [r4, #28]
  if ((itflag & (TIM_FLAG_CC4)) == (TIM_FLAG_CC4))
 8001e9c:	06f2      	lsls	r2, r6, #27
 8001e9e:	d510      	bpl.n	8001ec2 <HAL_TIM_IRQHandler+0x9a>
    if ((itsource & (TIM_IT_CC4)) == (TIM_IT_CC4))
 8001ea0:	06eb      	lsls	r3, r5, #27
 8001ea2:	d50e      	bpl.n	8001ec2 <HAL_TIM_IRQHandler+0x9a>
      __HAL_TIM_CLEAR_FLAG(htim, TIM_FLAG_CC4);
 8001ea4:	6823      	ldr	r3, [r4, #0]
 8001ea6:	f06f 0210 	mvn.w	r2, #16
 8001eaa:	611a      	str	r2, [r3, #16]
      htim->Channel = HAL_TIM_ACTIVE_CHANNEL_4;
 8001eac:	2208      	movs	r2, #8
 8001eae:	7722      	strb	r2, [r4, #28]
      if ((htim->Instance->CCMR2 & TIM_CCMR2_CC4S) != 0x00U)
 8001eb0:	69db      	ldr	r3, [r3, #28]
 8001eb2:	f413 7f40 	tst.w	r3, #768	@ 0x300
        HAL_TIM_IC_CaptureCallback(htim);
 8001eb6:	4620      	mov	r0, r4
      if ((htim->Instance->CCMR2 & TIM_CCMR2_CC4S) != 0x00U)
 8001eb8:	d043      	beq.n	8001f42 <HAL_TIM_IRQHandler+0x11a>
        HAL_TIM_IC_CaptureCallback(htim);
 8001eba:	f7ff ffb2 	bl	8001e22 <HAL_TIM_IC_CaptureCallback>
      htim->Channel = HAL_TIM_ACTIVE_CHANNEL_CLEARED;
 8001ebe:	2300      	movs	r3, #0
 8001ec0:	7723      	strb	r3, [r4, #28]
  if ((itflag & (TIM_FLAG_UPDATE)) == (TIM_FLAG_UPDATE))
 8001ec2:	07f0      	lsls	r0, r6, #31
 8001ec4:	d508      	bpl.n	8001ed8 <HAL_TIM_IRQHandler+0xb0>
    if ((itsource & (TIM_IT_UPDATE)) == (TIM_IT_UPDATE))
 8001ec6:	07e9      	lsls	r1, r5, #31
 8001ec8:	d506      	bpl.n	8001ed8 <HAL_TIM_IRQHandler+0xb0>
      __HAL_TIM_CLEAR_FLAG(htim, TIM_FLAG_UPDATE);
 8001eca:	6823      	ldr	r3, [r4, #0]
 8001ecc:	f06f 0201 	mvn.w	r2, #1
 8001ed0:	611a      	str	r2, [r3, #16]
      HAL_TIM_PeriodElapsedCallback(htim);
 8001ed2:	4620      	mov	r0, r4
 8001ed4:	f7ff fa32 	bl	800133c <HAL_TIM_PeriodElapsedCallback>
  if ((itflag & (TIM_FLAG_BREAK)) == (TIM_FLAG_BREAK))
 8001ed8:	0632      	lsls	r2, r6, #24
 8001eda:	d508      	bpl.n	8001eee <HAL_TIM_IRQHandler+0xc6>
    if ((itsource & (TIM_IT_BREAK)) == (TIM_IT_BREAK))
 8001edc:	062b      	lsls	r3, r5, #24
 8001ede:	d506      	bpl.n	8001eee <HAL_TIM_IRQHandler+0xc6>
      __HAL_TIM_CLEAR_FLAG(htim, TIM_FLAG_BREAK);
 8001ee0:	6823      	ldr	r3, [r4, #0]
 8001ee2:	f06f 0280 	mvn.w	r2, #128	@ 0x80
 8001ee6:	611a      	str	r2, [r3, #16]
      HAL_TIMEx_BreakCallback(htim);
 8001ee8:	4620      	mov	r0, r4
 8001eea:	f000 f89e 	bl	800202a <HAL_TIMEx_BreakCallback>
  if ((itflag & (TIM_FLAG_TRIGGER)) == (TIM_FLAG_TRIGGER))
 8001eee:	0670      	lsls	r0, r6, #25
 8001ef0:	d508      	bpl.n	8001f04 <HAL_TIM_IRQHandler+0xdc>
    if ((itsource & (TIM_IT_TRIGGER)) == (TIM_IT_TRIGGER))
 8001ef2:	0669      	lsls	r1, r5, #25
 8001ef4:	d506      	bpl.n	8001f04 <HAL_TIM_IRQHandler+0xdc>
      __HAL_TIM_CLEAR_FLAG(htim, TIM_FLAG_TRIGGER);
 8001ef6:	6823      	ldr	r3, [r4, #0]
 8001ef8:	f06f 0240 	mvn.w	r2, #64	@ 0x40
 8001efc:	611a      	str	r2, [r3, #16]
      HAL_TIM_TriggerCallback(htim);
 8001efe:	4620      	mov	r0, r4
 8001f00:	f7ff ff91 	bl	8001e26 <HAL_TIM_TriggerCallback>
  if ((itflag & (TIM_FLAG_COM)) == (TIM_FLAG_COM))
 8001f04:	06b2      	lsls	r2, r6, #26
 8001f06:	d522      	bpl.n	8001f4e <HAL_TIM_IRQHandler+0x126>
    if ((itsource & (TIM_IT_COM)) == (TIM_IT_COM))
 8001f08:	06ab      	lsls	r3, r5, #26
 8001f0a:	d520      	bpl.n	8001f4e <HAL_TIM_IRQHandler+0x126>
      __HAL_TIM_CLEAR_FLAG(htim, TIM_FLAG_COM);
 8001f0c:	6823      	ldr	r3, [r4, #0]
 8001f0e:	f06f 0220 	mvn.w	r2, #32
      HAL_TIMEx_CommutCallback(htim);
 8001f12:	4620      	mov	r0, r4
      __HAL_TIM_CLEAR_FLAG(htim, TIM_FLAG_COM);
 8001f14:	611a      	str	r2, [r3, #16]
}
 8001f16:	e8bd 4070 	ldmia.w	sp!, {r4, r5, r6, lr}
      HAL_TIMEx_CommutCallback(htim);
 8001f1a:	f000 b885 	b.w	8002028 <HAL_TIMEx_CommutCallback>
          HAL_TIM_OC_DelayElapsedCallback(htim);
 8001f1e:	f7ff ff7f 	bl	8001e20 <HAL_TIM_OC_DelayElapsedCallback>
          HAL_TIM_PWM_PulseFinishedCallback(htim);
 8001f22:	4620      	mov	r0, r4
 8001f24:	f7ff ff7e 	bl	8001e24 <HAL_TIM_PWM_PulseFinishedCallback>
 8001f28:	e791      	b.n	8001e4e <HAL_TIM_IRQHandler+0x26>
        HAL_TIM_OC_DelayElapsedCallback(htim);
 8001f2a:	f7ff ff79 	bl	8001e20 <HAL_TIM_OC_DelayElapsedCallback>
        HAL_TIM_PWM_PulseFinishedCallback(htim);
 8001f2e:	4620      	mov	r0, r4
 8001f30:	f7ff ff78 	bl	8001e24 <HAL_TIM_PWM_PulseFinishedCallback>
 8001f34:	e79e      	b.n	8001e74 <HAL_TIM_IRQHandler+0x4c>
        HAL_TIM_OC_DelayElapsedCallback(htim);
 8001f36:	f7ff ff73 	bl	8001e20 <HAL_TIM_OC_DelayElapsedCallback>
        HAL_TIM_PWM_PulseFinishedCallback(htim);
 8001f3a:	4620      	mov	r0, r4
 8001f3c:	f7ff ff72 	bl	8001e24 <HAL_TIM_PWM_PulseFinishedCallback>
 8001f40:	e7aa      	b.n	8001e98 <HAL_TIM_IRQHandler+0x70>
        HAL_TIM_OC_DelayElapsedCallback(htim);
 8001f42:	f7ff ff6d 	bl	8001e20 <HAL_TIM_OC_DelayElapsedCallback>
        HAL_TIM_PWM_PulseFinishedCallback(htim);
 8001f46:	4620      	mov	r0, r4
 8001f48:	f7ff ff6c 	bl	8001e24 <HAL_TIM_PWM_PulseFinishedCallback>
 8001f4c:	e7b7      	b.n	8001ebe <HAL_TIM_IRQHandler+0x96>
}
 8001f4e:	bd70      	pop	{r4, r5, r6, pc}

08001f50 <TIM_Base_SetConfig>:
{
  uint32_t tmpcr1;
  tmpcr1 = TIMx->CR1;

  /* Set TIM Time Base Unit parameters ---------------------------------------*/
  if (IS_TIM_COUNTER_MODE_SELECT_INSTANCE(TIMx))
 8001f50:	4a1d      	ldr	r2, [pc, #116]	@ (8001fc8 <TIM_Base_SetConfig+0x78>)
  tmpcr1 = TIMx->CR1;
 8001f52:	6803      	ldr	r3, [r0, #0]
  if (IS_TIM_COUNTER_MODE_SELECT_INSTANCE(TIMx))
 8001f54:	4290      	cmp	r0, r2
 8001f56:	d00e      	beq.n	8001f76 <TIM_Base_SetConfig+0x26>
 8001f58:	f1b0 4f80 	cmp.w	r0, #1073741824	@ 0x40000000
 8001f5c:	d00b      	beq.n	8001f76 <TIM_Base_SetConfig+0x26>
 8001f5e:	f5a2 427c 	sub.w	r2, r2, #64512	@ 0xfc00
 8001f62:	4290      	cmp	r0, r2
 8001f64:	d007      	beq.n	8001f76 <TIM_Base_SetConfig+0x26>
 8001f66:	f502 6280 	add.w	r2, r2, #1024	@ 0x400
 8001f6a:	4290      	cmp	r0, r2
 8001f6c:	d003      	beq.n	8001f76 <TIM_Base_SetConfig+0x26>
 8001f6e:	f502 6280 	add.w	r2, r2, #1024	@ 0x400
 8001f72:	4290      	cmp	r0, r2
 8001f74:	d108      	bne.n	8001f88 <TIM_Base_SetConfig+0x38>
  {
    /* Select the Counter Mode */
    tmpcr1 &= ~(TIM_CR1_DIR | TIM_CR1_CMS);
    tmpcr1 |= Structure->CounterMode;
 8001f76:	684a      	ldr	r2, [r1, #4]
    tmpcr1 &= ~(TIM_CR1_DIR | TIM_CR1_CMS);
 8001f78:	f023 0370 	bic.w	r3, r3, #112	@ 0x70
    tmpcr1 |= Structure->CounterMode;
 8001f7c:	4313      	orrs	r3, r2

  if (IS_TIM_CLOCK_DIVISION_INSTANCE(TIMx))
  {
    /* Set the clock division */
    tmpcr1 &= ~TIM_CR1_CKD;
    tmpcr1 |= (uint32_t)Structure->ClockDivision;
 8001f7e:	68ca      	ldr	r2, [r1, #12]
    tmpcr1 &= ~TIM_CR1_CKD;
 8001f80:	f423 7340 	bic.w	r3, r3, #768	@ 0x300
    tmpcr1 |= (uint32_t)Structure->ClockDivision;
 8001f84:	4313      	orrs	r3, r2
 8001f86:	e00a      	b.n	8001f9e <TIM_Base_SetConfig+0x4e>
  if (IS_TIM_CLOCK_DIVISION_INSTANCE(TIMx))
 8001f88:	4a10      	ldr	r2, [pc, #64]	@ (8001fcc <TIM_Base_SetConfig+0x7c>)
 8001f8a:	4290      	cmp	r0, r2
 8001f8c:	d0f7      	beq.n	8001f7e <TIM_Base_SetConfig+0x2e>
 8001f8e:	f502 6280 	add.w	r2, r2, #1024	@ 0x400
 8001f92:	4290      	cmp	r0, r2
 8001f94:	d0f3      	beq.n	8001f7e <TIM_Base_SetConfig+0x2e>
 8001f96:	f502 6280 	add.w	r2, r2, #1024	@ 0x400
 8001f9a:	4290      	cmp	r0, r2
 8001f9c:	d0ef      	beq.n	8001f7e <TIM_Base_SetConfig+0x2e>
  }

  /* Set the auto-reload preload */
  MODIFY_REG(tmpcr1, TIM_CR1_ARPE, Structure->AutoReloadPreload);
 8001f9e:	694a      	ldr	r2, [r1, #20]
 8001fa0:	f023 0380 	bic.w	r3, r3, #128	@ 0x80
 8001fa4:	4313      	orrs	r3, r2

  /* Set the Autoreload value */
  TIMx->ARR = (uint32_t)Structure->Period ;
 8001fa6:	688a      	ldr	r2, [r1, #8]
 8001fa8:	62c2      	str	r2, [r0, #44]	@ 0x2c

  /* Set the Prescaler value */
  TIMx->PSC = Structure->Prescaler;
 8001faa:	680a      	ldr	r2, [r1, #0]
 8001fac:	6282      	str	r2, [r0, #40]	@ 0x28

  if (IS_TIM_REPETITION_COUNTER_INSTANCE(TIMx))
 8001fae:	4a06      	ldr	r2, [pc, #24]	@ (8001fc8 <TIM_Base_SetConfig+0x78>)
 8001fb0:	4290      	cmp	r0, r2
  {
    /* Set the Repetition Counter value */
    TIMx->RCR = Structure->RepetitionCounter;
 8001fb2:	bf04      	itt	eq
 8001fb4:	690a      	ldreq	r2, [r1, #16]
 8001fb6:	6302      	streq	r2, [r0, #48]	@ 0x30
  }

  /* Disable Update Event (UEV) with Update Generation (UG)
     by changing Update Request Source (URS) to avoid Update flag (UIF) */
  SET_BIT(TIMx->CR1, TIM_CR1_URS);
 8001fb8:	6802      	ldr	r2, [r0, #0]
 8001fba:	f042 0204 	orr.w	r2, r2, #4
 8001fbe:	6002      	str	r2, [r0, #0]

  /* Generate an update event to reload the Prescaler
     and the repetition counter (only for advanced timer) value immediately */
  TIMx->EGR = TIM_EGR_UG;
 8001fc0:	2201      	movs	r2, #1
 8001fc2:	6142      	str	r2, [r0, #20]

  TIMx->CR1 = tmpcr1;
 8001fc4:	6003      	str	r3, [r0, #0]
}
 8001fc6:	4770      	bx	lr
 8001fc8:	40010000 	.word	0x40010000
 8001fcc:	40014000 	.word	0x40014000

08001fd0 <HAL_TIM_Base_Init>:
{
 8001fd0:	b510      	push	{r4, lr}
  if (htim == NULL)
 8001fd2:	4604      	mov	r4, r0
 8001fd4:	b330      	cbz	r0, 8002024 <HAL_TIM_Base_Init+0x54>
  if (htim->State == HAL_TIM_STATE_RESET)
 8001fd6:	f890 303d 	ldrb.w	r3, [r0, #61]	@ 0x3d
 8001fda:	f003 02ff 	and.w	r2, r3, #255	@ 0xff
 8001fde:	b91b      	cbnz	r3, 8001fe8 <HAL_TIM_Base_Init+0x18>
    htim->Lock = HAL_UNLOCKED;
 8001fe0:	f880 203c 	strb.w	r2, [r0, #60]	@ 0x3c
    HAL_TIM_Base_MspInit(htim);
 8001fe4:	f7ff fee8 	bl	8001db8 <HAL_TIM_Base_MspInit>
  htim->State = HAL_TIM_STATE_BUSY;
 8001fe8:	2302      	movs	r3, #2
  TIM_Base_SetConfig(htim->Instance, &htim->Init);
 8001fea:	6820      	ldr	r0, [r4, #0]
  htim->State = HAL_TIM_STATE_BUSY;
 8001fec:	f884 303d 	strb.w	r3, [r4, #61]	@ 0x3d
  TIM_Base_SetConfig(htim->Instance, &htim->Init);
 8001ff0:	1d21      	adds	r1, r4, #4
 8001ff2:	f7ff ffad 	bl	8001f50 <TIM_Base_SetConfig>
  htim->DMABurstState = HAL_DMA_BURST_STATE_READY;
 8001ff6:	2301      	movs	r3, #1
 8001ff8:	f884 3046 	strb.w	r3, [r4, #70]	@ 0x46
  return HAL_OK;
 8001ffc:	2000      	movs	r0, #0
  TIM_CHANNEL_STATE_SET_ALL(htim, HAL_TIM_CHANNEL_STATE_READY);
 8001ffe:	f884 303e 	strb.w	r3, [r4, #62]	@ 0x3e
 8002002:	f884 303f 	strb.w	r3, [r4, #63]	@ 0x3f
 8002006:	f884 3040 	strb.w	r3, [r4, #64]	@ 0x40
 800200a:	f884 3041 	strb.w	r3, [r4, #65]	@ 0x41
  TIM_CHANNEL_N_STATE_SET_ALL(htim, HAL_TIM_CHANNEL_STATE_READY);
 800200e:	f884 3042 	strb.w	r3, [r4, #66]	@ 0x42
 8002012:	f884 3043 	strb.w	r3, [r4, #67]	@ 0x43
 8002016:	f884 3044 	strb.w	r3, [r4, #68]	@ 0x44
 800201a:	f884 3045 	strb.w	r3, [r4, #69]	@ 0x45
  htim->State = HAL_TIM_STATE_READY;
 800201e:	f884 303d 	strb.w	r3, [r4, #61]	@ 0x3d
}
 8002022:	bd10      	pop	{r4, pc}
    return HAL_ERROR;
 8002024:	2001      	movs	r0, #1
 8002026:	e7fc      	b.n	8002022 <HAL_TIM_Base_Init+0x52>

08002028 <HAL_TIMEx_CommutCallback>:
/**
  * @brief  Commutation callback in non-blocking mode
  * @param  htim TIM handle
  * @retval None
  */
__weak void HAL_TIMEx_CommutCallback(TIM_HandleTypeDef *htim)
 8002028:	4770      	bx	lr

0800202a <HAL_TIMEx_BreakCallback>:
/**
  * @brief  Break detection callback in non-blocking mode
  * @param  htim TIM handle
  * @retval None
  */
__weak void HAL_TIMEx_BreakCallback(TIM_HandleTypeDef *htim)
 800202a:	4770      	bx	lr

0800202c <UART_SetConfig>:
  assert_param(IS_UART_MODE(huart->Init.Mode));

  /*-------------------------- USART CR2 Configuration -----------------------*/
  /* Configure the UART Stop Bits: Set STOP[13:12] bits
     according to huart->Init.StopBits value */
  MODIFY_REG(huart->Instance->CR2, USART_CR2_STOP, huart->Init.StopBits);
 800202c:	6802      	ldr	r2, [r0, #0]
 800202e:	68c1      	ldr	r1, [r0, #12]
{
 8002030:	b538      	push	{r3, r4, r5, lr}
  MODIFY_REG(huart->Instance->CR2, USART_CR2_STOP, huart->Init.StopBits);
 8002032:	6913      	ldr	r3, [r2, #16]
 8002034:	f423 5340 	bic.w	r3, r3, #12288	@ 0x3000
 8002038:	430b      	orrs	r3, r1
 800203a:	6113      	str	r3, [r2, #16]
{
 800203c:	4605      	mov	r5, r0
     Set the M bits according to huart->Init.WordLength value
     Set PCE and PS bits according to huart->Init.Parity value
     Set TE and RE bits according to huart->Init.Mode value
     Set OVER8 bit according to huart->Init.OverSampling value */

  tmpreg = (uint32_t)huart->Init.WordLength | huart->Init.Parity | huart->Init.Mode | huart->Init.OverSampling;
 800203e:	6883      	ldr	r3, [r0, #8]
 8002040:	6900      	ldr	r0, [r0, #16]
  MODIFY_REG(huart->Instance->CR1,
 8002042:	68d1      	ldr	r1, [r2, #12]
  tmpreg = (uint32_t)huart->Init.WordLength | huart->Init.Parity | huart->Init.Mode | huart->Init.OverSampling;
 8002044:	4303      	orrs	r3, r0
 8002046:	6968      	ldr	r0, [r5, #20]
 8002048:	4303      	orrs	r3, r0
 800204a:	69e8      	ldr	r0, [r5, #28]
  MODIFY_REG(huart->Instance->CR1,
 800204c:	f421 4116 	bic.w	r1, r1, #38400	@ 0x9600
 8002050:	f021 010c 	bic.w	r1, r1, #12
  tmpreg = (uint32_t)huart->Init.WordLength | huart->Init.Parity | huart->Init.Mode | huart->Init.OverSampling;
 8002054:	4303      	orrs	r3, r0
  MODIFY_REG(huart->Instance->CR1,
 8002056:	430b      	orrs	r3, r1
 8002058:	60d3      	str	r3, [r2, #12]
             (uint32_t)(USART_CR1_M | USART_CR1_PCE | USART_CR1_PS | USART_CR1_TE | USART_CR1_RE | USART_CR1_OVER8),
             tmpreg);

  /*-------------------------- USART CR3 Configuration -----------------------*/
  /* Configure the UART HFC: Set CTSE and RTSE bits according to huart->Init.HwFlowCtl value */
  MODIFY_REG(huart->Instance->CR3, (USART_CR3_RTSE | USART_CR3_CTSE), huart->Init.HwFlowCtl);
 800205a:	6953      	ldr	r3, [r2, #20]
 800205c:	69a9      	ldr	r1, [r5, #24]
 800205e:	f423 7340 	bic.w	r3, r3, #768	@ 0x300
 8002062:	430b      	orrs	r3, r1
 8002064:	6153      	str	r3, [r2, #20]
    if ((huart->Instance == USART1) || (huart->Instance == USART6) || (huart->Instance == UART9) || (huart->Instance == UART10))
    {
      pclk = HAL_RCC_GetPCLK2Freq();
    }
#elif defined(USART6)
    if ((huart->Instance == USART1) || (huart->Instance == USART6))
 8002066:	4b1f      	ldr	r3, [pc, #124]	@ (80020e4 <UART_SetConfig+0xb8>)
 8002068:	429a      	cmp	r2, r3
 800206a:	d003      	beq.n	8002074 <UART_SetConfig+0x48>
 800206c:	f503 6380 	add.w	r3, r3, #1024	@ 0x400
 8002070:	429a      	cmp	r2, r3
 8002072:	d124      	bne.n	80020be <UART_SetConfig+0x92>
    {
      pclk = HAL_RCC_GetPCLK2Freq();
 8002074:	f7ff fe72 	bl	8001d5c <HAL_RCC_GetPCLK2Freq>
    else
    {
      pclk = HAL_RCC_GetPCLK1Freq();
    }
  /*-------------------------- USART BRR Configuration ---------------------*/
  if (huart->Init.OverSampling == UART_OVERSAMPLING_8)
 8002078:	69ea      	ldr	r2, [r5, #28]
  {
    huart->Instance->BRR = UART_BRR_SAMPLING8(pclk, huart->Init.BaudRate);
 800207a:	2119      	movs	r1, #25
  if (huart->Init.OverSampling == UART_OVERSAMPLING_8)
 800207c:	f5b2 4f00 	cmp.w	r2, #32768	@ 0x8000
    huart->Instance->BRR = UART_BRR_SAMPLING8(pclk, huart->Init.BaudRate);
 8002080:	e9d5 4300 	ldrd	r4, r3, [r5]
 8002084:	fba0 0101 	umull	r0, r1, r0, r1
  if (huart->Init.OverSampling == UART_OVERSAMPLING_8)
 8002088:	d11c      	bne.n	80020c4 <UART_SetConfig+0x98>
    huart->Instance->BRR = UART_BRR_SAMPLING8(pclk, huart->Init.BaudRate);
 800208a:	18da      	adds	r2, r3, r3
 800208c:	f04f 0500 	mov.w	r5, #0
 8002090:	eb45 0305 	adc.w	r3, r5, r5
 8002094:	f7fe fe00 	bl	8000c98 <__aeabi_uldivmod>
 8002098:	2264      	movs	r2, #100	@ 0x64
 800209a:	fbb0 f1f2 	udiv	r1, r0, r2
 800209e:	fb02 0311 	mls	r3, r2, r1, r0
 80020a2:	00db      	lsls	r3, r3, #3
 80020a4:	3332      	adds	r3, #50	@ 0x32
 80020a6:	fbb3 f3f2 	udiv	r3, r3, r2
 80020aa:	f003 0207 	and.w	r2, r3, #7
 80020ae:	005b      	lsls	r3, r3, #1
 80020b0:	eb02 1201 	add.w	r2, r2, r1, lsl #4
 80020b4:	f403 73f8 	and.w	r3, r3, #496	@ 0x1f0
 80020b8:	4413      	add	r3, r2
  }
  else
  {
    huart->Instance->BRR = UART_BRR_SAMPLING16(pclk, huart->Init.BaudRate);
 80020ba:	60a3      	str	r3, [r4, #8]
  }
}
 80020bc:	bd38      	pop	{r3, r4, r5, pc}
      pclk = HAL_RCC_GetPCLK1Freq();
 80020be:	f7ff fe3d 	bl	8001d3c <HAL_RCC_GetPCLK1Freq>
 80020c2:	e7d9      	b.n	8002078 <UART_SetConfig+0x4c>
    huart->Instance->BRR = UART_BRR_SAMPLING16(pclk, huart->Init.BaudRate);
 80020c4:	009a      	lsls	r2, r3, #2
 80020c6:	0f9b      	lsrs	r3, r3, #30
 80020c8:	f7fe fde6 	bl	8000c98 <__aeabi_uldivmod>
 80020cc:	2264      	movs	r2, #100	@ 0x64
 80020ce:	fbb0 f1f2 	udiv	r1, r0, r2
 80020d2:	fb02 0311 	mls	r3, r2, r1, r0
 80020d6:	011b      	lsls	r3, r3, #4
 80020d8:	3332      	adds	r3, #50	@ 0x32
 80020da:	fbb3 f3f2 	udiv	r3, r3, r2
 80020de:	eb03 1301 	add.w	r3, r3, r1, lsl #4
 80020e2:	e7ea      	b.n	80020ba <UART_SetConfig+0x8e>
 80020e4:	40011000 	.word	0x40011000

080020e8 <HAL_UART_Init>:
{
 80020e8:	b510      	push	{r4, lr}
  if (huart == NULL)
 80020ea:	4604      	mov	r4, r0
 80020ec:	b348      	cbz	r0, 8002142 <HAL_UART_Init+0x5a>
  if (huart->gState == HAL_UART_STATE_RESET)
 80020ee:	f890 3041 	ldrb.w	r3, [r0, #65]	@ 0x41
 80020f2:	f003 02ff 	and.w	r2, r3, #255	@ 0xff
 80020f6:	b91b      	cbnz	r3, 8002100 <HAL_UART_Init+0x18>
    huart->Lock = HAL_UNLOCKED;
 80020f8:	f880 2040 	strb.w	r2, [r0, #64]	@ 0x40
    HAL_UART_MspInit(huart);
 80020fc:	f7ff f948 	bl	8001390 <HAL_UART_MspInit>
  __HAL_UART_DISABLE(huart);
 8002100:	6822      	ldr	r2, [r4, #0]
  huart->gState = HAL_UART_STATE_BUSY;
 8002102:	2324      	movs	r3, #36	@ 0x24
 8002104:	f884 3041 	strb.w	r3, [r4, #65]	@ 0x41
  __HAL_UART_DISABLE(huart);
 8002108:	68d3      	ldr	r3, [r2, #12]
 800210a:	f423 5300 	bic.w	r3, r3, #8192	@ 0x2000
 800210e:	60d3      	str	r3, [r2, #12]
  UART_SetConfig(huart);
 8002110:	4620      	mov	r0, r4
 8002112:	f7ff ff8b 	bl	800202c <UART_SetConfig>
  CLEAR_BIT(huart->Instance->CR2, (USART_CR2_LINEN | USART_CR2_CLKEN));
 8002116:	6823      	ldr	r3, [r4, #0]
 8002118:	691a      	ldr	r2, [r3, #16]
 800211a:	f422 4290 	bic.w	r2, r2, #18432	@ 0x4800
 800211e:	611a      	str	r2, [r3, #16]
  CLEAR_BIT(huart->Instance->CR3, (USART_CR3_SCEN | USART_CR3_HDSEL | USART_CR3_IREN));
 8002120:	695a      	ldr	r2, [r3, #20]
 8002122:	f022 022a 	bic.w	r2, r2, #42	@ 0x2a
 8002126:	615a      	str	r2, [r3, #20]
  __HAL_UART_ENABLE(huart);
 8002128:	68da      	ldr	r2, [r3, #12]
 800212a:	f442 5200 	orr.w	r2, r2, #8192	@ 0x2000
 800212e:	60da      	str	r2, [r3, #12]
  huart->ErrorCode = HAL_UART_ERROR_NONE;
 8002130:	2000      	movs	r0, #0
  huart->gState = HAL_UART_STATE_READY;
 8002132:	2320      	movs	r3, #32
  huart->ErrorCode = HAL_UART_ERROR_NONE;
 8002134:	6460      	str	r0, [r4, #68]	@ 0x44
  huart->gState = HAL_UART_STATE_READY;
 8002136:	f884 3041 	strb.w	r3, [r4, #65]	@ 0x41
  huart->RxState = HAL_UART_STATE_READY;
 800213a:	f884 3042 	strb.w	r3, [r4, #66]	@ 0x42
  huart->RxEventType = HAL_UART_RXEVENT_TC;
 800213e:	6360      	str	r0, [r4, #52]	@ 0x34
}
 8002140:	bd10      	pop	{r4, pc}
    return HAL_ERROR;
 8002142:	2001      	movs	r0, #1
 8002144:	e7fc      	b.n	8002140 <HAL_UART_Init+0x58>

08002146 <SysTick_Handler>:

/*
  SysTick handler implementation that also clears overflow flag.
*/
#if (USE_CUSTOM_SYSTICK_HANDLER_IMPLEMENTATION == 0)
void SysTick_Handler (void) {
 8002146:	b508      	push	{r3, lr}
  /* Clear overflow flag */
  SysTick->CTRL;
 8002148:	f04f 23e0 	mov.w	r3, #3758153728	@ 0xe000e000
 800214c:	691b      	ldr	r3, [r3, #16]

  if (xTaskGetSchedulerState() != taskSCHEDULER_NOT_STARTED) {
 800214e:	f001 fa15 	bl	800357c <xTaskGetSchedulerState>
 8002152:	2801      	cmp	r0, #1
 8002154:	d003      	beq.n	800215e <SysTick_Handler+0x18>
    /* Call tick handler */
    xPortSysTickHandler();
  }
}
 8002156:	e8bd 4008 	ldmia.w	sp!, {r3, lr}
    xPortSysTickHandler();
 800215a:	f001 bdf3 	b.w	8003d44 <xPortSysTickHandler>
}
 800215e:	bd08      	pop	{r3, pc}

08002160 <osKernelInitialize>:
 */
__STATIC_FORCEINLINE uint32_t __get_IPSR(void)
{
  uint32_t result;

  __ASM volatile ("MRS %0, ipsr" : "=r" (result) );
 8002160:	f3ef 8305 	mrs	r3, IPSR
/*---------------------------------------------------------------------------*/

osStatus_t osKernelInitialize (void) {
  osStatus_t stat;

  if (IS_IRQ()) {
 8002164:	b92b      	cbnz	r3, 8002172 <osKernelInitialize+0x12>
    stat = osErrorISR;
  }
  else {
    if (KernelState == osKernelInactive) {
 8002166:	4b06      	ldr	r3, [pc, #24]	@ (8002180 <osKernelInitialize+0x20>)
 8002168:	6818      	ldr	r0, [r3, #0]
 800216a:	b928      	cbnz	r0, 8002178 <osKernelInitialize+0x18>
        EvrFreeRTOSSetup(0U);
      #endif
      #if defined(USE_FreeRTOS_HEAP_5) && (HEAP_5_REGION_SETUP == 1)
        vPortDefineHeapRegions (configHEAP_5_REGIONS);
      #endif
      KernelState = osKernelReady;
 800216c:	2201      	movs	r2, #1
 800216e:	601a      	str	r2, [r3, #0]
      stat = osOK;
 8002170:	4770      	bx	lr
    stat = osErrorISR;
 8002172:	f06f 0005 	mvn.w	r0, #5
 8002176:	4770      	bx	lr
    } else {
      stat = osError;
 8002178:	f04f 30ff 	mov.w	r0, #4294967295
    }
  }

  return (stat);
}
 800217c:	4770      	bx	lr
 800217e:	bf00      	nop
 8002180:	20000a24 	.word	0x20000a24

08002184 <vApplicationGetIdleTaskMemory>:
__WEAK void vApplicationGetIdleTaskMemory (StaticTask_t **ppxIdleTaskTCBBuffer, StackType_t **ppxIdleTaskStackBuffer, uint32_t *pulIdleTaskStackSize) {
  /* Idle task control block and stack */
  static StaticTask_t Idle_TCB;
  static StackType_t  Idle_Stack[configMINIMAL_STACK_SIZE];

  *ppxIdleTaskTCBBuffer   = &Idle_TCB;
 8002184:	4b03      	ldr	r3, [pc, #12]	@ (8002194 <vApplicationGetIdleTaskMemory+0x10>)
 8002186:	6003      	str	r3, [r0, #0]
  *ppxIdleTaskStackBuffer = &Idle_Stack[0];
 8002188:	4b03      	ldr	r3, [pc, #12]	@ (8002198 <vApplicationGetIdleTaskMemory+0x14>)
 800218a:	600b      	str	r3, [r1, #0]
  *pulIdleTaskStackSize   = (uint32_t)configMINIMAL_STACK_SIZE;
 800218c:	2380      	movs	r3, #128	@ 0x80
 800218e:	6013      	str	r3, [r2, #0]
}
 8002190:	4770      	bx	lr
 8002192:	bf00      	nop
 8002194:	2000097c 	.word	0x2000097c
 8002198:	2000077c 	.word	0x2000077c

0800219c <vApplicationGetTimerTaskMemory>:
__WEAK void vApplicationGetTimerTaskMemory (StaticTask_t **ppxTimerTaskTCBBuffer, StackType_t **ppxTimerTaskStackBuffer, uint32_t *pulTimerTaskStackSize) {
  /* Timer task control block and stack */
  static StaticTask_t Timer_TCB;
  static StackType_t  Timer_Stack[configTIMER_TASK_STACK_DEPTH];

  *ppxTimerTaskTCBBuffer   = &Timer_TCB;
 800219c:	4b03      	ldr	r3, [pc, #12]	@ (80021ac <vApplicationGetTimerTaskMemory+0x10>)
 800219e:	6003      	str	r3, [r0, #0]
  *ppxTimerTaskStackBuffer = &Timer_Stack[0];
 80021a0:	4b03      	ldr	r3, [pc, #12]	@ (80021b0 <vApplicationGetTimerTaskMemory+0x14>)
 80021a2:	600b      	str	r3, [r1, #0]
  *pulTimerTaskStackSize   = (uint32_t)configTIMER_TASK_STACK_DEPTH;
 80021a4:	f44f 7380 	mov.w	r3, #256	@ 0x100
 80021a8:	6013      	str	r3, [r2, #0]
}
 80021aa:	4770      	bx	lr
 80021ac:	200006d4 	.word	0x200006d4
 80021b0:	200002d4 	.word	0x200002d4

080021b4 <vListInitialise>:
void vListInitialise( List_t * const pxList )
{
	/* The list structure contains a list item which is used to mark the
	end of the list.  To initialise the list the list end is inserted
	as the only list entry. */
	pxList->pxIndex = ( ListItem_t * ) &( pxList->xListEnd );			/*lint !e826 !e740 !e9087 The mini list structure is used as the list end to save RAM.  This is checked and valid. */
 80021b4:	f100 0308 	add.w	r3, r0, #8

	/* The list end value is the highest possible value in the list to
	ensure it remains at the end of the list. */
	pxList->xListEnd.xItemValue = portMAX_DELAY;
 80021b8:	f04f 32ff 	mov.w	r2, #4294967295

	/* The list end next and previous pointers point to itself so we know
	when the list is empty. */
	pxList->xListEnd.pxNext = ( ListItem_t * ) &( pxList->xListEnd );	/*lint !e826 !e740 !e9087 The mini list structure is used as the list end to save RAM.  This is checked and valid. */
 80021bc:	e9c0 2302 	strd	r2, r3, [r0, #8]
	pxList->pxIndex = ( ListItem_t * ) &( pxList->xListEnd );			/*lint !e826 !e740 !e9087 The mini list structure is used as the list end to save RAM.  This is checked and valid. */
 80021c0:	6043      	str	r3, [r0, #4]
	pxList->xListEnd.pxPrevious = ( ListItem_t * ) &( pxList->xListEnd );/*lint !e826 !e740 !e9087 The mini list structure is used as the list end to save RAM.  This is checked and valid. */
 80021c2:	6103      	str	r3, [r0, #16]

	pxList->uxNumberOfItems = ( UBaseType_t ) 0U;
 80021c4:	2300      	movs	r3, #0
 80021c6:	6003      	str	r3, [r0, #0]

	/* Write known values into the list if
	configUSE_LIST_DATA_INTEGRITY_CHECK_BYTES is set to 1. */
	listSET_LIST_INTEGRITY_CHECK_1_VALUE( pxList );
	listSET_LIST_INTEGRITY_CHECK_2_VALUE( pxList );
}
 80021c8:	4770      	bx	lr

080021ca <vListInitialiseItem>:
/*-----------------------------------------------------------*/

void vListInitialiseItem( ListItem_t * const pxItem )
{
	/* Make sure the list item is not recorded as being on a list. */
	pxItem->pxContainer = NULL;
 80021ca:	2300      	movs	r3, #0
 80021cc:	6103      	str	r3, [r0, #16]

	/* Write known values into the list item if
	configUSE_LIST_DATA_INTEGRITY_CHECK_BYTES is set to 1. */
	listSET_FIRST_LIST_ITEM_INTEGRITY_CHECK_VALUE( pxItem );
	listSET_SECOND_LIST_ITEM_INTEGRITY_CHECK_VALUE( pxItem );
}
 80021ce:	4770      	bx	lr

080021d0 <vListInsertEnd>:
/*-----------------------------------------------------------*/

void vListInsertEnd( List_t * const pxList, ListItem_t * const pxNewListItem )
{
ListItem_t * const pxIndex = pxList->pxIndex;
 80021d0:	6843      	ldr	r3, [r0, #4]
	listTEST_LIST_ITEM_INTEGRITY( pxNewListItem );

	/* Insert a new list item into pxList, but rather than sort the list,
	makes the new list item the last item to be removed by a call to
	listGET_OWNER_OF_NEXT_ENTRY(). */
	pxNewListItem->pxNext = pxIndex;
 80021d2:	604b      	str	r3, [r1, #4]
	pxNewListItem->pxPrevious = pxIndex->pxPrevious;
 80021d4:	689a      	ldr	r2, [r3, #8]
 80021d6:	608a      	str	r2, [r1, #8]

	/* Only used during decision coverage testing. */
	mtCOVERAGE_TEST_DELAY();

	pxIndex->pxPrevious->pxNext = pxNewListItem;
 80021d8:	6051      	str	r1, [r2, #4]
	pxIndex->pxPrevious = pxNewListItem;
 80021da:	6099      	str	r1, [r3, #8]

	/* Remember which list the item is in. */
	pxNewListItem->pxContainer = pxList;

	( pxList->uxNumberOfItems )++;
 80021dc:	6803      	ldr	r3, [r0, #0]
	pxNewListItem->pxContainer = pxList;
 80021de:	6108      	str	r0, [r1, #16]
	( pxList->uxNumberOfItems )++;
 80021e0:	3301      	adds	r3, #1
 80021e2:	6003      	str	r3, [r0, #0]
}
 80021e4:	4770      	bx	lr

080021e6 <vListInsert>:
/*-----------------------------------------------------------*/

void vListInsert( List_t * const pxList, ListItem_t * const pxNewListItem )
{
 80021e6:	b530      	push	{r4, r5, lr}
ListItem_t *pxIterator;
const TickType_t xValueOfInsertion = pxNewListItem->xItemValue;
 80021e8:	680c      	ldr	r4, [r1, #0]
	new list item should be placed after it.  This ensures that TCBs which are
	stored in ready lists (all of which have the same xItemValue value) get a
	share of the CPU.  However, if the xItemValue is the same as the back marker
	the iteration loop below will not end.  Therefore the value is checked
	first, and the algorithm slightly modified if necessary. */
	if( xValueOfInsertion == portMAX_DELAY )
 80021ea:	1c63      	adds	r3, r4, #1
 80021ec:	d10a      	bne.n	8002204 <vListInsert+0x1e>
	{
		pxIterator = pxList->xListEnd.pxPrevious;
 80021ee:	6903      	ldr	r3, [r0, #16]
			/* There is nothing to do here, just iterating to the wanted
			insertion position. */
		}
	}

	pxNewListItem->pxNext = pxIterator->pxNext;
 80021f0:	685a      	ldr	r2, [r3, #4]
 80021f2:	604a      	str	r2, [r1, #4]
	pxNewListItem->pxNext->pxPrevious = pxNewListItem;
 80021f4:	6091      	str	r1, [r2, #8]
	pxNewListItem->pxPrevious = pxIterator;
 80021f6:	608b      	str	r3, [r1, #8]
	pxIterator->pxNext = pxNewListItem;
 80021f8:	6059      	str	r1, [r3, #4]

	/* Remember which list the item is in.  This allows fast removal of the
	item later. */
	pxNewListItem->pxContainer = pxList;

	( pxList->uxNumberOfItems )++;
 80021fa:	6803      	ldr	r3, [r0, #0]
	pxNewListItem->pxContainer = pxList;
 80021fc:	6108      	str	r0, [r1, #16]
	( pxList->uxNumberOfItems )++;
 80021fe:	3301      	adds	r3, #1
 8002200:	6003      	str	r3, [r0, #0]
}
 8002202:	bd30      	pop	{r4, r5, pc}
		for( pxIterator = ( ListItem_t * ) &( pxList->xListEnd ); pxIterator->pxNext->xItemValue <= xValueOfInsertion; pxIterator = pxIterator->pxNext ) /*lint !e826 !e740 !e9087 The mini list structure is used as the list end to save RAM.  This is checked and valid. *//*lint !e440 The iterator moves to a different value, not xValueOfInsertion. */
 8002204:	f100 0208 	add.w	r2, r0, #8
 8002208:	4613      	mov	r3, r2
 800220a:	6852      	ldr	r2, [r2, #4]
 800220c:	6815      	ldr	r5, [r2, #0]
 800220e:	42a5      	cmp	r5, r4
 8002210:	d9fa      	bls.n	8002208 <vListInsert+0x22>
 8002212:	e7ed      	b.n	80021f0 <vListInsert+0xa>

08002214 <uxListRemove>:
{
/* The list item knows which list it is in.  Obtain the list from the list
item. */
List_t * const pxList = pxItemToRemove->pxContainer;

	pxItemToRemove->pxNext->pxPrevious = pxItemToRemove->pxPrevious;
 8002214:	e9d0 1201 	ldrd	r1, r2, [r0, #4]
List_t * const pxList = pxItemToRemove->pxContainer;
 8002218:	6903      	ldr	r3, [r0, #16]
	pxItemToRemove->pxNext->pxPrevious = pxItemToRemove->pxPrevious;
 800221a:	608a      	str	r2, [r1, #8]
	pxItemToRemove->pxPrevious->pxNext = pxItemToRemove->pxNext;
 800221c:	6051      	str	r1, [r2, #4]

	/* Only used during decision coverage testing. */
	mtCOVERAGE_TEST_DELAY();

	/* Make sure the index is left pointing to a valid item. */
	if( pxList->pxIndex == pxItemToRemove )
 800221e:	6859      	ldr	r1, [r3, #4]
 8002220:	4281      	cmp	r1, r0
	{
		pxList->pxIndex = pxItemToRemove->pxPrevious;
 8002222:	bf08      	it	eq
 8002224:	605a      	streq	r2, [r3, #4]
	else
	{
		mtCOVERAGE_TEST_MARKER();
	}

	pxItemToRemove->pxContainer = NULL;
 8002226:	2200      	movs	r2, #0
 8002228:	6102      	str	r2, [r0, #16]
	( pxList->uxNumberOfItems )--;
 800222a:	681a      	ldr	r2, [r3, #0]
 800222c:	3a01      	subs	r2, #1
 800222e:	601a      	str	r2, [r3, #0]

	return pxList->uxNumberOfItems;
 8002230:	6818      	ldr	r0, [r3, #0]
}
 8002232:	4770      	bx	lr

08002234 <prvIsQueueEmpty>:
	taskEXIT_CRITICAL();
}
/*-----------------------------------------------------------*/

static BaseType_t prvIsQueueEmpty( const Queue_t *pxQueue )
{
 8002234:	b510      	push	{r4, lr}
 8002236:	4604      	mov	r4, r0
BaseType_t xReturn;

	taskENTER_CRITICAL();
 8002238:	f001 fd1c 	bl	8003c74 <vPortEnterCritical>
	{
		if( pxQueue->uxMessagesWaiting == ( UBaseType_t )  0 )
 800223c:	6ba4      	ldr	r4, [r4, #56]	@ 0x38
		else
		{
			xReturn = pdFALSE;
		}
	}
	taskEXIT_CRITICAL();
 800223e:	f001 fd39 	bl	8003cb4 <vPortExitCritical>

	return xReturn;
}
 8002242:	fab4 f084 	clz	r0, r4
 8002246:	0940      	lsrs	r0, r0, #5
 8002248:	bd10      	pop	{r4, pc}

0800224a <prvCopyDataToQueue>:
{
 800224a:	b570      	push	{r4, r5, r6, lr}
 800224c:	4616      	mov	r6, r2
	if( pxQueue->uxItemSize == ( UBaseType_t ) 0 )
 800224e:	6c02      	ldr	r2, [r0, #64]	@ 0x40
	uxMessagesWaiting = pxQueue->uxMessagesWaiting;
 8002250:	6b85      	ldr	r5, [r0, #56]	@ 0x38
{
 8002252:	4604      	mov	r4, r0
	if( pxQueue->uxItemSize == ( UBaseType_t ) 0 )
 8002254:	b942      	cbnz	r2, 8002268 <prvCopyDataToQueue+0x1e>
			if( pxQueue->uxQueueType == queueQUEUE_IS_MUTEX )
 8002256:	6806      	ldr	r6, [r0, #0]
 8002258:	b99e      	cbnz	r6, 8002282 <prvCopyDataToQueue+0x38>
				xReturn = xTaskPriorityDisinherit( pxQueue->u.xSemaphore.xMutexHolder );
 800225a:	6880      	ldr	r0, [r0, #8]
 800225c:	f001 f99e 	bl	800359c <xTaskPriorityDisinherit>
				pxQueue->u.xSemaphore.xMutexHolder = NULL;
 8002260:	60a6      	str	r6, [r4, #8]
	pxQueue->uxMessagesWaiting = uxMessagesWaiting + ( UBaseType_t ) 1;
 8002262:	3501      	adds	r5, #1
 8002264:	63a5      	str	r5, [r4, #56]	@ 0x38
}
 8002266:	bd70      	pop	{r4, r5, r6, pc}
	else if( xPosition == queueSEND_TO_BACK )
 8002268:	b96e      	cbnz	r6, 8002286 <prvCopyDataToQueue+0x3c>
		( void ) memcpy( ( void * ) pxQueue->pcWriteTo, pvItemToQueue, ( size_t ) pxQueue->uxItemSize ); /*lint !e961 !e418 !e9087 MISRA exception as the casts are only redundant for some ports, plus previous logic ensures a null pointer can only be passed to memcpy() if the copy size is 0.  Cast to void required by function signature and safe as no alignment requirement and copy length specified in bytes. */
 800226a:	6840      	ldr	r0, [r0, #4]
 800226c:	f002 ffa7 	bl	80051be <memcpy>
		pxQueue->pcWriteTo += pxQueue->uxItemSize; /*lint !e9016 Pointer arithmetic on char types ok, especially in this use case where it is the clearest way of conveying intent. */
 8002270:	6863      	ldr	r3, [r4, #4]
 8002272:	6c22      	ldr	r2, [r4, #64]	@ 0x40
 8002274:	4413      	add	r3, r2
		if( pxQueue->pcWriteTo >= pxQueue->u.xQueue.pcTail ) /*lint !e946 MISRA exception justified as comparison of pointers is the cleanest solution. */
 8002276:	68a2      	ldr	r2, [r4, #8]
		pxQueue->pcWriteTo += pxQueue->uxItemSize; /*lint !e9016 Pointer arithmetic on char types ok, especially in this use case where it is the clearest way of conveying intent. */
 8002278:	6063      	str	r3, [r4, #4]
		if( pxQueue->pcWriteTo >= pxQueue->u.xQueue.pcTail ) /*lint !e946 MISRA exception justified as comparison of pointers is the cleanest solution. */
 800227a:	4293      	cmp	r3, r2
			pxQueue->pcWriteTo = pxQueue->pcHead;
 800227c:	bf24      	itt	cs
 800227e:	6823      	ldrcs	r3, [r4, #0]
 8002280:	6063      	strcs	r3, [r4, #4]
BaseType_t xReturn = pdFALSE;
 8002282:	2000      	movs	r0, #0
 8002284:	e7ed      	b.n	8002262 <prvCopyDataToQueue+0x18>
		( void ) memcpy( ( void * ) pxQueue->u.xQueue.pcReadFrom, pvItemToQueue, ( size_t ) pxQueue->uxItemSize ); /*lint !e961 !e9087 !e418 MISRA exception as the casts are only redundant for some ports.  Cast to void required by function signature and safe as no alignment requirement and copy length specified in bytes.  Assert checks null pointer only used when length is 0. */
 8002286:	68c0      	ldr	r0, [r0, #12]
 8002288:	f002 ff99 	bl	80051be <memcpy>
		pxQueue->u.xQueue.pcReadFrom -= pxQueue->uxItemSize;
 800228c:	6c22      	ldr	r2, [r4, #64]	@ 0x40
 800228e:	68e3      	ldr	r3, [r4, #12]
 8002290:	4251      	negs	r1, r2
 8002292:	1a9b      	subs	r3, r3, r2
		if( pxQueue->u.xQueue.pcReadFrom < pxQueue->pcHead ) /*lint !e946 MISRA exception justified as comparison of pointers is the cleanest solution. */
 8002294:	6822      	ldr	r2, [r4, #0]
		pxQueue->u.xQueue.pcReadFrom -= pxQueue->uxItemSize;
 8002296:	60e3      	str	r3, [r4, #12]
		if( pxQueue->u.xQueue.pcReadFrom < pxQueue->pcHead ) /*lint !e946 MISRA exception justified as comparison of pointers is the cleanest solution. */
 8002298:	4293      	cmp	r3, r2
			pxQueue->u.xQueue.pcReadFrom = ( pxQueue->u.xQueue.pcTail - pxQueue->uxItemSize );
 800229a:	bf3e      	ittt	cc
 800229c:	68a3      	ldrcc	r3, [r4, #8]
 800229e:	185b      	addcc	r3, r3, r1
 80022a0:	60e3      	strcc	r3, [r4, #12]
		if( xPosition == queueOVERWRITE )
 80022a2:	2e02      	cmp	r6, #2
 80022a4:	d1ed      	bne.n	8002282 <prvCopyDataToQueue+0x38>
			if( uxMessagesWaiting > ( UBaseType_t ) 0 )
 80022a6:	b10d      	cbz	r5, 80022ac <prvCopyDataToQueue+0x62>
				--uxMessagesWaiting;
 80022a8:	3d01      	subs	r5, #1
 80022aa:	e7ea      	b.n	8002282 <prvCopyDataToQueue+0x38>
BaseType_t xReturn = pdFALSE;
 80022ac:	4628      	mov	r0, r5
 80022ae:	e7d8      	b.n	8002262 <prvCopyDataToQueue+0x18>

080022b0 <prvCopyDataFromQueue>:
{
 80022b0:	4603      	mov	r3, r0
 80022b2:	b410      	push	{r4}
	if( pxQueue->uxItemSize != ( UBaseType_t ) 0 )
 80022b4:	6c1a      	ldr	r2, [r3, #64]	@ 0x40
{
 80022b6:	4608      	mov	r0, r1
	if( pxQueue->uxItemSize != ( UBaseType_t ) 0 )
 80022b8:	b16a      	cbz	r2, 80022d6 <prvCopyDataFromQueue+0x26>
		pxQueue->u.xQueue.pcReadFrom += pxQueue->uxItemSize; /*lint !e9016 Pointer arithmetic on char types ok, especially in this use case where it is the clearest way of conveying intent. */
 80022ba:	68dc      	ldr	r4, [r3, #12]
		if( pxQueue->u.xQueue.pcReadFrom >= pxQueue->u.xQueue.pcTail ) /*lint !e946 MISRA exception justified as use of the relational operator is the cleanest solutions. */
 80022bc:	6899      	ldr	r1, [r3, #8]
		pxQueue->u.xQueue.pcReadFrom += pxQueue->uxItemSize; /*lint !e9016 Pointer arithmetic on char types ok, especially in this use case where it is the clearest way of conveying intent. */
 80022be:	4414      	add	r4, r2
		if( pxQueue->u.xQueue.pcReadFrom >= pxQueue->u.xQueue.pcTail ) /*lint !e946 MISRA exception justified as use of the relational operator is the cleanest solutions. */
 80022c0:	428c      	cmp	r4, r1
			pxQueue->u.xQueue.pcReadFrom = pxQueue->pcHead;
 80022c2:	bf28      	it	cs
 80022c4:	6819      	ldrcs	r1, [r3, #0]
		pxQueue->u.xQueue.pcReadFrom += pxQueue->uxItemSize; /*lint !e9016 Pointer arithmetic on char types ok, especially in this use case where it is the clearest way of conveying intent. */
 80022c6:	60dc      	str	r4, [r3, #12]
			pxQueue->u.xQueue.pcReadFrom = pxQueue->pcHead;
 80022c8:	bf28      	it	cs
 80022ca:	60d9      	strcs	r1, [r3, #12]
		( void ) memcpy( ( void * ) pvBuffer, ( void * ) pxQueue->u.xQueue.pcReadFrom, ( size_t ) pxQueue->uxItemSize ); /*lint !e961 !e418 !e9087 MISRA exception as the casts are only redundant for some ports.  Also previous logic ensures a null pointer can only be passed to memcpy() when the count is 0.  Cast to void required by function signature and safe as no alignment requirement and copy length specified in bytes. */
 80022cc:	68d9      	ldr	r1, [r3, #12]
}
 80022ce:	f85d 4b04 	ldr.w	r4, [sp], #4
		( void ) memcpy( ( void * ) pvBuffer, ( void * ) pxQueue->u.xQueue.pcReadFrom, ( size_t ) pxQueue->uxItemSize ); /*lint !e961 !e418 !e9087 MISRA exception as the casts are only redundant for some ports.  Also previous logic ensures a null pointer can only be passed to memcpy() when the count is 0.  Cast to void required by function signature and safe as no alignment requirement and copy length specified in bytes. */
 80022d2:	f002 bf74 	b.w	80051be <memcpy>
}
 80022d6:	f85d 4b04 	ldr.w	r4, [sp], #4
 80022da:	4770      	bx	lr

080022dc <prvUnlockQueue>:
{
 80022dc:	b570      	push	{r4, r5, r6, lr}
 80022de:	4604      	mov	r4, r0
	taskENTER_CRITICAL();
 80022e0:	f001 fcc8 	bl	8003c74 <vPortEnterCritical>
		int8_t cTxLock = pxQueue->cTxLock;
 80022e4:	f894 5045 	ldrb.w	r5, [r4, #69]	@ 0x45
					if( xTaskRemoveFromEventList( &( pxQueue->xTasksWaitingToReceive ) ) != pdFALSE )
 80022e8:	f104 0624 	add.w	r6, r4, #36	@ 0x24
		int8_t cTxLock = pxQueue->cTxLock;
 80022ec:	b26d      	sxtb	r5, r5
		while( cTxLock > queueLOCKED_UNMODIFIED )
 80022ee:	2d00      	cmp	r5, #0
 80022f0:	dd01      	ble.n	80022f6 <prvUnlockQueue+0x1a>
				if( listLIST_IS_EMPTY( &( pxQueue->xTasksWaitingToReceive ) ) == pdFALSE )
 80022f2:	6a63      	ldr	r3, [r4, #36]	@ 0x24
 80022f4:	b9b3      	cbnz	r3, 8002324 <prvUnlockQueue+0x48>
		pxQueue->cTxLock = queueUNLOCKED;
 80022f6:	23ff      	movs	r3, #255	@ 0xff
 80022f8:	f884 3045 	strb.w	r3, [r4, #69]	@ 0x45
	taskEXIT_CRITICAL();
 80022fc:	f001 fcda 	bl	8003cb4 <vPortExitCritical>
	taskENTER_CRITICAL();
 8002300:	f001 fcb8 	bl	8003c74 <vPortEnterCritical>
		int8_t cRxLock = pxQueue->cRxLock;
 8002304:	f894 5044 	ldrb.w	r5, [r4, #68]	@ 0x44
				if( xTaskRemoveFromEventList( &( pxQueue->xTasksWaitingToSend ) ) != pdFALSE )
 8002308:	f104 0610 	add.w	r6, r4, #16
		int8_t cRxLock = pxQueue->cRxLock;
 800230c:	b26d      	sxtb	r5, r5
		while( cRxLock > queueLOCKED_UNMODIFIED )
 800230e:	2d00      	cmp	r5, #0
 8002310:	dd01      	ble.n	8002316 <prvUnlockQueue+0x3a>
			if( listLIST_IS_EMPTY( &( pxQueue->xTasksWaitingToSend ) ) == pdFALSE )
 8002312:	6923      	ldr	r3, [r4, #16]
 8002314:	b97b      	cbnz	r3, 8002336 <prvUnlockQueue+0x5a>
		pxQueue->cRxLock = queueUNLOCKED;
 8002316:	23ff      	movs	r3, #255	@ 0xff
 8002318:	f884 3044 	strb.w	r3, [r4, #68]	@ 0x44
}
 800231c:	e8bd 4070 	ldmia.w	sp!, {r4, r5, r6, lr}
	taskEXIT_CRITICAL();
 8002320:	f001 bcc8 	b.w	8003cb4 <vPortExitCritical>
					if( xTaskRemoveFromEventList( &( pxQueue->xTasksWaitingToReceive ) ) != pdFALSE )
 8002324:	4630      	mov	r0, r6
 8002326:	f001 f879 	bl	800341c <xTaskRemoveFromEventList>
 800232a:	b108      	cbz	r0, 8002330 <prvUnlockQueue+0x54>
						vTaskMissedYield();
 800232c:	f001 f91a 	bl	8003564 <vTaskMissedYield>
			--cTxLock;
 8002330:	3d01      	subs	r5, #1
 8002332:	b26d      	sxtb	r5, r5
 8002334:	e7db      	b.n	80022ee <prvUnlockQueue+0x12>
				if( xTaskRemoveFromEventList( &( pxQueue->xTasksWaitingToSend ) ) != pdFALSE )
 8002336:	4630      	mov	r0, r6
 8002338:	f001 f870 	bl	800341c <xTaskRemoveFromEventList>
 800233c:	b108      	cbz	r0, 8002342 <prvUnlockQueue+0x66>
					vTaskMissedYield();
 800233e:	f001 f911 	bl	8003564 <vTaskMissedYield>
				--cRxLock;
 8002342:	3d01      	subs	r5, #1
 8002344:	b26d      	sxtb	r5, r5
 8002346:	e7e2      	b.n	800230e <prvUnlockQueue+0x32>

08002348 <xQueueGenericReset>:
{
 8002348:	b538      	push	{r3, r4, r5, lr}
 800234a:	460d      	mov	r5, r1
	configASSERT( pxQueue );
 800234c:	4604      	mov	r4, r0
 800234e:	b940      	cbnz	r0, 8002362 <xQueueGenericReset+0x1a>

portFORCE_INLINE static void vPortRaiseBASEPRI( void )
{
uint32_t ulNewBASEPRI;

	__asm volatile
 8002350:	f04f 0350 	mov.w	r3, #80	@ 0x50
 8002354:	f383 8811 	msr	BASEPRI, r3
 8002358:	f3bf 8f6f 	isb	sy
 800235c:	f3bf 8f4f 	dsb	sy
 8002360:	e7fe      	b.n	8002360 <xQueueGenericReset+0x18>
	taskENTER_CRITICAL();
 8002362:	f001 fc87 	bl	8003c74 <vPortEnterCritical>
		pxQueue->u.xQueue.pcTail = pxQueue->pcHead + ( pxQueue->uxLength * pxQueue->uxItemSize ); /*lint !e9016 Pointer arithmetic allowed on char types, especially when it assists conveying intent. */
 8002366:	e9d4 310f 	ldrd	r3, r1, [r4, #60]	@ 0x3c
 800236a:	6822      	ldr	r2, [r4, #0]
		pxQueue->pcWriteTo = pxQueue->pcHead;
 800236c:	6062      	str	r2, [r4, #4]
		pxQueue->u.xQueue.pcTail = pxQueue->pcHead + ( pxQueue->uxLength * pxQueue->uxItemSize ); /*lint !e9016 Pointer arithmetic allowed on char types, especially when it assists conveying intent. */
 800236e:	434b      	muls	r3, r1
 8002370:	18d0      	adds	r0, r2, r3
		pxQueue->u.xQueue.pcReadFrom = pxQueue->pcHead + ( ( pxQueue->uxLength - 1U ) * pxQueue->uxItemSize ); /*lint !e9016 Pointer arithmetic allowed on char types, especially when it assists conveying intent. */
 8002372:	1a5b      	subs	r3, r3, r1
 8002374:	441a      	add	r2, r3
		pxQueue->u.xQueue.pcTail = pxQueue->pcHead + ( pxQueue->uxLength * pxQueue->uxItemSize ); /*lint !e9016 Pointer arithmetic allowed on char types, especially when it assists conveying intent. */
 8002376:	60a0      	str	r0, [r4, #8]
		pxQueue->cRxLock = queueUNLOCKED;
 8002378:	23ff      	movs	r3, #255	@ 0xff
		pxQueue->uxMessagesWaiting = ( UBaseType_t ) 0U;
 800237a:	2000      	movs	r0, #0
 800237c:	63a0      	str	r0, [r4, #56]	@ 0x38
		pxQueue->u.xQueue.pcReadFrom = pxQueue->pcHead + ( ( pxQueue->uxLength - 1U ) * pxQueue->uxItemSize ); /*lint !e9016 Pointer arithmetic allowed on char types, especially when it assists conveying intent. */
 800237e:	60e2      	str	r2, [r4, #12]
		pxQueue->cRxLock = queueUNLOCKED;
 8002380:	f884 3044 	strb.w	r3, [r4, #68]	@ 0x44
		pxQueue->cTxLock = queueUNLOCKED;
 8002384:	f884 3045 	strb.w	r3, [r4, #69]	@ 0x45
		if( xNewQueue == pdFALSE )
 8002388:	b9a5      	cbnz	r5, 80023b4 <xQueueGenericReset+0x6c>
			if( listLIST_IS_EMPTY( &( pxQueue->xTasksWaitingToSend ) ) == pdFALSE )
 800238a:	6923      	ldr	r3, [r4, #16]
 800238c:	b173      	cbz	r3, 80023ac <xQueueGenericReset+0x64>
				if( xTaskRemoveFromEventList( &( pxQueue->xTasksWaitingToSend ) ) != pdFALSE )
 800238e:	f104 0010 	add.w	r0, r4, #16
 8002392:	f001 f843 	bl	800341c <xTaskRemoveFromEventList>
 8002396:	b148      	cbz	r0, 80023ac <xQueueGenericReset+0x64>
					queueYIELD_IF_USING_PREEMPTION();
 8002398:	f04f 23e0 	mov.w	r3, #3758153728	@ 0xe000e000
 800239c:	f04f 5280 	mov.w	r2, #268435456	@ 0x10000000
 80023a0:	f8c3 2d04 	str.w	r2, [r3, #3332]	@ 0xd04
 80023a4:	f3bf 8f4f 	dsb	sy
 80023a8:	f3bf 8f6f 	isb	sy
	taskEXIT_CRITICAL();
 80023ac:	f001 fc82 	bl	8003cb4 <vPortExitCritical>
}
 80023b0:	2001      	movs	r0, #1
 80023b2:	bd38      	pop	{r3, r4, r5, pc}
			vListInitialise( &( pxQueue->xTasksWaitingToSend ) );
 80023b4:	f104 0010 	add.w	r0, r4, #16
 80023b8:	f7ff fefc 	bl	80021b4 <vListInitialise>
			vListInitialise( &( pxQueue->xTasksWaitingToReceive ) );
 80023bc:	f104 0024 	add.w	r0, r4, #36	@ 0x24
 80023c0:	f7ff fef8 	bl	80021b4 <vListInitialise>
 80023c4:	e7f2      	b.n	80023ac <xQueueGenericReset+0x64>

080023c6 <xQueueGenericCreateStatic>:
	{
 80023c6:	b537      	push	{r0, r1, r2, r4, r5, lr}
 80023c8:	460d      	mov	r5, r1
 80023ca:	461c      	mov	r4, r3
		configASSERT( uxQueueLength > ( UBaseType_t ) 0 );
 80023cc:	b940      	cbnz	r0, 80023e0 <xQueueGenericCreateStatic+0x1a>
 80023ce:	f04f 0350 	mov.w	r3, #80	@ 0x50
 80023d2:	f383 8811 	msr	BASEPRI, r3
 80023d6:	f3bf 8f6f 	isb	sy
 80023da:	f3bf 8f4f 	dsb	sy
 80023de:	e7fe      	b.n	80023de <xQueueGenericCreateStatic+0x18>
		configASSERT( pxStaticQueue != NULL );
 80023e0:	b943      	cbnz	r3, 80023f4 <xQueueGenericCreateStatic+0x2e>
 80023e2:	f04f 0350 	mov.w	r3, #80	@ 0x50
 80023e6:	f383 8811 	msr	BASEPRI, r3
 80023ea:	f3bf 8f6f 	isb	sy
 80023ee:	f3bf 8f4f 	dsb	sy
 80023f2:	e7fe      	b.n	80023f2 <xQueueGenericCreateStatic+0x2c>
		configASSERT( !( ( pucQueueStorage != NULL ) && ( uxItemSize == 0 ) ) );
 80023f4:	b14a      	cbz	r2, 800240a <xQueueGenericCreateStatic+0x44>
 80023f6:	b991      	cbnz	r1, 800241e <xQueueGenericCreateStatic+0x58>
 80023f8:	f04f 0350 	mov.w	r3, #80	@ 0x50
 80023fc:	f383 8811 	msr	BASEPRI, r3
 8002400:	f3bf 8f6f 	isb	sy
 8002404:	f3bf 8f4f 	dsb	sy
 8002408:	e7fe      	b.n	8002408 <xQueueGenericCreateStatic+0x42>
		configASSERT( !( ( pucQueueStorage == NULL ) && ( uxItemSize != 0 ) ) );
 800240a:	b141      	cbz	r1, 800241e <xQueueGenericCreateStatic+0x58>
 800240c:	f04f 0350 	mov.w	r3, #80	@ 0x50
 8002410:	f383 8811 	msr	BASEPRI, r3
 8002414:	f3bf 8f6f 	isb	sy
 8002418:	f3bf 8f4f 	dsb	sy
 800241c:	e7fe      	b.n	800241c <xQueueGenericCreateStatic+0x56>
			volatile size_t xSize = sizeof( StaticQueue_t );
 800241e:	2350      	movs	r3, #80	@ 0x50
 8002420:	9301      	str	r3, [sp, #4]
			configASSERT( xSize == sizeof( Queue_t ) );
 8002422:	9b01      	ldr	r3, [sp, #4]
 8002424:	2b50      	cmp	r3, #80	@ 0x50
 8002426:	d008      	beq.n	800243a <xQueueGenericCreateStatic+0x74>
 8002428:	f04f 0350 	mov.w	r3, #80	@ 0x50
 800242c:	f383 8811 	msr	BASEPRI, r3
 8002430:	f3bf 8f6f 	isb	sy
 8002434:	f3bf 8f4f 	dsb	sy
 8002438:	e7fe      	b.n	8002438 <xQueueGenericCreateStatic+0x72>
				pxNewQueue->ucStaticallyAllocated = pdTRUE;
 800243a:	2101      	movs	r1, #1
		pxNewQueue->pcHead = ( int8_t * ) pxNewQueue;
 800243c:	2d00      	cmp	r5, #0
 800243e:	bf08      	it	eq
 8002440:	4622      	moveq	r2, r4
	pxNewQueue->uxItemSize = uxItemSize;
 8002442:	e9c4 050f 	strd	r0, r5, [r4, #60]	@ 0x3c
				pxNewQueue->ucStaticallyAllocated = pdTRUE;
 8002446:	f884 1046 	strb.w	r1, [r4, #70]	@ 0x46
 800244a:	6022      	str	r2, [r4, #0]
	( void ) xQueueGenericReset( pxNewQueue, pdTRUE );
 800244c:	4620      	mov	r0, r4
			( void ) xSize; /* Keeps lint quiet when configASSERT() is not defined. */
 800244e:	9b01      	ldr	r3, [sp, #4]
	( void ) xQueueGenericReset( pxNewQueue, pdTRUE );
 8002450:	f7ff ff7a 	bl	8002348 <xQueueGenericReset>
		pxNewQueue->ucQueueType = ucQueueType;
 8002454:	f89d 3018 	ldrb.w	r3, [sp, #24]
 8002458:	f884 304c 	strb.w	r3, [r4, #76]	@ 0x4c
	}
 800245c:	4620      	mov	r0, r4
 800245e:	b003      	add	sp, #12
 8002460:	bd30      	pop	{r4, r5, pc}

08002462 <xQueueGenericSend>:
{
 8002462:	e92d 41ff 	stmdb	sp!, {r0, r1, r2, r3, r4, r5, r6, r7, r8, lr}
 8002466:	460f      	mov	r7, r1
 8002468:	9201      	str	r2, [sp, #4]
 800246a:	461e      	mov	r6, r3
	configASSERT( pxQueue );
 800246c:	4604      	mov	r4, r0
 800246e:	b940      	cbnz	r0, 8002482 <xQueueGenericSend+0x20>
 8002470:	f04f 0350 	mov.w	r3, #80	@ 0x50
 8002474:	f383 8811 	msr	BASEPRI, r3
 8002478:	f3bf 8f6f 	isb	sy
 800247c:	f3bf 8f4f 	dsb	sy
 8002480:	e7fe      	b.n	8002480 <xQueueGenericSend+0x1e>
	configASSERT( !( ( pvItemToQueue == NULL ) && ( pxQueue->uxItemSize != ( UBaseType_t ) 0U ) ) );
 8002482:	b951      	cbnz	r1, 800249a <xQueueGenericSend+0x38>
 8002484:	6c03      	ldr	r3, [r0, #64]	@ 0x40
 8002486:	b143      	cbz	r3, 800249a <xQueueGenericSend+0x38>
 8002488:	f04f 0350 	mov.w	r3, #80	@ 0x50
 800248c:	f383 8811 	msr	BASEPRI, r3
 8002490:	f3bf 8f6f 	isb	sy
 8002494:	f3bf 8f4f 	dsb	sy
 8002498:	e7fe      	b.n	8002498 <xQueueGenericSend+0x36>
	configASSERT( !( ( xCopyPosition == queueOVERWRITE ) && ( pxQueue->uxLength != 1 ) ) );
 800249a:	2e02      	cmp	r6, #2
 800249c:	d10b      	bne.n	80024b6 <xQueueGenericSend+0x54>
 800249e:	6be3      	ldr	r3, [r4, #60]	@ 0x3c
 80024a0:	2b01      	cmp	r3, #1
 80024a2:	d008      	beq.n	80024b6 <xQueueGenericSend+0x54>
 80024a4:	f04f 0350 	mov.w	r3, #80	@ 0x50
 80024a8:	f383 8811 	msr	BASEPRI, r3
 80024ac:	f3bf 8f6f 	isb	sy
 80024b0:	f3bf 8f4f 	dsb	sy
 80024b4:	e7fe      	b.n	80024b4 <xQueueGenericSend+0x52>
		configASSERT( !( ( xTaskGetSchedulerState() == taskSCHEDULER_SUSPENDED ) && ( xTicksToWait != 0 ) ) );
 80024b6:	f001 f861 	bl	800357c <xTaskGetSchedulerState>
 80024ba:	4605      	mov	r5, r0
 80024bc:	b320      	cbz	r0, 8002508 <xQueueGenericSend+0xa6>
 80024be:	2500      	movs	r5, #0
		prvLockQueue( pxQueue );
 80024c0:	f04f 0800 	mov.w	r8, #0
		taskENTER_CRITICAL();
 80024c4:	f001 fbd6 	bl	8003c74 <vPortEnterCritical>
			if( ( pxQueue->uxMessagesWaiting < pxQueue->uxLength ) || ( xCopyPosition == queueOVERWRITE ) )
 80024c8:	6ba2      	ldr	r2, [r4, #56]	@ 0x38
 80024ca:	6be3      	ldr	r3, [r4, #60]	@ 0x3c
 80024cc:	429a      	cmp	r2, r3
 80024ce:	d227      	bcs.n	8002520 <xQueueGenericSend+0xbe>
					xYieldRequired = prvCopyDataToQueue( pxQueue, pvItemToQueue, xCopyPosition );
 80024d0:	4632      	mov	r2, r6
 80024d2:	4639      	mov	r1, r7
 80024d4:	4620      	mov	r0, r4
 80024d6:	f7ff feb8 	bl	800224a <prvCopyDataToQueue>
					if( listLIST_IS_EMPTY( &( pxQueue->xTasksWaitingToReceive ) ) == pdFALSE )
 80024da:	6a63      	ldr	r3, [r4, #36]	@ 0x24
 80024dc:	b11b      	cbz	r3, 80024e6 <xQueueGenericSend+0x84>
						if( xTaskRemoveFromEventList( &( pxQueue->xTasksWaitingToReceive ) ) != pdFALSE )
 80024de:	f104 0024 	add.w	r0, r4, #36	@ 0x24
 80024e2:	f000 ff9b 	bl	800341c <xTaskRemoveFromEventList>
					else if( xYieldRequired != pdFALSE )
 80024e6:	b148      	cbz	r0, 80024fc <xQueueGenericSend+0x9a>
						queueYIELD_IF_USING_PREEMPTION();
 80024e8:	f04f 23e0 	mov.w	r3, #3758153728	@ 0xe000e000
 80024ec:	f04f 5280 	mov.w	r2, #268435456	@ 0x10000000
 80024f0:	f8c3 2d04 	str.w	r2, [r3, #3332]	@ 0xd04
 80024f4:	f3bf 8f4f 	dsb	sy
 80024f8:	f3bf 8f6f 	isb	sy
				taskEXIT_CRITICAL();
 80024fc:	f001 fbda 	bl	8003cb4 <vPortExitCritical>
				return pdPASS;
 8002500:	2001      	movs	r0, #1
}
 8002502:	b004      	add	sp, #16
 8002504:	e8bd 81f0 	ldmia.w	sp!, {r4, r5, r6, r7, r8, pc}
		configASSERT( !( ( xTaskGetSchedulerState() == taskSCHEDULER_SUSPENDED ) && ( xTicksToWait != 0 ) ) );
 8002508:	9b01      	ldr	r3, [sp, #4]
 800250a:	2b00      	cmp	r3, #0
 800250c:	d0d8      	beq.n	80024c0 <xQueueGenericSend+0x5e>
 800250e:	f04f 0350 	mov.w	r3, #80	@ 0x50
 8002512:	f383 8811 	msr	BASEPRI, r3
 8002516:	f3bf 8f6f 	isb	sy
 800251a:	f3bf 8f4f 	dsb	sy
 800251e:	e7fe      	b.n	800251e <xQueueGenericSend+0xbc>
			if( ( pxQueue->uxMessagesWaiting < pxQueue->uxLength ) || ( xCopyPosition == queueOVERWRITE ) )
 8002520:	2e02      	cmp	r6, #2
 8002522:	d0d5      	beq.n	80024d0 <xQueueGenericSend+0x6e>
				if( xTicksToWait == ( TickType_t ) 0 )
 8002524:	9b01      	ldr	r3, [sp, #4]
 8002526:	b91b      	cbnz	r3, 8002530 <xQueueGenericSend+0xce>
					taskEXIT_CRITICAL();
 8002528:	f001 fbc4 	bl	8003cb4 <vPortExitCritical>
					return errQUEUE_FULL;
 800252c:	2000      	movs	r0, #0
 800252e:	e7e8      	b.n	8002502 <xQueueGenericSend+0xa0>
				else if( xEntryTimeSet == pdFALSE )
 8002530:	b915      	cbnz	r5, 8002538 <xQueueGenericSend+0xd6>
					vTaskInternalSetTimeOutState( &xTimeOut );
 8002532:	a802      	add	r0, sp, #8
 8002534:	f000 ffce 	bl	80034d4 <vTaskInternalSetTimeOutState>
		taskEXIT_CRITICAL();
 8002538:	f001 fbbc 	bl	8003cb4 <vPortExitCritical>
		vTaskSuspendAll();
 800253c:	f000 fdba 	bl	80030b4 <vTaskSuspendAll>
		prvLockQueue( pxQueue );
 8002540:	f001 fb98 	bl	8003c74 <vPortEnterCritical>
 8002544:	f894 3044 	ldrb.w	r3, [r4, #68]	@ 0x44
 8002548:	2bff      	cmp	r3, #255	@ 0xff
 800254a:	bf08      	it	eq
 800254c:	f884 8044 	strbeq.w	r8, [r4, #68]	@ 0x44
 8002550:	f894 3045 	ldrb.w	r3, [r4, #69]	@ 0x45
 8002554:	2bff      	cmp	r3, #255	@ 0xff
 8002556:	bf08      	it	eq
 8002558:	f884 8045 	strbeq.w	r8, [r4, #69]	@ 0x45
 800255c:	f001 fbaa 	bl	8003cb4 <vPortExitCritical>
		if( xTaskCheckForTimeOut( &xTimeOut, &xTicksToWait ) == pdFALSE )
 8002560:	a901      	add	r1, sp, #4
 8002562:	a802      	add	r0, sp, #8
 8002564:	f000 ffc2 	bl	80034ec <xTaskCheckForTimeOut>
 8002568:	bb38      	cbnz	r0, 80025ba <xQueueGenericSend+0x158>

static BaseType_t prvIsQueueFull( const Queue_t *pxQueue )
{
BaseType_t xReturn;

	taskENTER_CRITICAL();
 800256a:	f001 fb83 	bl	8003c74 <vPortEnterCritical>
	{
		if( pxQueue->uxMessagesWaiting == pxQueue->uxLength )
 800256e:	6ba2      	ldr	r2, [r4, #56]	@ 0x38
 8002570:	6be3      	ldr	r3, [r4, #60]	@ 0x3c
 8002572:	429a      	cmp	r2, r3
 8002574:	d10e      	bne.n	8002594 <xQueueGenericSend+0x132>
		else
		{
			xReturn = pdFALSE;
		}
	}
	taskEXIT_CRITICAL();
 8002576:	f001 fb9d 	bl	8003cb4 <vPortExitCritical>
				vTaskPlaceOnEventList( &( pxQueue->xTasksWaitingToSend ), xTicksToWait );
 800257a:	9901      	ldr	r1, [sp, #4]
 800257c:	f104 0010 	add.w	r0, r4, #16
 8002580:	f000 ff14 	bl	80033ac <vTaskPlaceOnEventList>
				prvUnlockQueue( pxQueue );
 8002584:	4620      	mov	r0, r4
 8002586:	f7ff fea9 	bl	80022dc <prvUnlockQueue>
				if( xTaskResumeAll() == pdFALSE )
 800258a:	f000 fe37 	bl	80031fc <xTaskResumeAll>
 800258e:	b148      	cbz	r0, 80025a4 <xQueueGenericSend+0x142>
 8002590:	2501      	movs	r5, #1
 8002592:	e797      	b.n	80024c4 <xQueueGenericSend+0x62>
	taskEXIT_CRITICAL();
 8002594:	f001 fb8e 	bl	8003cb4 <vPortExitCritical>
				prvUnlockQueue( pxQueue );
 8002598:	4620      	mov	r0, r4
 800259a:	f7ff fe9f 	bl	80022dc <prvUnlockQueue>
				( void ) xTaskResumeAll();
 800259e:	f000 fe2d 	bl	80031fc <xTaskResumeAll>
 80025a2:	e7f5      	b.n	8002590 <xQueueGenericSend+0x12e>
					portYIELD_WITHIN_API();
 80025a4:	f04f 23e0 	mov.w	r3, #3758153728	@ 0xe000e000
 80025a8:	f04f 5280 	mov.w	r2, #268435456	@ 0x10000000
 80025ac:	f8c3 2d04 	str.w	r2, [r3, #3332]	@ 0xd04
 80025b0:	f3bf 8f4f 	dsb	sy
 80025b4:	f3bf 8f6f 	isb	sy
 80025b8:	e7ea      	b.n	8002590 <xQueueGenericSend+0x12e>
			prvUnlockQueue( pxQueue );
 80025ba:	4620      	mov	r0, r4
 80025bc:	f7ff fe8e 	bl	80022dc <prvUnlockQueue>
			( void ) xTaskResumeAll();
 80025c0:	f000 fe1c 	bl	80031fc <xTaskResumeAll>
			return errQUEUE_FULL;
 80025c4:	e7b2      	b.n	800252c <xQueueGenericSend+0xca>

080025c6 <xQueueGenericSendFromISR>:
{
 80025c6:	e92d 43f8 	stmdb	sp!, {r3, r4, r5, r6, r7, r8, r9, lr}
 80025ca:	4689      	mov	r9, r1
 80025cc:	4617      	mov	r7, r2
 80025ce:	461e      	mov	r6, r3
	configASSERT( pxQueue );
 80025d0:	4604      	mov	r4, r0
 80025d2:	b940      	cbnz	r0, 80025e6 <xQueueGenericSendFromISR+0x20>
 80025d4:	f04f 0350 	mov.w	r3, #80	@ 0x50
 80025d8:	f383 8811 	msr	BASEPRI, r3
 80025dc:	f3bf 8f6f 	isb	sy
 80025e0:	f3bf 8f4f 	dsb	sy
 80025e4:	e7fe      	b.n	80025e4 <xQueueGenericSendFromISR+0x1e>
	configASSERT( !( ( pvItemToQueue == NULL ) && ( pxQueue->uxItemSize != ( UBaseType_t ) 0U ) ) );
 80025e6:	b951      	cbnz	r1, 80025fe <xQueueGenericSendFromISR+0x38>
 80025e8:	6c03      	ldr	r3, [r0, #64]	@ 0x40
 80025ea:	b143      	cbz	r3, 80025fe <xQueueGenericSendFromISR+0x38>
 80025ec:	f04f 0350 	mov.w	r3, #80	@ 0x50
 80025f0:	f383 8811 	msr	BASEPRI, r3
 80025f4:	f3bf 8f6f 	isb	sy
 80025f8:	f3bf 8f4f 	dsb	sy
 80025fc:	e7fe      	b.n	80025fc <xQueueGenericSendFromISR+0x36>
	configASSERT( !( ( xCopyPosition == queueOVERWRITE ) && ( pxQueue->uxLength != 1 ) ) );
 80025fe:	2e02      	cmp	r6, #2
 8002600:	d10b      	bne.n	800261a <xQueueGenericSendFromISR+0x54>
 8002602:	6be3      	ldr	r3, [r4, #60]	@ 0x3c
 8002604:	2b01      	cmp	r3, #1
 8002606:	d008      	beq.n	800261a <xQueueGenericSendFromISR+0x54>
 8002608:	f04f 0350 	mov.w	r3, #80	@ 0x50
 800260c:	f383 8811 	msr	BASEPRI, r3
 8002610:	f3bf 8f6f 	isb	sy
 8002614:	f3bf 8f4f 	dsb	sy
 8002618:	e7fe      	b.n	8002618 <xQueueGenericSendFromISR+0x52>
	portASSERT_IF_INTERRUPT_PRIORITY_INVALID();
 800261a:	f001 fc3d 	bl	8003e98 <vPortValidateInterruptPriority>

portFORCE_INLINE static uint32_t ulPortRaiseBASEPRI( void )
{
uint32_t ulOriginalBASEPRI, ulNewBASEPRI;

	__asm volatile
 800261e:	f3ef 8811 	mrs	r8, BASEPRI
 8002622:	f04f 0350 	mov.w	r3, #80	@ 0x50
 8002626:	f383 8811 	msr	BASEPRI, r3
 800262a:	f3bf 8f6f 	isb	sy
 800262e:	f3bf 8f4f 	dsb	sy
		if( ( pxQueue->uxMessagesWaiting < pxQueue->uxLength ) || ( xCopyPosition == queueOVERWRITE ) )
 8002632:	6ba2      	ldr	r2, [r4, #56]	@ 0x38
 8002634:	6be3      	ldr	r3, [r4, #60]	@ 0x3c
 8002636:	429a      	cmp	r2, r3
 8002638:	d301      	bcc.n	800263e <xQueueGenericSendFromISR+0x78>
 800263a:	2e02      	cmp	r6, #2
 800263c:	d11e      	bne.n	800267c <xQueueGenericSendFromISR+0xb6>
			const int8_t cTxLock = pxQueue->cTxLock;
 800263e:	f894 5045 	ldrb.w	r5, [r4, #69]	@ 0x45
			const UBaseType_t uxPreviousMessagesWaiting = pxQueue->uxMessagesWaiting;
 8002642:	6ba3      	ldr	r3, [r4, #56]	@ 0x38
			const int8_t cTxLock = pxQueue->cTxLock;
 8002644:	b26d      	sxtb	r5, r5
			( void ) prvCopyDataToQueue( pxQueue, pvItemToQueue, xCopyPosition );
 8002646:	4632      	mov	r2, r6
 8002648:	4649      	mov	r1, r9
 800264a:	4620      	mov	r0, r4
 800264c:	f7ff fdfd 	bl	800224a <prvCopyDataToQueue>
			if( cTxLock == queueUNLOCKED )
 8002650:	1c6b      	adds	r3, r5, #1
 8002652:	d10e      	bne.n	8002672 <xQueueGenericSendFromISR+0xac>
					if( listLIST_IS_EMPTY( &( pxQueue->xTasksWaitingToReceive ) ) == pdFALSE )
 8002654:	6a63      	ldr	r3, [r4, #36]	@ 0x24
 8002656:	b13b      	cbz	r3, 8002668 <xQueueGenericSendFromISR+0xa2>
						if( xTaskRemoveFromEventList( &( pxQueue->xTasksWaitingToReceive ) ) != pdFALSE )
 8002658:	f104 0024 	add.w	r0, r4, #36	@ 0x24
 800265c:	f000 fede 	bl	800341c <xTaskRemoveFromEventList>
 8002660:	b110      	cbz	r0, 8002668 <xQueueGenericSendFromISR+0xa2>
							if( pxHigherPriorityTaskWoken != NULL )
 8002662:	b10f      	cbz	r7, 8002668 <xQueueGenericSendFromISR+0xa2>
								*pxHigherPriorityTaskWoken = pdTRUE;
 8002664:	2301      	movs	r3, #1
 8002666:	603b      	str	r3, [r7, #0]
			xReturn = pdPASS;
 8002668:	2001      	movs	r0, #1
}
/*-----------------------------------------------------------*/

portFORCE_INLINE static void vPortSetBASEPRI( uint32_t ulNewMaskValue )
{
	__asm volatile
 800266a:	f388 8811 	msr	BASEPRI, r8
}
 800266e:	e8bd 83f8 	ldmia.w	sp!, {r3, r4, r5, r6, r7, r8, r9, pc}
				pxQueue->cTxLock = ( int8_t ) ( cTxLock + 1 );
 8002672:	3501      	adds	r5, #1
 8002674:	b26d      	sxtb	r5, r5
 8002676:	f884 5045 	strb.w	r5, [r4, #69]	@ 0x45
 800267a:	e7f5      	b.n	8002668 <xQueueGenericSendFromISR+0xa2>
			xReturn = errQUEUE_FULL;
 800267c:	2000      	movs	r0, #0
 800267e:	e7f4      	b.n	800266a <xQueueGenericSendFromISR+0xa4>

08002680 <xQueueReceive>:
{
 8002680:	e92d 41ff 	stmdb	sp!, {r0, r1, r2, r3, r4, r5, r6, r7, r8, lr}
 8002684:	460e      	mov	r6, r1
 8002686:	9201      	str	r2, [sp, #4]
	configASSERT( ( pxQueue ) );
 8002688:	4604      	mov	r4, r0
 800268a:	b940      	cbnz	r0, 800269e <xQueueReceive+0x1e>
	__asm volatile
 800268c:	f04f 0350 	mov.w	r3, #80	@ 0x50
 8002690:	f383 8811 	msr	BASEPRI, r3
 8002694:	f3bf 8f6f 	isb	sy
 8002698:	f3bf 8f4f 	dsb	sy
 800269c:	e7fe      	b.n	800269c <xQueueReceive+0x1c>
	configASSERT( !( ( ( pvBuffer ) == NULL ) && ( ( pxQueue )->uxItemSize != ( UBaseType_t ) 0U ) ) );
 800269e:	b951      	cbnz	r1, 80026b6 <xQueueReceive+0x36>
 80026a0:	6c03      	ldr	r3, [r0, #64]	@ 0x40
 80026a2:	b143      	cbz	r3, 80026b6 <xQueueReceive+0x36>
 80026a4:	f04f 0350 	mov.w	r3, #80	@ 0x50
 80026a8:	f383 8811 	msr	BASEPRI, r3
 80026ac:	f3bf 8f6f 	isb	sy
 80026b0:	f3bf 8f4f 	dsb	sy
 80026b4:	e7fe      	b.n	80026b4 <xQueueReceive+0x34>
		configASSERT( !( ( xTaskGetSchedulerState() == taskSCHEDULER_SUSPENDED ) && ( xTicksToWait != 0 ) ) );
 80026b6:	f000 ff61 	bl	800357c <xTaskGetSchedulerState>
 80026ba:	4605      	mov	r5, r0
 80026bc:	b318      	cbz	r0, 8002706 <xQueueReceive+0x86>
 80026be:	2500      	movs	r5, #0
		prvLockQueue( pxQueue );
 80026c0:	f04f 0800 	mov.w	r8, #0
		taskENTER_CRITICAL();
 80026c4:	f001 fad6 	bl	8003c74 <vPortEnterCritical>
			const UBaseType_t uxMessagesWaiting = pxQueue->uxMessagesWaiting;
 80026c8:	6ba7      	ldr	r7, [r4, #56]	@ 0x38
			if( uxMessagesWaiting > ( UBaseType_t ) 0 )
 80026ca:	b347      	cbz	r7, 800271e <xQueueReceive+0x9e>
				prvCopyDataFromQueue( pxQueue, pvBuffer );
 80026cc:	4631      	mov	r1, r6
 80026ce:	4620      	mov	r0, r4
				pxQueue->uxMessagesWaiting = uxMessagesWaiting - ( UBaseType_t ) 1;
 80026d0:	3f01      	subs	r7, #1
				prvCopyDataFromQueue( pxQueue, pvBuffer );
 80026d2:	f7ff fded 	bl	80022b0 <prvCopyDataFromQueue>
				pxQueue->uxMessagesWaiting = uxMessagesWaiting - ( UBaseType_t ) 1;
 80026d6:	63a7      	str	r7, [r4, #56]	@ 0x38
				if( listLIST_IS_EMPTY( &( pxQueue->xTasksWaitingToSend ) ) == pdFALSE )
 80026d8:	6923      	ldr	r3, [r4, #16]
 80026da:	b173      	cbz	r3, 80026fa <xQueueReceive+0x7a>
					if( xTaskRemoveFromEventList( &( pxQueue->xTasksWaitingToSend ) ) != pdFALSE )
 80026dc:	f104 0010 	add.w	r0, r4, #16
 80026e0:	f000 fe9c 	bl	800341c <xTaskRemoveFromEventList>
 80026e4:	b148      	cbz	r0, 80026fa <xQueueReceive+0x7a>
						queueYIELD_IF_USING_PREEMPTION();
 80026e6:	f04f 23e0 	mov.w	r3, #3758153728	@ 0xe000e000
 80026ea:	f04f 5280 	mov.w	r2, #268435456	@ 0x10000000
 80026ee:	f8c3 2d04 	str.w	r2, [r3, #3332]	@ 0xd04
 80026f2:	f3bf 8f4f 	dsb	sy
 80026f6:	f3bf 8f6f 	isb	sy
				taskEXIT_CRITICAL();
 80026fa:	f001 fadb 	bl	8003cb4 <vPortExitCritical>
				return pdPASS;
 80026fe:	2001      	movs	r0, #1
}
 8002700:	b004      	add	sp, #16
 8002702:	e8bd 81f0 	ldmia.w	sp!, {r4, r5, r6, r7, r8, pc}
		configASSERT( !( ( xTaskGetSchedulerState() == taskSCHEDULER_SUSPENDED ) && ( xTicksToWait != 0 ) ) );
 8002706:	9b01      	ldr	r3, [sp, #4]
 8002708:	2b00      	cmp	r3, #0
 800270a:	d0d9      	beq.n	80026c0 <xQueueReceive+0x40>
 800270c:	f04f 0350 	mov.w	r3, #80	@ 0x50
 8002710:	f383 8811 	msr	BASEPRI, r3
 8002714:	f3bf 8f6f 	isb	sy
 8002718:	f3bf 8f4f 	dsb	sy
 800271c:	e7fe      	b.n	800271c <xQueueReceive+0x9c>
				if( xTicksToWait == ( TickType_t ) 0 )
 800271e:	9b01      	ldr	r3, [sp, #4]
 8002720:	b91b      	cbnz	r3, 800272a <xQueueReceive+0xaa>
					taskEXIT_CRITICAL();
 8002722:	f001 fac7 	bl	8003cb4 <vPortExitCritical>
					return errQUEUE_EMPTY;
 8002726:	2000      	movs	r0, #0
 8002728:	e7ea      	b.n	8002700 <xQueueReceive+0x80>
				else if( xEntryTimeSet == pdFALSE )
 800272a:	b915      	cbnz	r5, 8002732 <xQueueReceive+0xb2>
					vTaskInternalSetTimeOutState( &xTimeOut );
 800272c:	a802      	add	r0, sp, #8
 800272e:	f000 fed1 	bl	80034d4 <vTaskInternalSetTimeOutState>
		taskEXIT_CRITICAL();
 8002732:	f001 fabf 	bl	8003cb4 <vPortExitCritical>
		vTaskSuspendAll();
 8002736:	f000 fcbd 	bl	80030b4 <vTaskSuspendAll>
		prvLockQueue( pxQueue );
 800273a:	f001 fa9b 	bl	8003c74 <vPortEnterCritical>
 800273e:	f894 3044 	ldrb.w	r3, [r4, #68]	@ 0x44
 8002742:	2bff      	cmp	r3, #255	@ 0xff
 8002744:	bf08      	it	eq
 8002746:	f884 8044 	strbeq.w	r8, [r4, #68]	@ 0x44
 800274a:	f894 3045 	ldrb.w	r3, [r4, #69]	@ 0x45
 800274e:	2bff      	cmp	r3, #255	@ 0xff
 8002750:	bf08      	it	eq
 8002752:	f884 8045 	strbeq.w	r8, [r4, #69]	@ 0x45
 8002756:	f001 faad 	bl	8003cb4 <vPortExitCritical>
		if( xTaskCheckForTimeOut( &xTimeOut, &xTicksToWait ) == pdFALSE )
 800275a:	a901      	add	r1, sp, #4
 800275c:	a802      	add	r0, sp, #8
 800275e:	f000 fec5 	bl	80034ec <xTaskCheckForTimeOut>
 8002762:	bb00      	cbnz	r0, 80027a6 <xQueueReceive+0x126>
			if( prvIsQueueEmpty( pxQueue ) != pdFALSE )
 8002764:	4620      	mov	r0, r4
 8002766:	f7ff fd65 	bl	8002234 <prvIsQueueEmpty>
 800276a:	b1b0      	cbz	r0, 800279a <xQueueReceive+0x11a>
				vTaskPlaceOnEventList( &( pxQueue->xTasksWaitingToReceive ), xTicksToWait );
 800276c:	9901      	ldr	r1, [sp, #4]
 800276e:	f104 0024 	add.w	r0, r4, #36	@ 0x24
 8002772:	f000 fe1b 	bl	80033ac <vTaskPlaceOnEventList>
				prvUnlockQueue( pxQueue );
 8002776:	4620      	mov	r0, r4
 8002778:	f7ff fdb0 	bl	80022dc <prvUnlockQueue>
				if( xTaskResumeAll() == pdFALSE )
 800277c:	f000 fd3e 	bl	80031fc <xTaskResumeAll>
 8002780:	b948      	cbnz	r0, 8002796 <xQueueReceive+0x116>
					portYIELD_WITHIN_API();
 8002782:	f04f 23e0 	mov.w	r3, #3758153728	@ 0xe000e000
 8002786:	f04f 5280 	mov.w	r2, #268435456	@ 0x10000000
 800278a:	f8c3 2d04 	str.w	r2, [r3, #3332]	@ 0xd04
 800278e:	f3bf 8f4f 	dsb	sy
 8002792:	f3bf 8f6f 	isb	sy
 8002796:	2501      	movs	r5, #1
 8002798:	e794      	b.n	80026c4 <xQueueReceive+0x44>
				prvUnlockQueue( pxQueue );
 800279a:	4620      	mov	r0, r4
 800279c:	f7ff fd9e 	bl	80022dc <prvUnlockQueue>
				( void ) xTaskResumeAll();
 80027a0:	f000 fd2c 	bl	80031fc <xTaskResumeAll>
 80027a4:	e7f7      	b.n	8002796 <xQueueReceive+0x116>
			prvUnlockQueue( pxQueue );
 80027a6:	4620      	mov	r0, r4
 80027a8:	f7ff fd98 	bl	80022dc <prvUnlockQueue>
			( void ) xTaskResumeAll();
 80027ac:	f000 fd26 	bl	80031fc <xTaskResumeAll>
			if( prvIsQueueEmpty( pxQueue ) != pdFALSE )
 80027b0:	4620      	mov	r0, r4
 80027b2:	f7ff fd3f 	bl	8002234 <prvIsQueueEmpty>
 80027b6:	2800      	cmp	r0, #0
 80027b8:	d0ed      	beq.n	8002796 <xQueueReceive+0x116>
 80027ba:	e7b4      	b.n	8002726 <xQueueReceive+0xa6>

080027bc <vQueueAddToRegistry>:
/*-----------------------------------------------------------*/

#if ( configQUEUE_REGISTRY_SIZE > 0 )

	void vQueueAddToRegistry( QueueHandle_t xQueue, const char *pcQueueName ) /*lint !e971 Unqualified char types are allowed for strings and single characters only. */
	{
 80027bc:	b530      	push	{r4, r5, lr}

		/* See if there is an empty space in the registry.  A NULL name denotes
		a free slot. */
		for( ux = ( UBaseType_t ) 0U; ux < ( UBaseType_t ) configQUEUE_REGISTRY_SIZE; ux++ )
		{
			if( xQueueRegistry[ ux ].pcQueueName == NULL )
 80027be:	4a07      	ldr	r2, [pc, #28]	@ (80027dc <vQueueAddToRegistry+0x20>)
		for( ux = ( UBaseType_t ) 0U; ux < ( UBaseType_t ) configQUEUE_REGISTRY_SIZE; ux++ )
 80027c0:	2300      	movs	r3, #0
			if( xQueueRegistry[ ux ].pcQueueName == NULL )
 80027c2:	f852 5033 	ldr.w	r5, [r2, r3, lsl #3]
 80027c6:	eb02 04c3 	add.w	r4, r2, r3, lsl #3
 80027ca:	b91d      	cbnz	r5, 80027d4 <vQueueAddToRegistry+0x18>
			{
				/* Store the information on this queue. */
				xQueueRegistry[ ux ].pcQueueName = pcQueueName;
 80027cc:	f842 1033 	str.w	r1, [r2, r3, lsl #3]
				xQueueRegistry[ ux ].xHandle = xQueue;
 80027d0:	6060      	str	r0, [r4, #4]
			else
			{
				mtCOVERAGE_TEST_MARKER();
			}
		}
	}
 80027d2:	bd30      	pop	{r4, r5, pc}
		for( ux = ( UBaseType_t ) 0U; ux < ( UBaseType_t ) configQUEUE_REGISTRY_SIZE; ux++ )
 80027d4:	3301      	adds	r3, #1
 80027d6:	2b08      	cmp	r3, #8
 80027d8:	d1f3      	bne.n	80027c2 <vQueueAddToRegistry+0x6>
 80027da:	e7fa      	b.n	80027d2 <vQueueAddToRegistry+0x16>
 80027dc:	20000a28 	.word	0x20000a28

080027e0 <vQueueWaitForMessageRestricted>:
/*-----------------------------------------------------------*/

#if ( configUSE_TIMERS == 1 )

	void vQueueWaitForMessageRestricted( QueueHandle_t xQueue, TickType_t xTicksToWait, const BaseType_t xWaitIndefinitely )
	{
 80027e0:	b570      	push	{r4, r5, r6, lr}
 80027e2:	4604      	mov	r4, r0
 80027e4:	460d      	mov	r5, r1
 80027e6:	4616      	mov	r6, r2
		will not actually cause the task to block, just place it on a blocked
		list.  It will not block until the scheduler is unlocked - at which
		time a yield will be performed.  If an item is added to the queue while
		the queue is locked, and the calling task blocks on the queue, then the
		calling task will be immediately unblocked when the queue is unlocked. */
		prvLockQueue( pxQueue );
 80027e8:	f001 fa44 	bl	8003c74 <vPortEnterCritical>
 80027ec:	f894 3044 	ldrb.w	r3, [r4, #68]	@ 0x44
 80027f0:	2bff      	cmp	r3, #255	@ 0xff
 80027f2:	bf04      	itt	eq
 80027f4:	2300      	moveq	r3, #0
 80027f6:	f884 3044 	strbeq.w	r3, [r4, #68]	@ 0x44
 80027fa:	f894 3045 	ldrb.w	r3, [r4, #69]	@ 0x45
 80027fe:	2bff      	cmp	r3, #255	@ 0xff
 8002800:	bf04      	itt	eq
 8002802:	2300      	moveq	r3, #0
 8002804:	f884 3045 	strbeq.w	r3, [r4, #69]	@ 0x45
 8002808:	f001 fa54 	bl	8003cb4 <vPortExitCritical>
		if( pxQueue->uxMessagesWaiting == ( UBaseType_t ) 0U )
 800280c:	6ba3      	ldr	r3, [r4, #56]	@ 0x38
 800280e:	b92b      	cbnz	r3, 800281c <vQueueWaitForMessageRestricted+0x3c>
		{
			/* There is nothing in the queue, block for the specified period. */
			vTaskPlaceOnEventListRestricted( &( pxQueue->xTasksWaitingToReceive ), xTicksToWait, xWaitIndefinitely );
 8002810:	4632      	mov	r2, r6
 8002812:	4629      	mov	r1, r5
 8002814:	f104 0024 	add.w	r0, r4, #36	@ 0x24
 8002818:	f000 fde2 	bl	80033e0 <vTaskPlaceOnEventListRestricted>
		}
		else
		{
			mtCOVERAGE_TEST_MARKER();
		}
		prvUnlockQueue( pxQueue );
 800281c:	4620      	mov	r0, r4
	}
 800281e:	e8bd 4070 	ldmia.w	sp!, {r4, r5, r6, lr}
		prvUnlockQueue( pxQueue );
 8002822:	f7ff bd5b 	b.w	80022dc <prvUnlockQueue>

08002826 <prvBytesInBuffer>:
static size_t prvBytesInBuffer( const StreamBuffer_t * const pxStreamBuffer )
{
/* Returns the distance between xTail and xHead. */
size_t xCount;

	xCount = pxStreamBuffer->xLength + pxStreamBuffer->xHead;
 8002826:	6882      	ldr	r2, [r0, #8]
 8002828:	6843      	ldr	r3, [r0, #4]
	xCount -= pxStreamBuffer->xTail;
 800282a:	6800      	ldr	r0, [r0, #0]
	xCount = pxStreamBuffer->xLength + pxStreamBuffer->xHead;
 800282c:	4413      	add	r3, r2
	xCount -= pxStreamBuffer->xTail;
 800282e:	1a18      	subs	r0, r3, r0
	if ( xCount >= pxStreamBuffer->xLength )
 8002830:	4282      	cmp	r2, r0
	{
		xCount -= pxStreamBuffer->xLength;
 8002832:	bf98      	it	ls
 8002834:	1a80      	subls	r0, r0, r2
	{
		mtCOVERAGE_TEST_MARKER();
	}

	return xCount;
}
 8002836:	4770      	bx	lr

08002838 <prvReadBytesFromBuffer>:
	xCount = configMIN( xBytesAvailable, xMaxCount );
 8002838:	4293      	cmp	r3, r2
 800283a:	bf28      	it	cs
 800283c:	4613      	movcs	r3, r2
{
 800283e:	e92d 41f0 	stmdb	sp!, {r4, r5, r6, r7, r8, lr}
 8002842:	4606      	mov	r6, r0
 8002844:	4688      	mov	r8, r1
	xCount = configMIN( xBytesAvailable, xMaxCount );
 8002846:	461d      	mov	r5, r3
	if( xCount > ( size_t ) 0 )
 8002848:	b383      	cbz	r3, 80028ac <prvReadBytesFromBuffer+0x74>
		xNextTail = pxStreamBuffer->xTail;
 800284a:	6804      	ldr	r4, [r0, #0]
		xFirstLength = configMIN( pxStreamBuffer->xLength - xNextTail, xCount );
 800284c:	6883      	ldr	r3, [r0, #8]
 800284e:	1b1f      	subs	r7, r3, r4
 8002850:	42af      	cmp	r7, r5
 8002852:	bf28      	it	cs
 8002854:	462f      	movcs	r7, r5
		configASSERT( xFirstLength <= xMaxCount );
 8002856:	42ba      	cmp	r2, r7
 8002858:	d208      	bcs.n	800286c <prvReadBytesFromBuffer+0x34>
 800285a:	f04f 0350 	mov.w	r3, #80	@ 0x50
 800285e:	f383 8811 	msr	BASEPRI, r3
 8002862:	f3bf 8f6f 	isb	sy
 8002866:	f3bf 8f4f 	dsb	sy
 800286a:	e7fe      	b.n	800286a <prvReadBytesFromBuffer+0x32>
		configASSERT( ( xNextTail + xFirstLength ) <= pxStreamBuffer->xLength );
 800286c:	19e2      	adds	r2, r4, r7
 800286e:	4293      	cmp	r3, r2
 8002870:	d208      	bcs.n	8002884 <prvReadBytesFromBuffer+0x4c>
 8002872:	f04f 0350 	mov.w	r3, #80	@ 0x50
 8002876:	f383 8811 	msr	BASEPRI, r3
 800287a:	f3bf 8f6f 	isb	sy
 800287e:	f3bf 8f4f 	dsb	sy
 8002882:	e7fe      	b.n	8002882 <prvReadBytesFromBuffer+0x4a>
		( void ) memcpy( ( void * ) pucData, ( const void * ) &( pxStreamBuffer->pucBuffer[ xNextTail ] ), xFirstLength ); /*lint !e9087 memcpy() requires void *. */
 8002884:	6981      	ldr	r1, [r0, #24]
 8002886:	463a      	mov	r2, r7
 8002888:	4421      	add	r1, r4
 800288a:	4640      	mov	r0, r8
 800288c:	f002 fc97 	bl	80051be <memcpy>
		if( xCount > xFirstLength )
 8002890:	42bd      	cmp	r5, r7
 8002892:	d905      	bls.n	80028a0 <prvReadBytesFromBuffer+0x68>
			( void ) memcpy( ( void * ) &( pucData[ xFirstLength ] ), ( void * ) ( pxStreamBuffer->pucBuffer ), xCount - xFirstLength ); /*lint !e9087 memcpy() requires void *. */
 8002894:	69b1      	ldr	r1, [r6, #24]
 8002896:	1bea      	subs	r2, r5, r7
 8002898:	eb08 0007 	add.w	r0, r8, r7
 800289c:	f002 fc8f 	bl	80051be <memcpy>
		if( xNextTail >= pxStreamBuffer->xLength )
 80028a0:	68b3      	ldr	r3, [r6, #8]
		xNextTail += xCount;
 80028a2:	442c      	add	r4, r5
		if( xNextTail >= pxStreamBuffer->xLength )
 80028a4:	42a3      	cmp	r3, r4
			xNextTail -= pxStreamBuffer->xLength;
 80028a6:	bf98      	it	ls
 80028a8:	1ae4      	subls	r4, r4, r3
		pxStreamBuffer->xTail = xNextTail;
 80028aa:	6034      	str	r4, [r6, #0]
}
 80028ac:	4628      	mov	r0, r5
 80028ae:	e8bd 81f0 	ldmia.w	sp!, {r4, r5, r6, r7, r8, pc}

080028b2 <prvInitialiseNewStreamBuffer>:
static void prvInitialiseNewStreamBuffer( StreamBuffer_t * const pxStreamBuffer,
										  uint8_t * const pucBuffer,
										  size_t xBufferSizeBytes,
										  size_t xTriggerLevelBytes,
										  uint8_t ucFlags )
{
 80028b2:	e92d 41f0 	stmdb	sp!, {r4, r5, r6, r7, r8, lr}
 80028b6:	460e      	mov	r6, r1
 80028b8:	4604      	mov	r4, r0
	{
		/* The value written just has to be identifiable when looking at the
		memory.  Don't use 0xA5 as that is the stack fill value and could
		result in confusion as to what is actually being observed. */
		const BaseType_t xWriteValue = 0x55;
		configASSERT( memset( pucBuffer, ( int ) xWriteValue, xBufferSizeBytes ) == pucBuffer );
 80028ba:	2155      	movs	r1, #85	@ 0x55
 80028bc:	4630      	mov	r0, r6
{
 80028be:	4690      	mov	r8, r2
 80028c0:	461f      	mov	r7, r3
		configASSERT( memset( pucBuffer, ( int ) xWriteValue, xBufferSizeBytes ) == pucBuffer );
 80028c2:	f002 fb9e 	bl	8005002 <memset>
 80028c6:	42b0      	cmp	r0, r6
 80028c8:	4605      	mov	r5, r0
 80028ca:	d008      	beq.n	80028de <prvInitialiseNewStreamBuffer+0x2c>
 80028cc:	f04f 0350 	mov.w	r3, #80	@ 0x50
 80028d0:	f383 8811 	msr	BASEPRI, r3
 80028d4:	f3bf 8f6f 	isb	sy
 80028d8:	f3bf 8f4f 	dsb	sy
 80028dc:	e7fe      	b.n	80028dc <prvInitialiseNewStreamBuffer+0x2a>
	} /*lint !e529 !e438 xWriteValue is only used if configASSERT() is defined. */
	#endif

	( void ) memset( ( void * ) pxStreamBuffer, 0x00, sizeof( StreamBuffer_t ) ); /*lint !e9087 memset() requires void *. */
 80028de:	2224      	movs	r2, #36	@ 0x24
 80028e0:	2100      	movs	r1, #0
 80028e2:	4620      	mov	r0, r4
 80028e4:	f002 fb8d 	bl	8005002 <memset>
	pxStreamBuffer->pucBuffer = pucBuffer;
	pxStreamBuffer->xLength = xBufferSizeBytes;
	pxStreamBuffer->xTriggerLevelBytes = xTriggerLevelBytes;
	pxStreamBuffer->ucFlags = ucFlags;
 80028e8:	f89d 3018 	ldrb.w	r3, [sp, #24]
 80028ec:	7723      	strb	r3, [r4, #28]
	pxStreamBuffer->xTriggerLevelBytes = xTriggerLevelBytes;
 80028ee:	e9c4 8702 	strd	r8, r7, [r4, #8]
	pxStreamBuffer->pucBuffer = pucBuffer;
 80028f2:	61a5      	str	r5, [r4, #24]
}
 80028f4:	e8bd 81f0 	ldmia.w	sp!, {r4, r5, r6, r7, r8, pc}

080028f8 <prvWriteBytesToBuffer.part.0>:
static size_t prvWriteBytesToBuffer( StreamBuffer_t * const pxStreamBuffer, const uint8_t *pucData, size_t xCount )
 80028f8:	e92d 41f0 	stmdb	sp!, {r4, r5, r6, r7, r8, lr}
	xFirstLength = configMIN( pxStreamBuffer->xLength - xNextHead, xCount );
 80028fc:	6883      	ldr	r3, [r0, #8]
	xNextHead = pxStreamBuffer->xHead;
 80028fe:	6845      	ldr	r5, [r0, #4]
	xFirstLength = configMIN( pxStreamBuffer->xLength - xNextHead, xCount );
 8002900:	1b5f      	subs	r7, r3, r5
 8002902:	4297      	cmp	r7, r2
 8002904:	bf28      	it	cs
 8002906:	4617      	movcs	r7, r2
static size_t prvWriteBytesToBuffer( StreamBuffer_t * const pxStreamBuffer, const uint8_t *pucData, size_t xCount )
 8002908:	4616      	mov	r6, r2
	configASSERT( ( xNextHead + xFirstLength ) <= pxStreamBuffer->xLength );
 800290a:	19ea      	adds	r2, r5, r7
 800290c:	4293      	cmp	r3, r2
static size_t prvWriteBytesToBuffer( StreamBuffer_t * const pxStreamBuffer, const uint8_t *pucData, size_t xCount )
 800290e:	4604      	mov	r4, r0
 8002910:	4688      	mov	r8, r1
	configASSERT( ( xNextHead + xFirstLength ) <= pxStreamBuffer->xLength );
 8002912:	d208      	bcs.n	8002926 <prvWriteBytesToBuffer.part.0+0x2e>
 8002914:	f04f 0350 	mov.w	r3, #80	@ 0x50
 8002918:	f383 8811 	msr	BASEPRI, r3
 800291c:	f3bf 8f6f 	isb	sy
 8002920:	f3bf 8f4f 	dsb	sy
 8002924:	e7fe      	b.n	8002924 <prvWriteBytesToBuffer.part.0+0x2c>
	( void ) memcpy( ( void* ) ( &( pxStreamBuffer->pucBuffer[ xNextHead ] ) ), ( const void * ) pucData, xFirstLength ); /*lint !e9087 memcpy() requires void *. */
 8002926:	6980      	ldr	r0, [r0, #24]
 8002928:	463a      	mov	r2, r7
 800292a:	4428      	add	r0, r5
 800292c:	f002 fc47 	bl	80051be <memcpy>
	if( xCount > xFirstLength )
 8002930:	42be      	cmp	r6, r7
 8002932:	d911      	bls.n	8002958 <prvWriteBytesToBuffer.part.0+0x60>
		configASSERT( ( xCount - xFirstLength ) <= pxStreamBuffer->xLength );
 8002934:	68a3      	ldr	r3, [r4, #8]
 8002936:	1bf2      	subs	r2, r6, r7
 8002938:	429a      	cmp	r2, r3
 800293a:	d908      	bls.n	800294e <prvWriteBytesToBuffer.part.0+0x56>
 800293c:	f04f 0350 	mov.w	r3, #80	@ 0x50
 8002940:	f383 8811 	msr	BASEPRI, r3
 8002944:	f3bf 8f6f 	isb	sy
 8002948:	f3bf 8f4f 	dsb	sy
 800294c:	e7fe      	b.n	800294c <prvWriteBytesToBuffer.part.0+0x54>
		( void ) memcpy( ( void * ) pxStreamBuffer->pucBuffer, ( const void * ) &( pucData[ xFirstLength ] ), xCount - xFirstLength ); /*lint !e9087 memcpy() requires void *. */
 800294e:	69a0      	ldr	r0, [r4, #24]
 8002950:	eb08 0107 	add.w	r1, r8, r7
 8002954:	f002 fc33 	bl	80051be <memcpy>
	if( xNextHead >= pxStreamBuffer->xLength )
 8002958:	68a3      	ldr	r3, [r4, #8]
	xNextHead += xCount;
 800295a:	4435      	add	r5, r6
	if( xNextHead >= pxStreamBuffer->xLength )
 800295c:	429d      	cmp	r5, r3
		xNextHead -= pxStreamBuffer->xLength;
 800295e:	bf28      	it	cs
 8002960:	1aed      	subcs	r5, r5, r3
	pxStreamBuffer->xHead = xNextHead;
 8002962:	6065      	str	r5, [r4, #4]
}
 8002964:	4630      	mov	r0, r6
 8002966:	e8bd 81f0 	ldmia.w	sp!, {r4, r5, r6, r7, r8, pc}

0800296a <prvWriteMessageToBuffer>:
{
 800296a:	b537      	push	{r0, r1, r2, r4, r5, lr}
 800296c:	4604      	mov	r4, r0
 800296e:	460d      	mov	r5, r1
 8002970:	9201      	str	r2, [sp, #4]
	if( xSpace == ( size_t ) 0 )
 8002972:	b1fb      	cbz	r3, 80029b4 <prvWriteMessageToBuffer+0x4a>
	else if( ( pxStreamBuffer->ucFlags & sbFLAGS_IS_MESSAGE_BUFFER ) == ( uint8_t ) 0 )
 8002974:	7f01      	ldrb	r1, [r0, #28]
 8002976:	07c9      	lsls	r1, r1, #31
 8002978:	d40e      	bmi.n	8002998 <prvWriteMessageToBuffer+0x2e>
		xDataLengthBytes = configMIN( xDataLengthBytes, xSpace );
 800297a:	429a      	cmp	r2, r3
 800297c:	bf94      	ite	ls
 800297e:	9201      	strls	r2, [sp, #4]
 8002980:	9301      	strhi	r3, [sp, #4]
		xReturn = prvWriteBytesToBuffer( pxStreamBuffer, ( const uint8_t * ) pvTxData, xDataLengthBytes ); /*lint !e9079 Storage buffer is implemented as uint8_t for ease of sizing, alighment and access. */
 8002982:	9a01      	ldr	r2, [sp, #4]
	configASSERT( xCount > ( size_t ) 0 );
 8002984:	b98a      	cbnz	r2, 80029aa <prvWriteMessageToBuffer+0x40>
 8002986:	f04f 0350 	mov.w	r3, #80	@ 0x50
 800298a:	f383 8811 	msr	BASEPRI, r3
 800298e:	f3bf 8f6f 	isb	sy
 8002992:	f3bf 8f4f 	dsb	sy
 8002996:	e7fe      	b.n	8002996 <prvWriteMessageToBuffer+0x2c>
	else if( xSpace >= xRequiredSpace )
 8002998:	9a06      	ldr	r2, [sp, #24]
 800299a:	4293      	cmp	r3, r2
 800299c:	d30d      	bcc.n	80029ba <prvWriteMessageToBuffer+0x50>
	configASSERT( xCount > ( size_t ) 0 );
 800299e:	2204      	movs	r2, #4
 80029a0:	eb0d 0102 	add.w	r1, sp, r2
 80029a4:	f7ff ffa8 	bl	80028f8 <prvWriteBytesToBuffer.part.0>
	if( xShouldWrite != pdFALSE )
 80029a8:	e7eb      	b.n	8002982 <prvWriteMessageToBuffer+0x18>
 80029aa:	4629      	mov	r1, r5
 80029ac:	4620      	mov	r0, r4
 80029ae:	f7ff ffa3 	bl	80028f8 <prvWriteBytesToBuffer.part.0>
 80029b2:	4603      	mov	r3, r0
}
 80029b4:	4618      	mov	r0, r3
 80029b6:	b003      	add	sp, #12
 80029b8:	bd30      	pop	{r4, r5, pc}
		xReturn = 0;
 80029ba:	2300      	movs	r3, #0
 80029bc:	e7fa      	b.n	80029b4 <prvWriteMessageToBuffer+0x4a>

080029be <xStreamBufferGenericCreate>:
		if( xIsMessageBuffer == pdTRUE )
 80029be:	2a01      	cmp	r2, #1
	{
 80029c0:	b5f7      	push	{r0, r1, r2, r4, r5, r6, r7, lr}
 80029c2:	4604      	mov	r4, r0
 80029c4:	460f      	mov	r7, r1
 80029c6:	4615      	mov	r5, r2
		if( xIsMessageBuffer == pdTRUE )
 80029c8:	d10a      	bne.n	80029e0 <xStreamBufferGenericCreate+0x22>
			configASSERT( xBufferSizeBytes > sbBYTES_TO_STORE_MESSAGE_LENGTH );
 80029ca:	2804      	cmp	r0, #4
 80029cc:	d813      	bhi.n	80029f6 <xStreamBufferGenericCreate+0x38>
 80029ce:	f04f 0350 	mov.w	r3, #80	@ 0x50
 80029d2:	f383 8811 	msr	BASEPRI, r3
 80029d6:	f3bf 8f6f 	isb	sy
 80029da:	f3bf 8f4f 	dsb	sy
 80029de:	e7fe      	b.n	80029de <xStreamBufferGenericCreate+0x20>
			configASSERT( xBufferSizeBytes > 0 );
 80029e0:	b940      	cbnz	r0, 80029f4 <xStreamBufferGenericCreate+0x36>
 80029e2:	f04f 0350 	mov.w	r3, #80	@ 0x50
 80029e6:	f383 8811 	msr	BASEPRI, r3
 80029ea:	f3bf 8f6f 	isb	sy
 80029ee:	f3bf 8f4f 	dsb	sy
 80029f2:	e7fe      	b.n	80029f2 <xStreamBufferGenericCreate+0x34>
			ucFlags = 0;
 80029f4:	2500      	movs	r5, #0
		configASSERT( xTriggerLevelBytes <= xBufferSizeBytes );
 80029f6:	42bc      	cmp	r4, r7
 80029f8:	d208      	bcs.n	8002a0c <xStreamBufferGenericCreate+0x4e>
 80029fa:	f04f 0350 	mov.w	r3, #80	@ 0x50
 80029fe:	f383 8811 	msr	BASEPRI, r3
 8002a02:	f3bf 8f6f 	isb	sy
 8002a06:	f3bf 8f4f 	dsb	sy
 8002a0a:	e7fe      	b.n	8002a0a <xStreamBufferGenericCreate+0x4c>
		pucAllocatedMemory = ( uint8_t * ) pvPortMalloc( xBufferSizeBytes + sizeof( StreamBuffer_t ) ); /*lint !e9079 malloc() only returns void*. */
 8002a0c:	f104 0025 	add.w	r0, r4, #37	@ 0x25
 8002a10:	f001 fa96 	bl	8003f40 <pvPortMalloc>
		if( pucAllocatedMemory != NULL )
 8002a14:	4606      	mov	r6, r0
 8002a16:	b148      	cbz	r0, 8002a2c <xStreamBufferGenericCreate+0x6e>
			prvInitialiseNewStreamBuffer( ( StreamBuffer_t * ) pucAllocatedMemory, /* Structure at the start of the allocated memory. */ /*lint !e9087 Safe cast as allocated memory is aligned. */ /*lint !e826 Area is not too small and alignment is guaranteed provided malloc() behaves as expected and returns aligned buffer. */
 8002a18:	2f01      	cmp	r7, #1
 8002a1a:	463b      	mov	r3, r7
 8002a1c:	9500      	str	r5, [sp, #0]
 8002a1e:	bf38      	it	cc
 8002a20:	2301      	movcc	r3, #1
 8002a22:	1c62      	adds	r2, r4, #1
 8002a24:	f100 0124 	add.w	r1, r0, #36	@ 0x24
 8002a28:	f7ff ff43 	bl	80028b2 <prvInitialiseNewStreamBuffer>
	}
 8002a2c:	4630      	mov	r0, r6
 8002a2e:	b003      	add	sp, #12
 8002a30:	bdf0      	pop	{r4, r5, r6, r7, pc}

08002a32 <xStreamBufferSpacesAvailable>:
	configASSERT( pxStreamBuffer );
 8002a32:	b940      	cbnz	r0, 8002a46 <xStreamBufferSpacesAvailable+0x14>
 8002a34:	f04f 0350 	mov.w	r3, #80	@ 0x50
 8002a38:	f383 8811 	msr	BASEPRI, r3
 8002a3c:	f3bf 8f6f 	isb	sy
 8002a40:	f3bf 8f4f 	dsb	sy
 8002a44:	e7fe      	b.n	8002a44 <xStreamBufferSpacesAvailable+0x12>
	xSpace = pxStreamBuffer->xLength + pxStreamBuffer->xTail;
 8002a46:	6882      	ldr	r2, [r0, #8]
 8002a48:	6803      	ldr	r3, [r0, #0]
	xSpace -= pxStreamBuffer->xHead;
 8002a4a:	6841      	ldr	r1, [r0, #4]
	xSpace = pxStreamBuffer->xLength + pxStreamBuffer->xTail;
 8002a4c:	18d0      	adds	r0, r2, r3
 8002a4e:	3801      	subs	r0, #1
	xSpace -= ( size_t ) 1;
 8002a50:	1a40      	subs	r0, r0, r1
	if( xSpace >= pxStreamBuffer->xLength )
 8002a52:	4282      	cmp	r2, r0
		xSpace -= pxStreamBuffer->xLength;
 8002a54:	bf98      	it	ls
 8002a56:	1a80      	subls	r0, r0, r2
}
 8002a58:	4770      	bx	lr

08002a5a <xStreamBufferSend>:
{
 8002a5a:	e92d 43f0 	stmdb	sp!, {r4, r5, r6, r7, r8, r9, lr}
 8002a5e:	b087      	sub	sp, #28
 8002a60:	4604      	mov	r4, r0
 8002a62:	4616      	mov	r6, r2
 8002a64:	9303      	str	r3, [sp, #12]
	configASSERT( pvTxData );
 8002a66:	4688      	mov	r8, r1
 8002a68:	b941      	cbnz	r1, 8002a7c <xStreamBufferSend+0x22>
 8002a6a:	f04f 0350 	mov.w	r3, #80	@ 0x50
 8002a6e:	f383 8811 	msr	BASEPRI, r3
 8002a72:	f3bf 8f6f 	isb	sy
 8002a76:	f3bf 8f4f 	dsb	sy
 8002a7a:	e7fe      	b.n	8002a7a <xStreamBufferSend+0x20>
	configASSERT( pxStreamBuffer );
 8002a7c:	b940      	cbnz	r0, 8002a90 <xStreamBufferSend+0x36>
 8002a7e:	f04f 0350 	mov.w	r3, #80	@ 0x50
 8002a82:	f383 8811 	msr	BASEPRI, r3
 8002a86:	f3bf 8f6f 	isb	sy
 8002a8a:	f3bf 8f4f 	dsb	sy
 8002a8e:	e7fe      	b.n	8002a8e <xStreamBufferSend+0x34>
	if( ( pxStreamBuffer->ucFlags & sbFLAGS_IS_MESSAGE_BUFFER ) != ( uint8_t ) 0 )
 8002a90:	7f03      	ldrb	r3, [r0, #28]
 8002a92:	07db      	lsls	r3, r3, #31
 8002a94:	d50c      	bpl.n	8002ab0 <xStreamBufferSend+0x56>
		xRequiredSpace += sbBYTES_TO_STORE_MESSAGE_LENGTH;
 8002a96:	f102 0904 	add.w	r9, r2, #4
		configASSERT( xRequiredSpace > xDataLengthBytes );
 8002a9a:	454a      	cmp	r2, r9
 8002a9c:	d309      	bcc.n	8002ab2 <xStreamBufferSend+0x58>
 8002a9e:	f04f 0350 	mov.w	r3, #80	@ 0x50
 8002aa2:	f383 8811 	msr	BASEPRI, r3
 8002aa6:	f3bf 8f6f 	isb	sy
 8002aaa:	f3bf 8f4f 	dsb	sy
 8002aae:	e7fe      	b.n	8002aae <xStreamBufferSend+0x54>
size_t xRequiredSpace = xDataLengthBytes;
 8002ab0:	4691      	mov	r9, r2
	if( xTicksToWait != ( TickType_t ) 0 )
 8002ab2:	9b03      	ldr	r3, [sp, #12]
 8002ab4:	bb2b      	cbnz	r3, 8002b02 <xStreamBufferSend+0xa8>
		xSpace = xStreamBufferSpacesAvailable( pxStreamBuffer );
 8002ab6:	4620      	mov	r0, r4
 8002ab8:	f7ff ffbb 	bl	8002a32 <xStreamBufferSpacesAvailable>
 8002abc:	4605      	mov	r5, r0
	xReturn = prvWriteMessageToBuffer( pxStreamBuffer, pvTxData, xDataLengthBytes, xSpace, xRequiredSpace );
 8002abe:	462b      	mov	r3, r5
 8002ac0:	f8cd 9000 	str.w	r9, [sp]
 8002ac4:	4632      	mov	r2, r6
 8002ac6:	4641      	mov	r1, r8
 8002ac8:	4620      	mov	r0, r4
 8002aca:	f7ff ff4e 	bl	800296a <prvWriteMessageToBuffer>
	if( xReturn > ( size_t ) 0 )
 8002ace:	4605      	mov	r5, r0
 8002ad0:	b198      	cbz	r0, 8002afa <xStreamBufferSend+0xa0>
		if( prvBytesInBuffer( pxStreamBuffer ) >= pxStreamBuffer->xTriggerLevelBytes )
 8002ad2:	4620      	mov	r0, r4
 8002ad4:	f7ff fea7 	bl	8002826 <prvBytesInBuffer>
 8002ad8:	68e3      	ldr	r3, [r4, #12]
 8002ada:	4298      	cmp	r0, r3
 8002adc:	d30d      	bcc.n	8002afa <xStreamBufferSend+0xa0>
			sbSEND_COMPLETED( pxStreamBuffer );
 8002ade:	f000 fae9 	bl	80030b4 <vTaskSuspendAll>
 8002ae2:	6923      	ldr	r3, [r4, #16]
 8002ae4:	b13b      	cbz	r3, 8002af6 <xStreamBufferSend+0x9c>
 8002ae6:	2300      	movs	r3, #0
 8002ae8:	461a      	mov	r2, r3
 8002aea:	4619      	mov	r1, r3
 8002aec:	6920      	ldr	r0, [r4, #16]
 8002aee:	f000 fde1 	bl	80036b4 <xTaskGenericNotify>
 8002af2:	2300      	movs	r3, #0
 8002af4:	6123      	str	r3, [r4, #16]
 8002af6:	f000 fb81 	bl	80031fc <xTaskResumeAll>
}
 8002afa:	4628      	mov	r0, r5
 8002afc:	b007      	add	sp, #28
 8002afe:	e8bd 83f0 	ldmia.w	sp!, {r4, r5, r6, r7, r8, r9, pc}
		vTaskSetTimeOutState( &xTimeOut );
 8002b02:	a804      	add	r0, sp, #16
 8002b04:	f000 fcca 	bl	800349c <vTaskSetTimeOutState>
			taskENTER_CRITICAL();
 8002b08:	f001 f8b4 	bl	8003c74 <vPortEnterCritical>
				xSpace = xStreamBufferSpacesAvailable( pxStreamBuffer );
 8002b0c:	4620      	mov	r0, r4
 8002b0e:	f7ff ff90 	bl	8002a32 <xStreamBufferSpacesAvailable>
				if( xSpace < xRequiredSpace )
 8002b12:	4581      	cmp	r9, r0
				xSpace = xStreamBufferSpacesAvailable( pxStreamBuffer );
 8002b14:	4605      	mov	r5, r0
				if( xSpace < xRequiredSpace )
 8002b16:	d922      	bls.n	8002b5e <xStreamBufferSend+0x104>
					( void ) xTaskNotifyStateClear( NULL );
 8002b18:	2000      	movs	r0, #0
 8002b1a:	f000 fe43 	bl	80037a4 <xTaskNotifyStateClear>
					configASSERT( pxStreamBuffer->xTaskWaitingToSend == NULL );
 8002b1e:	6967      	ldr	r7, [r4, #20]
 8002b20:	b147      	cbz	r7, 8002b34 <xStreamBufferSend+0xda>
 8002b22:	f04f 0350 	mov.w	r3, #80	@ 0x50
 8002b26:	f383 8811 	msr	BASEPRI, r3
 8002b2a:	f3bf 8f6f 	isb	sy
 8002b2e:	f3bf 8f4f 	dsb	sy
 8002b32:	e7fe      	b.n	8002b32 <xStreamBufferSend+0xd8>
					pxStreamBuffer->xTaskWaitingToSend = xTaskGetCurrentTaskHandle();
 8002b34:	f000 fd1c 	bl	8003570 <xTaskGetCurrentTaskHandle>
 8002b38:	6160      	str	r0, [r4, #20]
			taskEXIT_CRITICAL();
 8002b3a:	f001 f8bb 	bl	8003cb4 <vPortExitCritical>
			( void ) xTaskNotifyWait( ( uint32_t ) 0, ( uint32_t ) 0, NULL, xTicksToWait );
 8002b3e:	4639      	mov	r1, r7
 8002b40:	9b03      	ldr	r3, [sp, #12]
 8002b42:	463a      	mov	r2, r7
 8002b44:	4638      	mov	r0, r7
 8002b46:	f000 fd6b 	bl	8003620 <xTaskNotifyWait>
			pxStreamBuffer->xTaskWaitingToSend = NULL;
 8002b4a:	6167      	str	r7, [r4, #20]
		} while( xTaskCheckForTimeOut( &xTimeOut, &xTicksToWait ) == pdFALSE );
 8002b4c:	a903      	add	r1, sp, #12
 8002b4e:	a804      	add	r0, sp, #16
 8002b50:	f000 fccc 	bl	80034ec <xTaskCheckForTimeOut>
 8002b54:	2800      	cmp	r0, #0
 8002b56:	d0d7      	beq.n	8002b08 <xStreamBufferSend+0xae>
	if( xSpace == ( size_t ) 0 )
 8002b58:	2d00      	cmp	r5, #0
 8002b5a:	d0ac      	beq.n	8002ab6 <xStreamBufferSend+0x5c>
 8002b5c:	e7af      	b.n	8002abe <xStreamBufferSend+0x64>
					taskEXIT_CRITICAL();
 8002b5e:	f001 f8a9 	bl	8003cb4 <vPortExitCritical>
					break;
 8002b62:	e7f9      	b.n	8002b58 <xStreamBufferSend+0xfe>

08002b64 <xStreamBufferReceive>:
{
 8002b64:	e92d 47f3 	stmdb	sp!, {r0, r1, r4, r5, r6, r7, r8, r9, sl, lr}
 8002b68:	4604      	mov	r4, r0
 8002b6a:	4616      	mov	r6, r2
 8002b6c:	469a      	mov	sl, r3
	configASSERT( pvRxData );
 8002b6e:	460f      	mov	r7, r1
 8002b70:	b941      	cbnz	r1, 8002b84 <xStreamBufferReceive+0x20>
 8002b72:	f04f 0350 	mov.w	r3, #80	@ 0x50
 8002b76:	f383 8811 	msr	BASEPRI, r3
 8002b7a:	f3bf 8f6f 	isb	sy
 8002b7e:	f3bf 8f4f 	dsb	sy
 8002b82:	e7fe      	b.n	8002b82 <xStreamBufferReceive+0x1e>
	configASSERT( pxStreamBuffer );
 8002b84:	b940      	cbnz	r0, 8002b98 <xStreamBufferReceive+0x34>
 8002b86:	f04f 0350 	mov.w	r3, #80	@ 0x50
 8002b8a:	f383 8811 	msr	BASEPRI, r3
 8002b8e:	f3bf 8f6f 	isb	sy
 8002b92:	f3bf 8f4f 	dsb	sy
 8002b96:	e7fe      	b.n	8002b96 <xStreamBufferReceive+0x32>
	if( ( pxStreamBuffer->ucFlags & sbFLAGS_IS_MESSAGE_BUFFER ) != ( uint8_t ) 0 )
 8002b98:	f890 801c 	ldrb.w	r8, [r0, #28]
 8002b9c:	f008 0801 	and.w	r8, r8, #1
 8002ba0:	ea4f 0988 	mov.w	r9, r8, lsl #2
	if( xTicksToWait != ( TickType_t ) 0 )
 8002ba4:	2b00      	cmp	r3, #0
 8002ba6:	d050      	beq.n	8002c4a <xStreamBufferReceive+0xe6>
		taskENTER_CRITICAL();
 8002ba8:	f001 f864 	bl	8003c74 <vPortEnterCritical>
			xBytesAvailable = prvBytesInBuffer( pxStreamBuffer );
 8002bac:	4620      	mov	r0, r4
 8002bae:	f7ff fe3a 	bl	8002826 <prvBytesInBuffer>
			if( xBytesAvailable <= xBytesToStoreMessageLength )
 8002bb2:	4581      	cmp	r9, r0
			xBytesAvailable = prvBytesInBuffer( pxStreamBuffer );
 8002bb4:	4605      	mov	r5, r0
			if( xBytesAvailable <= xBytesToStoreMessageLength )
 8002bb6:	d22d      	bcs.n	8002c14 <xStreamBufferReceive+0xb0>
		taskEXIT_CRITICAL();
 8002bb8:	f001 f87c 	bl	8003cb4 <vPortExitCritical>
	if( xBytesToStoreMessageLength != ( size_t ) 0 )
 8002bbc:	f1b8 0f00 	cmp.w	r8, #0
 8002bc0:	d011      	beq.n	8002be6 <xStreamBufferReceive+0x82>
		( void ) prvReadBytesFromBuffer( pxStreamBuffer, ( uint8_t * ) &xTempNextMessageLength, xBytesToStoreMessageLength, xBytesAvailable );
 8002bc2:	2204      	movs	r2, #4
 8002bc4:	462b      	mov	r3, r5
 8002bc6:	eb0d 0102 	add.w	r1, sp, r2
 8002bca:	4620      	mov	r0, r4
		xOriginalTail = pxStreamBuffer->xTail;
 8002bcc:	f8d4 8000 	ldr.w	r8, [r4]
		( void ) prvReadBytesFromBuffer( pxStreamBuffer, ( uint8_t * ) &xTempNextMessageLength, xBytesToStoreMessageLength, xBytesAvailable );
 8002bd0:	f7ff fe32 	bl	8002838 <prvReadBytesFromBuffer>
		xNextMessageLength = ( size_t ) xTempNextMessageLength;
 8002bd4:	9b01      	ldr	r3, [sp, #4]
		if( xNextMessageLength > xBufferLengthBytes )
 8002bd6:	429e      	cmp	r6, r3
		xBytesAvailable -= xBytesToStoreMessageLength;
 8002bd8:	f1a5 0504 	sub.w	r5, r5, #4
			pxStreamBuffer->xTail = xOriginalTail;
 8002bdc:	bf3a      	itte	cc
 8002bde:	f8c4 8000 	strcc.w	r8, [r4]
			xNextMessageLength = 0;
 8002be2:	2600      	movcc	r6, #0
		xNextMessageLength = ( size_t ) xTempNextMessageLength;
 8002be4:	461e      	movcs	r6, r3
	xReceivedLength = prvReadBytesFromBuffer( pxStreamBuffer, ( uint8_t * ) pvRxData, xNextMessageLength, xBytesAvailable ); /*lint !e9079 Data storage area is implemented as uint8_t array for ease of sizing, indexing and alignment. */
 8002be6:	462b      	mov	r3, r5
 8002be8:	4632      	mov	r2, r6
 8002bea:	4639      	mov	r1, r7
 8002bec:	4620      	mov	r0, r4
 8002bee:	f7ff fe23 	bl	8002838 <prvReadBytesFromBuffer>
		if( xReceivedLength != ( size_t ) 0 )
 8002bf2:	4605      	mov	r5, r0
 8002bf4:	b370      	cbz	r0, 8002c54 <xStreamBufferReceive+0xf0>
			sbRECEIVE_COMPLETED( pxStreamBuffer );
 8002bf6:	f000 fa5d 	bl	80030b4 <vTaskSuspendAll>
 8002bfa:	6963      	ldr	r3, [r4, #20]
 8002bfc:	b13b      	cbz	r3, 8002c0e <xStreamBufferReceive+0xaa>
 8002bfe:	2300      	movs	r3, #0
 8002c00:	461a      	mov	r2, r3
 8002c02:	4619      	mov	r1, r3
 8002c04:	6960      	ldr	r0, [r4, #20]
 8002c06:	f000 fd55 	bl	80036b4 <xTaskGenericNotify>
 8002c0a:	2300      	movs	r3, #0
 8002c0c:	6163      	str	r3, [r4, #20]
 8002c0e:	f000 faf5 	bl	80031fc <xTaskResumeAll>
	return xReceivedLength;
 8002c12:	e020      	b.n	8002c56 <xStreamBufferReceive+0xf2>
				( void ) xTaskNotifyStateClear( NULL );
 8002c14:	2000      	movs	r0, #0
 8002c16:	f000 fdc5 	bl	80037a4 <xTaskNotifyStateClear>
				configASSERT( pxStreamBuffer->xTaskWaitingToReceive == NULL );
 8002c1a:	6925      	ldr	r5, [r4, #16]
 8002c1c:	b145      	cbz	r5, 8002c30 <xStreamBufferReceive+0xcc>
 8002c1e:	f04f 0350 	mov.w	r3, #80	@ 0x50
 8002c22:	f383 8811 	msr	BASEPRI, r3
 8002c26:	f3bf 8f6f 	isb	sy
 8002c2a:	f3bf 8f4f 	dsb	sy
 8002c2e:	e7fe      	b.n	8002c2e <xStreamBufferReceive+0xca>
				pxStreamBuffer->xTaskWaitingToReceive = xTaskGetCurrentTaskHandle();
 8002c30:	f000 fc9e 	bl	8003570 <xTaskGetCurrentTaskHandle>
 8002c34:	6120      	str	r0, [r4, #16]
		taskEXIT_CRITICAL();
 8002c36:	f001 f83d 	bl	8003cb4 <vPortExitCritical>
			( void ) xTaskNotifyWait( ( uint32_t ) 0, ( uint32_t ) 0, NULL, xTicksToWait );
 8002c3a:	4653      	mov	r3, sl
 8002c3c:	462a      	mov	r2, r5
 8002c3e:	4629      	mov	r1, r5
 8002c40:	4628      	mov	r0, r5
 8002c42:	f000 fced 	bl	8003620 <xTaskNotifyWait>
			pxStreamBuffer->xTaskWaitingToReceive = NULL;
 8002c46:	6125      	str	r5, [r4, #16]
			xBytesAvailable = prvBytesInBuffer( pxStreamBuffer );
 8002c48:	4620      	mov	r0, r4
		xBytesAvailable = prvBytesInBuffer( pxStreamBuffer );
 8002c4a:	f7ff fdec 	bl	8002826 <prvBytesInBuffer>
	if( xBytesAvailable > xBytesToStoreMessageLength )
 8002c4e:	4581      	cmp	r9, r0
		xBytesAvailable = prvBytesInBuffer( pxStreamBuffer );
 8002c50:	4605      	mov	r5, r0
	if( xBytesAvailable > xBytesToStoreMessageLength )
 8002c52:	d3b3      	bcc.n	8002bbc <xStreamBufferReceive+0x58>
size_t xReceivedLength = 0, xBytesAvailable, xBytesToStoreMessageLength;
 8002c54:	2500      	movs	r5, #0
}
 8002c56:	4628      	mov	r0, r5
 8002c58:	b002      	add	sp, #8
 8002c5a:	e8bd 87f0 	ldmia.w	sp!, {r4, r5, r6, r7, r8, r9, sl, pc}
	...

08002c60 <prvAddNewTaskToReadyList>:
	}
}
/*-----------------------------------------------------------*/

static void prvAddNewTaskToReadyList( TCB_t *pxNewTCB )
{
 8002c60:	e92d 41f0 	stmdb	sp!, {r4, r5, r6, r7, r8, lr}
 8002c64:	4604      	mov	r4, r0
	/* Ensure interrupts don't access the task lists while the lists are being
	updated. */
	taskENTER_CRITICAL();
 8002c66:	f001 f805 	bl	8003c74 <vPortEnterCritical>
	{
		uxCurrentNumberOfTasks++;
 8002c6a:	4b30      	ldr	r3, [pc, #192]	@ (8002d2c <prvAddNewTaskToReadyList+0xcc>)
		if( pxCurrentTCB == NULL )
 8002c6c:	4e30      	ldr	r6, [pc, #192]	@ (8002d30 <prvAddNewTaskToReadyList+0xd0>)
		uxCurrentNumberOfTasks++;
 8002c6e:	681a      	ldr	r2, [r3, #0]
 8002c70:	4f30      	ldr	r7, [pc, #192]	@ (8002d34 <prvAddNewTaskToReadyList+0xd4>)
 8002c72:	3201      	adds	r2, #1
 8002c74:	601a      	str	r2, [r3, #0]
		if( pxCurrentTCB == NULL )
 8002c76:	6835      	ldr	r5, [r6, #0]
 8002c78:	2d00      	cmp	r5, #0
 8002c7a:	d14b      	bne.n	8002d14 <prvAddNewTaskToReadyList+0xb4>
		{
			/* There are no other tasks, or all the other tasks are in
			the suspended state - make this the current task. */
			pxCurrentTCB = pxNewTCB;
 8002c7c:	6034      	str	r4, [r6, #0]

			if( uxCurrentNumberOfTasks == ( UBaseType_t ) 1 )
 8002c7e:	681b      	ldr	r3, [r3, #0]
 8002c80:	2b01      	cmp	r3, #1
 8002c82:	d11f      	bne.n	8002cc4 <prvAddNewTaskToReadyList+0x64>
 8002c84:	46b8      	mov	r8, r7
{
UBaseType_t uxPriority;

	for( uxPriority = ( UBaseType_t ) 0U; uxPriority < ( UBaseType_t ) configMAX_PRIORITIES; uxPriority++ )
	{
		vListInitialise( &( pxReadyTasksLists[ uxPriority ] ) );
 8002c86:	4640      	mov	r0, r8
	for( uxPriority = ( UBaseType_t ) 0U; uxPriority < ( UBaseType_t ) configMAX_PRIORITIES; uxPriority++ )
 8002c88:	3501      	adds	r5, #1
		vListInitialise( &( pxReadyTasksLists[ uxPriority ] ) );
 8002c8a:	f7ff fa93 	bl	80021b4 <vListInitialise>
	for( uxPriority = ( UBaseType_t ) 0U; uxPriority < ( UBaseType_t ) configMAX_PRIORITIES; uxPriority++ )
 8002c8e:	2d38      	cmp	r5, #56	@ 0x38
 8002c90:	f108 0814 	add.w	r8, r8, #20
 8002c94:	d1f7      	bne.n	8002c86 <prvAddNewTaskToReadyList+0x26>
	}

	vListInitialise( &xDelayedTaskList1 );
 8002c96:	f8df 80c4 	ldr.w	r8, [pc, #196]	@ 8002d5c <prvAddNewTaskToReadyList+0xfc>
	vListInitialise( &xDelayedTaskList2 );
 8002c9a:	4d27      	ldr	r5, [pc, #156]	@ (8002d38 <prvAddNewTaskToReadyList+0xd8>)
	vListInitialise( &xDelayedTaskList1 );
 8002c9c:	4640      	mov	r0, r8
 8002c9e:	f7ff fa89 	bl	80021b4 <vListInitialise>
	vListInitialise( &xDelayedTaskList2 );
 8002ca2:	4628      	mov	r0, r5
 8002ca4:	f7ff fa86 	bl	80021b4 <vListInitialise>
	vListInitialise( &xPendingReadyList );
 8002ca8:	4824      	ldr	r0, [pc, #144]	@ (8002d3c <prvAddNewTaskToReadyList+0xdc>)
 8002caa:	f7ff fa83 	bl	80021b4 <vListInitialise>

	#if ( INCLUDE_vTaskDelete == 1 )
	{
		vListInitialise( &xTasksWaitingTermination );
 8002cae:	4824      	ldr	r0, [pc, #144]	@ (8002d40 <prvAddNewTaskToReadyList+0xe0>)
 8002cb0:	f7ff fa80 	bl	80021b4 <vListInitialise>
	}
	#endif /* INCLUDE_vTaskDelete */

	#if ( INCLUDE_vTaskSuspend == 1 )
	{
		vListInitialise( &xSuspendedTaskList );
 8002cb4:	4823      	ldr	r0, [pc, #140]	@ (8002d44 <prvAddNewTaskToReadyList+0xe4>)
 8002cb6:	f7ff fa7d 	bl	80021b4 <vListInitialise>
	}
	#endif /* INCLUDE_vTaskSuspend */

	/* Start with pxDelayedTaskList using list1 and the pxOverflowDelayedTaskList
	using list2. */
	pxDelayedTaskList = &xDelayedTaskList1;
 8002cba:	4b23      	ldr	r3, [pc, #140]	@ (8002d48 <prvAddNewTaskToReadyList+0xe8>)
 8002cbc:	f8c3 8000 	str.w	r8, [r3]
	pxOverflowDelayedTaskList = &xDelayedTaskList2;
 8002cc0:	4b22      	ldr	r3, [pc, #136]	@ (8002d4c <prvAddNewTaskToReadyList+0xec>)
 8002cc2:	601d      	str	r5, [r3, #0]
		uxTaskNumber++;
 8002cc4:	4a22      	ldr	r2, [pc, #136]	@ (8002d50 <prvAddNewTaskToReadyList+0xf0>)
 8002cc6:	6813      	ldr	r3, [r2, #0]
 8002cc8:	3301      	adds	r3, #1
 8002cca:	6013      	str	r3, [r2, #0]
		prvAddTaskToReadyList( pxNewTCB );
 8002ccc:	4a21      	ldr	r2, [pc, #132]	@ (8002d54 <prvAddNewTaskToReadyList+0xf4>)
			pxNewTCB->uxTCBNumber = uxTaskNumber;
 8002cce:	6463      	str	r3, [r4, #68]	@ 0x44
		prvAddTaskToReadyList( pxNewTCB );
 8002cd0:	6811      	ldr	r1, [r2, #0]
 8002cd2:	6ae3      	ldr	r3, [r4, #44]	@ 0x2c
 8002cd4:	2014      	movs	r0, #20
 8002cd6:	428b      	cmp	r3, r1
 8002cd8:	fb00 7003 	mla	r0, r0, r3, r7
 8002cdc:	f104 0104 	add.w	r1, r4, #4
 8002ce0:	bf88      	it	hi
 8002ce2:	6013      	strhi	r3, [r2, #0]
 8002ce4:	f7ff fa74 	bl	80021d0 <vListInsertEnd>
	taskEXIT_CRITICAL();
 8002ce8:	f000 ffe4 	bl	8003cb4 <vPortExitCritical>
	if( xSchedulerRunning != pdFALSE )
 8002cec:	4b1a      	ldr	r3, [pc, #104]	@ (8002d58 <prvAddNewTaskToReadyList+0xf8>)
 8002cee:	681b      	ldr	r3, [r3, #0]
 8002cf0:	b173      	cbz	r3, 8002d10 <prvAddNewTaskToReadyList+0xb0>
		if( pxCurrentTCB->uxPriority < pxNewTCB->uxPriority )
 8002cf2:	6833      	ldr	r3, [r6, #0]
 8002cf4:	6ada      	ldr	r2, [r3, #44]	@ 0x2c
 8002cf6:	6ae3      	ldr	r3, [r4, #44]	@ 0x2c
 8002cf8:	429a      	cmp	r2, r3
 8002cfa:	d209      	bcs.n	8002d10 <prvAddNewTaskToReadyList+0xb0>
			taskYIELD_IF_USING_PREEMPTION();
 8002cfc:	f04f 23e0 	mov.w	r3, #3758153728	@ 0xe000e000
 8002d00:	f04f 5280 	mov.w	r2, #268435456	@ 0x10000000
 8002d04:	f8c3 2d04 	str.w	r2, [r3, #3332]	@ 0xd04
 8002d08:	f3bf 8f4f 	dsb	sy
 8002d0c:	f3bf 8f6f 	isb	sy
}
 8002d10:	e8bd 81f0 	ldmia.w	sp!, {r4, r5, r6, r7, r8, pc}
			if( xSchedulerRunning == pdFALSE )
 8002d14:	4b10      	ldr	r3, [pc, #64]	@ (8002d58 <prvAddNewTaskToReadyList+0xf8>)
 8002d16:	681a      	ldr	r2, [r3, #0]
				if( pxCurrentTCB->uxPriority <= pxNewTCB->uxPriority )
 8002d18:	6ae3      	ldr	r3, [r4, #44]	@ 0x2c
			if( xSchedulerRunning == pdFALSE )
 8002d1a:	2a00      	cmp	r2, #0
 8002d1c:	d1d2      	bne.n	8002cc4 <prvAddNewTaskToReadyList+0x64>
				if( pxCurrentTCB->uxPriority <= pxNewTCB->uxPriority )
 8002d1e:	6832      	ldr	r2, [r6, #0]
 8002d20:	6ad2      	ldr	r2, [r2, #44]	@ 0x2c
 8002d22:	429a      	cmp	r2, r3
					pxCurrentTCB = pxNewTCB;
 8002d24:	bf98      	it	ls
 8002d26:	6034      	strls	r4, [r6, #0]
 8002d28:	e7cc      	b.n	8002cc4 <prvAddNewTaskToReadyList+0x64>
 8002d2a:	bf00      	nop
 8002d2c:	20000a8c 	.word	0x20000a8c
 8002d30:	20000f60 	.word	0x20000f60
 8002d34:	20000b00 	.word	0x20000b00
 8002d38:	20000ad8 	.word	0x20000ad8
 8002d3c:	20000abc 	.word	0x20000abc
 8002d40:	20000aa8 	.word	0x20000aa8
 8002d44:	20000a90 	.word	0x20000a90
 8002d48:	20000ad4 	.word	0x20000ad4
 8002d4c:	20000ad0 	.word	0x20000ad0
 8002d50:	20000a70 	.word	0x20000a70
 8002d54:	20000a84 	.word	0x20000a84
 8002d58:	20000a80 	.word	0x20000a80
 8002d5c:	20000aec 	.word	0x20000aec

08002d60 <prvAddCurrentTaskToDelayedList>:

#endif
/*-----------------------------------------------------------*/

static void prvAddCurrentTaskToDelayedList( TickType_t xTicksToWait, const BaseType_t xCanBlockIndefinitely )
{
 8002d60:	b5f8      	push	{r3, r4, r5, r6, r7, lr}
TickType_t xTimeToWake;
const TickType_t xConstTickCount = xTickCount;
 8002d62:	4b15      	ldr	r3, [pc, #84]	@ (8002db8 <prvAddCurrentTaskToDelayedList+0x58>)
	}
	#endif

	/* Remove the task from the ready list before adding it to the blocked list
	as the same list item is used for both lists. */
	if( uxListRemove( &( pxCurrentTCB->xStateListItem ) ) == ( UBaseType_t ) 0 )
 8002d64:	4d15      	ldr	r5, [pc, #84]	@ (8002dbc <prvAddCurrentTaskToDelayedList+0x5c>)
const TickType_t xConstTickCount = xTickCount;
 8002d66:	681c      	ldr	r4, [r3, #0]
{
 8002d68:	4606      	mov	r6, r0
	if( uxListRemove( &( pxCurrentTCB->xStateListItem ) ) == ( UBaseType_t ) 0 )
 8002d6a:	6828      	ldr	r0, [r5, #0]
 8002d6c:	3004      	adds	r0, #4
{
 8002d6e:	460f      	mov	r7, r1
	if( uxListRemove( &( pxCurrentTCB->xStateListItem ) ) == ( UBaseType_t ) 0 )
 8002d70:	f7ff fa50 	bl	8002214 <uxListRemove>
		mtCOVERAGE_TEST_MARKER();
	}

	#if ( INCLUDE_vTaskSuspend == 1 )
	{
		if( ( xTicksToWait == portMAX_DELAY ) && ( xCanBlockIndefinitely != pdFALSE ) )
 8002d74:	1c73      	adds	r3, r6, #1
 8002d76:	d107      	bne.n	8002d88 <prvAddCurrentTaskToDelayedList+0x28>
 8002d78:	b137      	cbz	r7, 8002d88 <prvAddCurrentTaskToDelayedList+0x28>
		{
			/* Add the task to the suspended task list instead of a delayed task
			list to ensure it is not woken by a timing event.  It will block
			indefinitely. */
			vListInsertEnd( &xSuspendedTaskList, &( pxCurrentTCB->xStateListItem ) );
 8002d7a:	6829      	ldr	r1, [r5, #0]
 8002d7c:	4810      	ldr	r0, [pc, #64]	@ (8002dc0 <prvAddCurrentTaskToDelayedList+0x60>)

		/* Avoid compiler warning when INCLUDE_vTaskSuspend is not 1. */
		( void ) xCanBlockIndefinitely;
	}
	#endif /* INCLUDE_vTaskSuspend */
}
 8002d7e:	e8bd 40f8 	ldmia.w	sp!, {r3, r4, r5, r6, r7, lr}
			vListInsertEnd( &xSuspendedTaskList, &( pxCurrentTCB->xStateListItem ) );
 8002d82:	3104      	adds	r1, #4
 8002d84:	f7ff ba24 	b.w	80021d0 <vListInsertEnd>
			listSET_LIST_ITEM_VALUE( &( pxCurrentTCB->xStateListItem ), xTimeToWake );
 8002d88:	682b      	ldr	r3, [r5, #0]
 8002d8a:	19a4      	adds	r4, r4, r6
 8002d8c:	605c      	str	r4, [r3, #4]
			if( xTimeToWake < xConstTickCount )
 8002d8e:	d307      	bcc.n	8002da0 <prvAddCurrentTaskToDelayedList+0x40>
				vListInsert( pxOverflowDelayedTaskList, &( pxCurrentTCB->xStateListItem ) );
 8002d90:	4b0c      	ldr	r3, [pc, #48]	@ (8002dc4 <prvAddCurrentTaskToDelayedList+0x64>)
 8002d92:	6818      	ldr	r0, [r3, #0]
 8002d94:	6829      	ldr	r1, [r5, #0]
}
 8002d96:	e8bd 40f8 	ldmia.w	sp!, {r3, r4, r5, r6, r7, lr}
				vListInsert( pxOverflowDelayedTaskList, &( pxCurrentTCB->xStateListItem ) );
 8002d9a:	3104      	adds	r1, #4
 8002d9c:	f7ff ba23 	b.w	80021e6 <vListInsert>
				vListInsert( pxDelayedTaskList, &( pxCurrentTCB->xStateListItem ) );
 8002da0:	4b09      	ldr	r3, [pc, #36]	@ (8002dc8 <prvAddCurrentTaskToDelayedList+0x68>)
 8002da2:	6818      	ldr	r0, [r3, #0]
 8002da4:	6829      	ldr	r1, [r5, #0]
 8002da6:	3104      	adds	r1, #4
 8002da8:	f7ff fa1d 	bl	80021e6 <vListInsert>
				if( xTimeToWake < xNextTaskUnblockTime )
 8002dac:	4b07      	ldr	r3, [pc, #28]	@ (8002dcc <prvAddCurrentTaskToDelayedList+0x6c>)
 8002dae:	681a      	ldr	r2, [r3, #0]
 8002db0:	42a2      	cmp	r2, r4
					xNextTaskUnblockTime = xTimeToWake;
 8002db2:	bf88      	it	hi
 8002db4:	601c      	strhi	r4, [r3, #0]
}
 8002db6:	bdf8      	pop	{r3, r4, r5, r6, r7, pc}
 8002db8:	20000a88 	.word	0x20000a88
 8002dbc:	20000f60 	.word	0x20000f60
 8002dc0:	20000a90 	.word	0x20000a90
 8002dc4:	20000ad0 	.word	0x20000ad0
 8002dc8:	20000ad4 	.word	0x20000ad4
 8002dcc:	20000a6c 	.word	0x20000a6c

08002dd0 <prvResetNextTaskUnblockTime>:
	if( listLIST_IS_EMPTY( pxDelayedTaskList ) != pdFALSE )
 8002dd0:	4a06      	ldr	r2, [pc, #24]	@ (8002dec <prvResetNextTaskUnblockTime+0x1c>)
 8002dd2:	6813      	ldr	r3, [r2, #0]
 8002dd4:	6819      	ldr	r1, [r3, #0]
 8002dd6:	4b06      	ldr	r3, [pc, #24]	@ (8002df0 <prvResetNextTaskUnblockTime+0x20>)
 8002dd8:	b919      	cbnz	r1, 8002de2 <prvResetNextTaskUnblockTime+0x12>
		xNextTaskUnblockTime = portMAX_DELAY;
 8002dda:	f04f 32ff 	mov.w	r2, #4294967295
		xNextTaskUnblockTime = listGET_LIST_ITEM_VALUE( &( ( pxTCB )->xStateListItem ) );
 8002dde:	601a      	str	r2, [r3, #0]
}
 8002de0:	4770      	bx	lr
		( pxTCB ) = listGET_OWNER_OF_HEAD_ENTRY( pxDelayedTaskList ); /*lint !e9079 void * is used as this macro is used with timers and co-routines too.  Alignment is known to be fine as the type of the pointer stored and retrieved is the same. */
 8002de2:	6812      	ldr	r2, [r2, #0]
 8002de4:	68d2      	ldr	r2, [r2, #12]
		xNextTaskUnblockTime = listGET_LIST_ITEM_VALUE( &( ( pxTCB )->xStateListItem ) );
 8002de6:	68d2      	ldr	r2, [r2, #12]
 8002de8:	6852      	ldr	r2, [r2, #4]
 8002dea:	e7f8      	b.n	8002dde <prvResetNextTaskUnblockTime+0xe>
 8002dec:	20000ad4 	.word	0x20000ad4
 8002df0:	20000a6c 	.word	0x20000a6c

08002df4 <prvDeleteTCB>:
	{
 8002df4:	b510      	push	{r4, lr}
 8002df6:	4604      	mov	r4, r0
			_reclaim_reent( &( pxTCB->xNewLib_reent ) );
 8002df8:	3054      	adds	r0, #84	@ 0x54
 8002dfa:	f002 f91f 	bl	800503c <_reclaim_reent>
			if( pxTCB->ucStaticallyAllocated == tskDYNAMICALLY_ALLOCATED_STACK_AND_TCB )
 8002dfe:	f894 30a5 	ldrb.w	r3, [r4, #165]	@ 0xa5
 8002e02:	b93b      	cbnz	r3, 8002e14 <prvDeleteTCB+0x20>
				vPortFree( pxTCB->pxStack );
 8002e04:	6b20      	ldr	r0, [r4, #48]	@ 0x30
 8002e06:	f001 f933 	bl	8004070 <vPortFree>
				vPortFree( pxTCB );
 8002e0a:	4620      	mov	r0, r4
	}
 8002e0c:	e8bd 4010 	ldmia.w	sp!, {r4, lr}
				vPortFree( pxTCB );
 8002e10:	f001 b92e 	b.w	8004070 <vPortFree>
			else if( pxTCB->ucStaticallyAllocated == tskSTATICALLY_ALLOCATED_STACK_ONLY )
 8002e14:	2b01      	cmp	r3, #1
 8002e16:	d0f8      	beq.n	8002e0a <prvDeleteTCB+0x16>
				configASSERT( pxTCB->ucStaticallyAllocated == tskSTATICALLY_ALLOCATED_STACK_AND_TCB	);
 8002e18:	2b02      	cmp	r3, #2
 8002e1a:	d008      	beq.n	8002e2e <prvDeleteTCB+0x3a>
 8002e1c:	f04f 0350 	mov.w	r3, #80	@ 0x50
 8002e20:	f383 8811 	msr	BASEPRI, r3
 8002e24:	f3bf 8f6f 	isb	sy
 8002e28:	f3bf 8f4f 	dsb	sy
 8002e2c:	e7fe      	b.n	8002e2c <prvDeleteTCB+0x38>
	}
 8002e2e:	bd10      	pop	{r4, pc}

08002e30 <prvIdleTask>:
{
 8002e30:	b580      	push	{r7, lr}
		while( uxDeletedTasksWaitingCleanUp > ( UBaseType_t ) 0U )
 8002e32:	4c13      	ldr	r4, [pc, #76]	@ (8002e80 <prvIdleTask+0x50>)
				pxTCB = listGET_OWNER_OF_HEAD_ENTRY( ( &xTasksWaitingTermination ) ); /*lint !e9079 void * is used as this macro is used with timers and co-routines too.  Alignment is known to be fine as the type of the pointer stored and retrieved is the same. */
 8002e34:	4f13      	ldr	r7, [pc, #76]	@ (8002e84 <prvIdleTask+0x54>)
				--uxCurrentNumberOfTasks;
 8002e36:	4d14      	ldr	r5, [pc, #80]	@ (8002e88 <prvIdleTask+0x58>)
		while( uxDeletedTasksWaitingCleanUp > ( UBaseType_t ) 0U )
 8002e38:	6823      	ldr	r3, [r4, #0]
 8002e3a:	b973      	cbnz	r3, 8002e5a <prvIdleTask+0x2a>
			if( listCURRENT_LIST_LENGTH( &( pxReadyTasksLists[ tskIDLE_PRIORITY ] ) ) > ( UBaseType_t ) 1 )
 8002e3c:	4b13      	ldr	r3, [pc, #76]	@ (8002e8c <prvIdleTask+0x5c>)
 8002e3e:	681b      	ldr	r3, [r3, #0]
 8002e40:	2b01      	cmp	r3, #1
 8002e42:	d9f8      	bls.n	8002e36 <prvIdleTask+0x6>
				taskYIELD();
 8002e44:	f04f 23e0 	mov.w	r3, #3758153728	@ 0xe000e000
 8002e48:	f04f 5280 	mov.w	r2, #268435456	@ 0x10000000
 8002e4c:	f8c3 2d04 	str.w	r2, [r3, #3332]	@ 0xd04
 8002e50:	f3bf 8f4f 	dsb	sy
 8002e54:	f3bf 8f6f 	isb	sy
 8002e58:	e7ed      	b.n	8002e36 <prvIdleTask+0x6>
			taskENTER_CRITICAL();
 8002e5a:	f000 ff0b 	bl	8003c74 <vPortEnterCritical>
				pxTCB = listGET_OWNER_OF_HEAD_ENTRY( ( &xTasksWaitingTermination ) ); /*lint !e9079 void * is used as this macro is used with timers and co-routines too.  Alignment is known to be fine as the type of the pointer stored and retrieved is the same. */
 8002e5e:	68fb      	ldr	r3, [r7, #12]
 8002e60:	68de      	ldr	r6, [r3, #12]
				( void ) uxListRemove( &( pxTCB->xStateListItem ) );
 8002e62:	1d30      	adds	r0, r6, #4
 8002e64:	f7ff f9d6 	bl	8002214 <uxListRemove>
				--uxCurrentNumberOfTasks;
 8002e68:	682b      	ldr	r3, [r5, #0]
 8002e6a:	3b01      	subs	r3, #1
 8002e6c:	602b      	str	r3, [r5, #0]
				--uxDeletedTasksWaitingCleanUp;
 8002e6e:	6823      	ldr	r3, [r4, #0]
 8002e70:	3b01      	subs	r3, #1
 8002e72:	6023      	str	r3, [r4, #0]
			taskEXIT_CRITICAL();
 8002e74:	f000 ff1e 	bl	8003cb4 <vPortExitCritical>
			prvDeleteTCB( pxTCB );
 8002e78:	4630      	mov	r0, r6
 8002e7a:	f7ff ffbb 	bl	8002df4 <prvDeleteTCB>
 8002e7e:	e7db      	b.n	8002e38 <prvIdleTask+0x8>
 8002e80:	20000aa4 	.word	0x20000aa4
 8002e84:	20000aa8 	.word	0x20000aa8
 8002e88:	20000a8c 	.word	0x20000a8c
 8002e8c:	20000b00 	.word	0x20000b00

08002e90 <prvInitialiseNewTask.constprop.0>:
static void prvInitialiseNewTask( 	TaskFunction_t pxTaskCode,
 8002e90:	e92d 47f0 	stmdb	sp!, {r4, r5, r6, r7, r8, r9, sl, lr}
 8002e94:	e9dd 9409 	ldrd	r9, r4, [sp, #36]	@ 0x24
		( void ) memset( pxNewTCB->pxStack, ( int ) tskSTACK_FILL_BYTE, ( size_t ) ulStackDepth * sizeof( StackType_t ) );
 8002e98:	0096      	lsls	r6, r2, #2
 8002e9a:	4632      	mov	r2, r6
static void prvInitialiseNewTask( 	TaskFunction_t pxTaskCode,
 8002e9c:	4607      	mov	r7, r0
 8002e9e:	460d      	mov	r5, r1
		( void ) memset( pxNewTCB->pxStack, ( int ) tskSTACK_FILL_BYTE, ( size_t ) ulStackDepth * sizeof( StackType_t ) );
 8002ea0:	6b20      	ldr	r0, [r4, #48]	@ 0x30
 8002ea2:	21a5      	movs	r1, #165	@ 0xa5
static void prvInitialiseNewTask( 	TaskFunction_t pxTaskCode,
 8002ea4:	4698      	mov	r8, r3
		( void ) memset( pxNewTCB->pxStack, ( int ) tskSTACK_FILL_BYTE, ( size_t ) ulStackDepth * sizeof( StackType_t ) );
 8002ea6:	f002 f8ac 	bl	8005002 <memset>
		pxTopOfStack = &( pxNewTCB->pxStack[ ulStackDepth - ( uint32_t ) 1 ] );
 8002eaa:	6b23      	ldr	r3, [r4, #48]	@ 0x30
 8002eac:	3e04      	subs	r6, #4
 8002eae:	441e      	add	r6, r3
		pxTopOfStack = ( StackType_t * ) ( ( ( portPOINTER_SIZE_TYPE ) pxTopOfStack ) & ( ~( ( portPOINTER_SIZE_TYPE ) portBYTE_ALIGNMENT_MASK ) ) ); /*lint !e923 !e9033 !e9078 MISRA exception.  Avoiding casts between pointers and integers is not practical.  Size differences accounted for using portPOINTER_SIZE_TYPE type.  Checked by assert(). */
 8002eb0:	f026 0607 	bic.w	r6, r6, #7
	if( pcName != NULL )
 8002eb4:	2d00      	cmp	r5, #0
 8002eb6:	d041      	beq.n	8002f3c <prvInitialiseNewTask.constprop.0+0xac>
 8002eb8:	1e6b      	subs	r3, r5, #1
 8002eba:	f104 0233 	add.w	r2, r4, #51	@ 0x33
 8002ebe:	350f      	adds	r5, #15
			pxNewTCB->pcTaskName[ x ] = pcName[ x ];
 8002ec0:	f813 1f01 	ldrb.w	r1, [r3, #1]!
 8002ec4:	f802 1f01 	strb.w	r1, [r2, #1]!
			if( pcName[ x ] == ( char ) 0x00 )
 8002ec8:	b109      	cbz	r1, 8002ece <prvInitialiseNewTask.constprop.0+0x3e>
		for( x = ( UBaseType_t ) 0; x < ( UBaseType_t ) configMAX_TASK_NAME_LEN; x++ )
 8002eca:	42ab      	cmp	r3, r5
 8002ecc:	d1f8      	bne.n	8002ec0 <prvInitialiseNewTask.constprop.0+0x30>
		pxNewTCB->pcTaskName[ configMAX_TASK_NAME_LEN - 1 ] = '\0';
 8002ece:	2300      	movs	r3, #0
 8002ed0:	f884 3043 	strb.w	r3, [r4, #67]	@ 0x43
	if( uxPriority >= ( UBaseType_t ) configMAX_PRIORITIES )
 8002ed4:	9d08      	ldr	r5, [sp, #32]
 8002ed6:	2d37      	cmp	r5, #55	@ 0x37
 8002ed8:	bf28      	it	cs
 8002eda:	2537      	movcs	r5, #55	@ 0x37
		pxNewTCB->uxMutexesHeld = 0;
 8002edc:	f04f 0a00 	mov.w	sl, #0
	pxNewTCB->uxPriority = uxPriority;
 8002ee0:	62e5      	str	r5, [r4, #44]	@ 0x2c
		pxNewTCB->uxBasePriority = uxPriority;
 8002ee2:	64e5      	str	r5, [r4, #76]	@ 0x4c
	vListInitialiseItem( &( pxNewTCB->xStateListItem ) );
 8002ee4:	1d20      	adds	r0, r4, #4
		pxNewTCB->uxMutexesHeld = 0;
 8002ee6:	f8c4 a050 	str.w	sl, [r4, #80]	@ 0x50
	vListInitialiseItem( &( pxNewTCB->xStateListItem ) );
 8002eea:	f7ff f96e 	bl	80021ca <vListInitialiseItem>
	listSET_LIST_ITEM_VALUE( &( pxNewTCB->xEventListItem ), ( TickType_t ) configMAX_PRIORITIES - ( TickType_t ) uxPriority ); /*lint !e961 MISRA exception as the casts are only redundant for some ports. */
 8002eee:	f1c5 0538 	rsb	r5, r5, #56	@ 0x38
	vListInitialiseItem( &( pxNewTCB->xEventListItem ) );
 8002ef2:	f104 0018 	add.w	r0, r4, #24
 8002ef6:	f7ff f968 	bl	80021ca <vListInitialiseItem>
		pxNewTCB->ulNotifiedValue = 0;
 8002efa:	f8c4 a0a0 	str.w	sl, [r4, #160]	@ 0xa0
		_REENT_INIT_PTR( ( &( pxNewTCB->xNewLib_reent ) ) );
 8002efe:	224c      	movs	r2, #76	@ 0x4c
 8002f00:	4651      	mov	r1, sl
	listSET_LIST_ITEM_OWNER( &( pxNewTCB->xStateListItem ), pxNewTCB );
 8002f02:	6124      	str	r4, [r4, #16]
	listSET_LIST_ITEM_VALUE( &( pxNewTCB->xEventListItem ), ( TickType_t ) configMAX_PRIORITIES - ( TickType_t ) uxPriority ); /*lint !e961 MISRA exception as the casts are only redundant for some ports. */
 8002f04:	61a5      	str	r5, [r4, #24]
	listSET_LIST_ITEM_OWNER( &( pxNewTCB->xEventListItem ), pxNewTCB );
 8002f06:	6264      	str	r4, [r4, #36]	@ 0x24
		pxNewTCB->ucNotifyState = taskNOT_WAITING_NOTIFICATION;
 8002f08:	f884 a0a4 	strb.w	sl, [r4, #164]	@ 0xa4
		_REENT_INIT_PTR( ( &( pxNewTCB->xNewLib_reent ) ) );
 8002f0c:	f104 0054 	add.w	r0, r4, #84	@ 0x54
 8002f10:	f002 f877 	bl	8005002 <memset>
 8002f14:	4b0b      	ldr	r3, [pc, #44]	@ (8002f44 <prvInitialiseNewTask.constprop.0+0xb4>)
 8002f16:	65a3      	str	r3, [r4, #88]	@ 0x58
 8002f18:	f103 0268 	add.w	r2, r3, #104	@ 0x68
 8002f1c:	33d0      	adds	r3, #208	@ 0xd0
 8002f1e:	65e2      	str	r2, [r4, #92]	@ 0x5c
 8002f20:	6623      	str	r3, [r4, #96]	@ 0x60
			pxNewTCB->pxTopOfStack = pxPortInitialiseStack( pxTopOfStack, pxTaskCode, pvParameters );
 8002f22:	4642      	mov	r2, r8
 8002f24:	4639      	mov	r1, r7
 8002f26:	4630      	mov	r0, r6
 8002f28:	f000 fe78 	bl	8003c1c <pxPortInitialiseStack>
 8002f2c:	6020      	str	r0, [r4, #0]
	if( pxCreatedTask != NULL )
 8002f2e:	f1b9 0f00 	cmp.w	r9, #0
 8002f32:	d001      	beq.n	8002f38 <prvInitialiseNewTask.constprop.0+0xa8>
		*pxCreatedTask = ( TaskHandle_t ) pxNewTCB;
 8002f34:	f8c9 4000 	str.w	r4, [r9]
}
 8002f38:	e8bd 87f0 	ldmia.w	sp!, {r4, r5, r6, r7, r8, r9, sl, pc}
		pxNewTCB->pcTaskName[ 0 ] = 0x00;
 8002f3c:	f884 5034 	strb.w	r5, [r4, #52]	@ 0x34
 8002f40:	e7c8      	b.n	8002ed4 <prvInitialiseNewTask.constprop.0+0x44>
 8002f42:	bf00      	nop
 8002f44:	20004cb8 	.word	0x20004cb8

08002f48 <xTaskCreateStatic>:
	{
 8002f48:	b570      	push	{r4, r5, r6, lr}
 8002f4a:	b086      	sub	sp, #24
 8002f4c:	e9dd 540b 	ldrd	r5, r4, [sp, #44]	@ 0x2c
		configASSERT( puxStackBuffer != NULL );
 8002f50:	b945      	cbnz	r5, 8002f64 <xTaskCreateStatic+0x1c>
 8002f52:	f04f 0350 	mov.w	r3, #80	@ 0x50
 8002f56:	f383 8811 	msr	BASEPRI, r3
 8002f5a:	f3bf 8f6f 	isb	sy
 8002f5e:	f3bf 8f4f 	dsb	sy
 8002f62:	e7fe      	b.n	8002f62 <xTaskCreateStatic+0x1a>
		configASSERT( pxTaskBuffer != NULL );
 8002f64:	b944      	cbnz	r4, 8002f78 <xTaskCreateStatic+0x30>
 8002f66:	f04f 0350 	mov.w	r3, #80	@ 0x50
 8002f6a:	f383 8811 	msr	BASEPRI, r3
 8002f6e:	f3bf 8f6f 	isb	sy
 8002f72:	f3bf 8f4f 	dsb	sy
 8002f76:	e7fe      	b.n	8002f76 <xTaskCreateStatic+0x2e>
			volatile size_t xSize = sizeof( StaticTask_t );
 8002f78:	26a8      	movs	r6, #168	@ 0xa8
 8002f7a:	9605      	str	r6, [sp, #20]
			configASSERT( xSize == sizeof( TCB_t ) );
 8002f7c:	9e05      	ldr	r6, [sp, #20]
 8002f7e:	2ea8      	cmp	r6, #168	@ 0xa8
 8002f80:	d008      	beq.n	8002f94 <xTaskCreateStatic+0x4c>
 8002f82:	f04f 0350 	mov.w	r3, #80	@ 0x50
 8002f86:	f383 8811 	msr	BASEPRI, r3
 8002f8a:	f3bf 8f6f 	isb	sy
 8002f8e:	f3bf 8f4f 	dsb	sy
 8002f92:	e7fe      	b.n	8002f92 <xTaskCreateStatic+0x4a>
			pxNewTCB->pxStack = ( StackType_t * ) puxStackBuffer;
 8002f94:	6325      	str	r5, [r4, #48]	@ 0x30
				pxNewTCB->ucStaticallyAllocated = tskSTATICALLY_ALLOCATED_STACK_AND_TCB;
 8002f96:	2502      	movs	r5, #2
 8002f98:	f884 50a5 	strb.w	r5, [r4, #165]	@ 0xa5
			prvInitialiseNewTask( pxTaskCode, pcName, ulStackDepth, pvParameters, uxPriority, &xReturn, pxNewTCB, NULL );
 8002f9c:	ad04      	add	r5, sp, #16
 8002f9e:	9501      	str	r5, [sp, #4]
 8002fa0:	9d0a      	ldr	r5, [sp, #40]	@ 0x28
 8002fa2:	9402      	str	r4, [sp, #8]
 8002fa4:	9500      	str	r5, [sp, #0]
			( void ) xSize; /* Prevent lint warning when configASSERT() is not used. */
 8002fa6:	9e05      	ldr	r6, [sp, #20]
			prvInitialiseNewTask( pxTaskCode, pcName, ulStackDepth, pvParameters, uxPriority, &xReturn, pxNewTCB, NULL );
 8002fa8:	f7ff ff72 	bl	8002e90 <prvInitialiseNewTask.constprop.0>
			prvAddNewTaskToReadyList( pxNewTCB );
 8002fac:	4620      	mov	r0, r4
 8002fae:	f7ff fe57 	bl	8002c60 <prvAddNewTaskToReadyList>
	}
 8002fb2:	9804      	ldr	r0, [sp, #16]
 8002fb4:	b006      	add	sp, #24
 8002fb6:	bd70      	pop	{r4, r5, r6, pc}

08002fb8 <xTaskCreate>:
	{
 8002fb8:	e92d 43f0 	stmdb	sp!, {r4, r5, r6, r7, r8, r9, lr}
 8002fbc:	4607      	mov	r7, r0
 8002fbe:	b085      	sub	sp, #20
			pxStack = pvPortMalloc( ( ( ( size_t ) usStackDepth ) * sizeof( StackType_t ) ) ); /*lint !e9079 All values returned by pvPortMalloc() have at least the alignment required by the MCU's stack and this allocation is the stack. */
 8002fc0:	0090      	lsls	r0, r2, #2
	{
 8002fc2:	4688      	mov	r8, r1
 8002fc4:	4616      	mov	r6, r2
 8002fc6:	4699      	mov	r9, r3
			pxStack = pvPortMalloc( ( ( ( size_t ) usStackDepth ) * sizeof( StackType_t ) ) ); /*lint !e9079 All values returned by pvPortMalloc() have at least the alignment required by the MCU's stack and this allocation is the stack. */
 8002fc8:	f000 ffba 	bl	8003f40 <pvPortMalloc>
			if( pxStack != NULL )
 8002fcc:	4605      	mov	r5, r0
 8002fce:	b920      	cbnz	r0, 8002fda <xTaskCreate+0x22>
			xReturn = errCOULD_NOT_ALLOCATE_REQUIRED_MEMORY;
 8002fd0:	f04f 30ff 	mov.w	r0, #4294967295
	}
 8002fd4:	b005      	add	sp, #20
 8002fd6:	e8bd 83f0 	ldmia.w	sp!, {r4, r5, r6, r7, r8, r9, pc}
				pxNewTCB = ( TCB_t * ) pvPortMalloc( sizeof( TCB_t ) ); /*lint !e9087 !e9079 All values returned by pvPortMalloc() have at least the alignment required by the MCU's stack, and the first member of TCB_t is always a pointer to the task's stack. */
 8002fda:	20a8      	movs	r0, #168	@ 0xa8
 8002fdc:	f000 ffb0 	bl	8003f40 <pvPortMalloc>
				if( pxNewTCB != NULL )
 8002fe0:	4604      	mov	r4, r0
 8002fe2:	b198      	cbz	r0, 800300c <xTaskCreate+0x54>
				pxNewTCB->ucStaticallyAllocated = tskDYNAMICALLY_ALLOCATED_STACK_AND_TCB;
 8002fe4:	2300      	movs	r3, #0
 8002fe6:	f880 30a5 	strb.w	r3, [r0, #165]	@ 0xa5
			prvInitialiseNewTask( pxTaskCode, pcName, ( uint32_t ) usStackDepth, pvParameters, uxPriority, pxCreatedTask, pxNewTCB, NULL );
 8002fea:	9b0d      	ldr	r3, [sp, #52]	@ 0x34
					pxNewTCB->pxStack = pxStack;
 8002fec:	6305      	str	r5, [r0, #48]	@ 0x30
			prvInitialiseNewTask( pxTaskCode, pcName, ( uint32_t ) usStackDepth, pvParameters, uxPriority, pxCreatedTask, pxNewTCB, NULL );
 8002fee:	9301      	str	r3, [sp, #4]
 8002ff0:	9b0c      	ldr	r3, [sp, #48]	@ 0x30
 8002ff2:	9002      	str	r0, [sp, #8]
 8002ff4:	9300      	str	r3, [sp, #0]
 8002ff6:	4632      	mov	r2, r6
 8002ff8:	464b      	mov	r3, r9
 8002ffa:	4641      	mov	r1, r8
 8002ffc:	4638      	mov	r0, r7
 8002ffe:	f7ff ff47 	bl	8002e90 <prvInitialiseNewTask.constprop.0>
			prvAddNewTaskToReadyList( pxNewTCB );
 8003002:	4620      	mov	r0, r4
 8003004:	f7ff fe2c 	bl	8002c60 <prvAddNewTaskToReadyList>
			xReturn = pdPASS;
 8003008:	2001      	movs	r0, #1
 800300a:	e7e3      	b.n	8002fd4 <xTaskCreate+0x1c>
					vPortFree( pxStack );
 800300c:	4628      	mov	r0, r5
 800300e:	f001 f82f 	bl	8004070 <vPortFree>
		if( pxNewTCB != NULL )
 8003012:	e7dd      	b.n	8002fd0 <xTaskCreate+0x18>

08003014 <vTaskStartScheduler>:
{
 8003014:	b510      	push	{r4, lr}
 8003016:	b088      	sub	sp, #32
		StaticTask_t *pxIdleTaskTCBBuffer = NULL;
 8003018:	2400      	movs	r4, #0
		vApplicationGetIdleTaskMemory( &pxIdleTaskTCBBuffer, &pxIdleTaskStackBuffer, &ulIdleTaskStackSize );
 800301a:	aa07      	add	r2, sp, #28
 800301c:	a906      	add	r1, sp, #24
 800301e:	a805      	add	r0, sp, #20
		StackType_t *pxIdleTaskStackBuffer = NULL;
 8003020:	e9cd 4405 	strd	r4, r4, [sp, #20]
		vApplicationGetIdleTaskMemory( &pxIdleTaskTCBBuffer, &pxIdleTaskStackBuffer, &ulIdleTaskStackSize );
 8003024:	f7ff f8ae 	bl	8002184 <vApplicationGetIdleTaskMemory>
		xIdleTaskHandle = xTaskCreateStatic(	prvIdleTask,
 8003028:	9b05      	ldr	r3, [sp, #20]
 800302a:	9302      	str	r3, [sp, #8]
 800302c:	9b06      	ldr	r3, [sp, #24]
 800302e:	9a07      	ldr	r2, [sp, #28]
 8003030:	4919      	ldr	r1, [pc, #100]	@ (8003098 <vTaskStartScheduler+0x84>)
 8003032:	481a      	ldr	r0, [pc, #104]	@ (800309c <vTaskStartScheduler+0x88>)
 8003034:	e9cd 4300 	strd	r4, r3, [sp]
 8003038:	4623      	mov	r3, r4
 800303a:	f7ff ff85 	bl	8002f48 <xTaskCreateStatic>
		if( xIdleTaskHandle != NULL )
 800303e:	b340      	cbz	r0, 8003092 <vTaskStartScheduler+0x7e>
			xReturn = xTimerCreateTimerTask();
 8003040:	f000 fc18 	bl	8003874 <xTimerCreateTimerTask>
	if( xReturn == pdPASS )
 8003044:	2801      	cmp	r0, #1
 8003046:	d119      	bne.n	800307c <vTaskStartScheduler+0x68>
 8003048:	f04f 0350 	mov.w	r3, #80	@ 0x50
 800304c:	f383 8811 	msr	BASEPRI, r3
 8003050:	f3bf 8f6f 	isb	sy
 8003054:	f3bf 8f4f 	dsb	sy
			_impure_ptr = &( pxCurrentTCB->xNewLib_reent );
 8003058:	4b11      	ldr	r3, [pc, #68]	@ (80030a0 <vTaskStartScheduler+0x8c>)
 800305a:	4a12      	ldr	r2, [pc, #72]	@ (80030a4 <vTaskStartScheduler+0x90>)
 800305c:	681b      	ldr	r3, [r3, #0]
 800305e:	3354      	adds	r3, #84	@ 0x54
 8003060:	6013      	str	r3, [r2, #0]
		xNextTaskUnblockTime = portMAX_DELAY;
 8003062:	4b11      	ldr	r3, [pc, #68]	@ (80030a8 <vTaskStartScheduler+0x94>)
 8003064:	f04f 32ff 	mov.w	r2, #4294967295
 8003068:	601a      	str	r2, [r3, #0]
		xSchedulerRunning = pdTRUE;
 800306a:	4b10      	ldr	r3, [pc, #64]	@ (80030ac <vTaskStartScheduler+0x98>)
 800306c:	6018      	str	r0, [r3, #0]
		xTickCount = ( TickType_t ) configINITIAL_TICK_COUNT;
 800306e:	4b10      	ldr	r3, [pc, #64]	@ (80030b0 <vTaskStartScheduler+0x9c>)
 8003070:	601c      	str	r4, [r3, #0]
}
 8003072:	b008      	add	sp, #32
 8003074:	e8bd 4010 	ldmia.w	sp!, {r4, lr}
		if( xPortStartScheduler() != pdFALSE )
 8003078:	f000 be8c 	b.w	8003d94 <xPortStartScheduler>
		configASSERT( xReturn != errCOULD_NOT_ALLOCATE_REQUIRED_MEMORY );
 800307c:	3001      	adds	r0, #1
 800307e:	d108      	bne.n	8003092 <vTaskStartScheduler+0x7e>
 8003080:	f04f 0350 	mov.w	r3, #80	@ 0x50
 8003084:	f383 8811 	msr	BASEPRI, r3
 8003088:	f3bf 8f6f 	isb	sy
 800308c:	f3bf 8f4f 	dsb	sy
 8003090:	e7fe      	b.n	8003090 <vTaskStartScheduler+0x7c>
}
 8003092:	b008      	add	sp, #32
 8003094:	bd10      	pop	{r4, pc}
 8003096:	bf00      	nop
 8003098:	080088b2 	.word	0x080088b2
 800309c:	08002e31 	.word	0x08002e31
 80030a0:	20000f60 	.word	0x20000f60
 80030a4:	2000001c 	.word	0x2000001c
 80030a8:	20000a6c 	.word	0x20000a6c
 80030ac:	20000a80 	.word	0x20000a80
 80030b0:	20000a88 	.word	0x20000a88

080030b4 <vTaskSuspendAll>:
	++uxSchedulerSuspended;
 80030b4:	4a02      	ldr	r2, [pc, #8]	@ (80030c0 <vTaskSuspendAll+0xc>)
 80030b6:	6813      	ldr	r3, [r2, #0]
 80030b8:	3301      	adds	r3, #1
 80030ba:	6013      	str	r3, [r2, #0]
}
 80030bc:	4770      	bx	lr
 80030be:	bf00      	nop
 80030c0:	20000a68 	.word	0x20000a68

080030c4 <xTaskGetTickCount>:
		xTicks = xTickCount;
 80030c4:	4b01      	ldr	r3, [pc, #4]	@ (80030cc <xTaskGetTickCount+0x8>)
 80030c6:	6818      	ldr	r0, [r3, #0]
}
 80030c8:	4770      	bx	lr
 80030ca:	bf00      	nop
 80030cc:	20000a88 	.word	0x20000a88

080030d0 <xTaskIncrementTick>:
	if( uxSchedulerSuspended == ( UBaseType_t ) pdFALSE )
 80030d0:	4b3f      	ldr	r3, [pc, #252]	@ (80031d0 <xTaskIncrementTick+0x100>)
 80030d2:	681b      	ldr	r3, [r3, #0]
{
 80030d4:	e92d 4ff7 	stmdb	sp!, {r0, r1, r2, r4, r5, r6, r7, r8, r9, sl, fp, lr}
	if( uxSchedulerSuspended == ( UBaseType_t ) pdFALSE )
 80030d8:	2b00      	cmp	r3, #0
 80030da:	d172      	bne.n	80031c2 <xTaskIncrementTick+0xf2>
		const TickType_t xConstTickCount = xTickCount + ( TickType_t ) 1;
 80030dc:	4b3d      	ldr	r3, [pc, #244]	@ (80031d4 <xTaskIncrementTick+0x104>)
 80030de:	681c      	ldr	r4, [r3, #0]
 80030e0:	3401      	adds	r4, #1
		xTickCount = xConstTickCount;
 80030e2:	601c      	str	r4, [r3, #0]
		if( xConstTickCount == ( TickType_t ) 0U ) /*lint !e774 'if' does not always evaluate to false as it is looking for an overflow. */
 80030e4:	b9bc      	cbnz	r4, 8003116 <xTaskIncrementTick+0x46>
			taskSWITCH_DELAYED_LISTS();
 80030e6:	4b3c      	ldr	r3, [pc, #240]	@ (80031d8 <xTaskIncrementTick+0x108>)
 80030e8:	681a      	ldr	r2, [r3, #0]
 80030ea:	6812      	ldr	r2, [r2, #0]
 80030ec:	b142      	cbz	r2, 8003100 <xTaskIncrementTick+0x30>
 80030ee:	f04f 0350 	mov.w	r3, #80	@ 0x50
 80030f2:	f383 8811 	msr	BASEPRI, r3
 80030f6:	f3bf 8f6f 	isb	sy
 80030fa:	f3bf 8f4f 	dsb	sy
 80030fe:	e7fe      	b.n	80030fe <xTaskIncrementTick+0x2e>
 8003100:	4a36      	ldr	r2, [pc, #216]	@ (80031dc <xTaskIncrementTick+0x10c>)
 8003102:	6819      	ldr	r1, [r3, #0]
 8003104:	6810      	ldr	r0, [r2, #0]
 8003106:	6018      	str	r0, [r3, #0]
 8003108:	6011      	str	r1, [r2, #0]
 800310a:	4a35      	ldr	r2, [pc, #212]	@ (80031e0 <xTaskIncrementTick+0x110>)
 800310c:	6813      	ldr	r3, [r2, #0]
 800310e:	3301      	adds	r3, #1
 8003110:	6013      	str	r3, [r2, #0]
 8003112:	f7ff fe5d 	bl	8002dd0 <prvResetNextTaskUnblockTime>
		if( xConstTickCount >= xNextTaskUnblockTime )
 8003116:	4d33      	ldr	r5, [pc, #204]	@ (80031e4 <xTaskIncrementTick+0x114>)
 8003118:	4e33      	ldr	r6, [pc, #204]	@ (80031e8 <xTaskIncrementTick+0x118>)
 800311a:	682b      	ldr	r3, [r5, #0]
 800311c:	4f33      	ldr	r7, [pc, #204]	@ (80031ec <xTaskIncrementTick+0x11c>)
 800311e:	429c      	cmp	r4, r3
BaseType_t xSwitchRequired = pdFALSE;
 8003120:	f04f 0b00 	mov.w	fp, #0
		if( xConstTickCount >= xNextTaskUnblockTime )
 8003124:	d212      	bcs.n	800314c <xTaskIncrementTick+0x7c>
			if( listCURRENT_LIST_LENGTH( &( pxReadyTasksLists[ pxCurrentTCB->uxPriority ] ) ) > ( UBaseType_t ) 1 )
 8003126:	683a      	ldr	r2, [r7, #0]
 8003128:	6ad2      	ldr	r2, [r2, #44]	@ 0x2c
 800312a:	2114      	movs	r1, #20
 800312c:	434a      	muls	r2, r1
 800312e:	58b2      	ldr	r2, [r6, r2]
				xSwitchRequired = pdTRUE;
 8003130:	2a02      	cmp	r2, #2
			if( xYieldPending != pdFALSE )
 8003132:	4a2f      	ldr	r2, [pc, #188]	@ (80031f0 <xTaskIncrementTick+0x120>)
 8003134:	6812      	ldr	r2, [r2, #0]
				xSwitchRequired = pdTRUE;
 8003136:	bf28      	it	cs
 8003138:	f04f 0b01 	movcs.w	fp, #1
				xSwitchRequired = pdTRUE;
 800313c:	2a00      	cmp	r2, #0
 800313e:	bf18      	it	ne
 8003140:	f04f 0b01 	movne.w	fp, #1
}
 8003144:	4658      	mov	r0, fp
 8003146:	b003      	add	sp, #12
 8003148:	e8bd 8ff0 	ldmia.w	sp!, {r4, r5, r6, r7, r8, r9, sl, fp, pc}
				if( listLIST_IS_EMPTY( pxDelayedTaskList ) != pdFALSE )
 800314c:	f8df 9088 	ldr.w	r9, [pc, #136]	@ 80031d8 <xTaskIncrementTick+0x108>
					prvAddTaskToReadyList( pxTCB );
 8003150:	f8df a0a4 	ldr.w	sl, [pc, #164]	@ 80031f8 <xTaskIncrementTick+0x128>
				if( listLIST_IS_EMPTY( pxDelayedTaskList ) != pdFALSE )
 8003154:	f8d9 2000 	ldr.w	r2, [r9]
 8003158:	6812      	ldr	r2, [r2, #0]
 800315a:	b91a      	cbnz	r2, 8003164 <xTaskIncrementTick+0x94>
					xNextTaskUnblockTime = portMAX_DELAY; /*lint !e961 MISRA exception as the casts are only redundant for some ports. */
 800315c:	f04f 32ff 	mov.w	r2, #4294967295
 8003160:	602a      	str	r2, [r5, #0]
					break;
 8003162:	e7e0      	b.n	8003126 <xTaskIncrementTick+0x56>
					pxTCB = listGET_OWNER_OF_HEAD_ENTRY( pxDelayedTaskList ); /*lint !e9079 void * is used as this macro is used with timers and co-routines too.  Alignment is known to be fine as the type of the pointer stored and retrieved is the same. */
 8003164:	f8d9 2000 	ldr.w	r2, [r9]
 8003168:	68d2      	ldr	r2, [r2, #12]
 800316a:	f8d2 800c 	ldr.w	r8, [r2, #12]
					xItemValue = listGET_LIST_ITEM_VALUE( &( pxTCB->xStateListItem ) );
 800316e:	f8d8 1004 	ldr.w	r1, [r8, #4]
					if( xConstTickCount < xItemValue )
 8003172:	428c      	cmp	r4, r1
 8003174:	d201      	bcs.n	800317a <xTaskIncrementTick+0xaa>
						xNextTaskUnblockTime = xItemValue;
 8003176:	6029      	str	r1, [r5, #0]
						break; /*lint !e9011 Code structure here is deedmed easier to understand with multiple breaks. */
 8003178:	e7d5      	b.n	8003126 <xTaskIncrementTick+0x56>
					( void ) uxListRemove( &( pxTCB->xStateListItem ) );
 800317a:	f108 0304 	add.w	r3, r8, #4
 800317e:	4618      	mov	r0, r3
 8003180:	9301      	str	r3, [sp, #4]
 8003182:	f7ff f847 	bl	8002214 <uxListRemove>
					if( listLIST_ITEM_CONTAINER( &( pxTCB->xEventListItem ) ) != NULL )
 8003186:	f8d8 1028 	ldr.w	r1, [r8, #40]	@ 0x28
 800318a:	b119      	cbz	r1, 8003194 <xTaskIncrementTick+0xc4>
						( void ) uxListRemove( &( pxTCB->xEventListItem ) );
 800318c:	f108 0018 	add.w	r0, r8, #24
 8003190:	f7ff f840 	bl	8002214 <uxListRemove>
					prvAddTaskToReadyList( pxTCB );
 8003194:	f8d8 002c 	ldr.w	r0, [r8, #44]	@ 0x2c
 8003198:	f8da 1000 	ldr.w	r1, [sl]
 800319c:	2314      	movs	r3, #20
 800319e:	4288      	cmp	r0, r1
 80031a0:	bf88      	it	hi
 80031a2:	f8ca 0000 	strhi.w	r0, [sl]
 80031a6:	9901      	ldr	r1, [sp, #4]
 80031a8:	fb03 6000 	mla	r0, r3, r0, r6
 80031ac:	f7ff f810 	bl	80021d0 <vListInsertEnd>
						if( pxTCB->uxPriority >= pxCurrentTCB->uxPriority )
 80031b0:	6838      	ldr	r0, [r7, #0]
 80031b2:	f8d8 102c 	ldr.w	r1, [r8, #44]	@ 0x2c
 80031b6:	6ac2      	ldr	r2, [r0, #44]	@ 0x2c
							xSwitchRequired = pdTRUE;
 80031b8:	4291      	cmp	r1, r2
 80031ba:	bf28      	it	cs
 80031bc:	f04f 0b01 	movcs.w	fp, #1
 80031c0:	e7c8      	b.n	8003154 <xTaskIncrementTick+0x84>
		++xPendedTicks;
 80031c2:	4a0c      	ldr	r2, [pc, #48]	@ (80031f4 <xTaskIncrementTick+0x124>)
 80031c4:	6813      	ldr	r3, [r2, #0]
 80031c6:	3301      	adds	r3, #1
 80031c8:	6013      	str	r3, [r2, #0]
BaseType_t xSwitchRequired = pdFALSE;
 80031ca:	f04f 0b00 	mov.w	fp, #0
 80031ce:	e7b9      	b.n	8003144 <xTaskIncrementTick+0x74>
 80031d0:	20000a68 	.word	0x20000a68
 80031d4:	20000a88 	.word	0x20000a88
 80031d8:	20000ad4 	.word	0x20000ad4
 80031dc:	20000ad0 	.word	0x20000ad0
 80031e0:	20000a74 	.word	0x20000a74
 80031e4:	20000a6c 	.word	0x20000a6c
 80031e8:	20000b00 	.word	0x20000b00
 80031ec:	20000f60 	.word	0x20000f60
 80031f0:	20000a78 	.word	0x20000a78
 80031f4:	20000a7c 	.word	0x20000a7c
 80031f8:	20000a84 	.word	0x20000a84

080031fc <xTaskResumeAll>:
{
 80031fc:	e92d 41f0 	stmdb	sp!, {r4, r5, r6, r7, r8, lr}
	configASSERT( uxSchedulerSuspended );
 8003200:	4c30      	ldr	r4, [pc, #192]	@ (80032c4 <xTaskResumeAll+0xc8>)
 8003202:	6823      	ldr	r3, [r4, #0]
 8003204:	b943      	cbnz	r3, 8003218 <xTaskResumeAll+0x1c>
 8003206:	f04f 0350 	mov.w	r3, #80	@ 0x50
 800320a:	f383 8811 	msr	BASEPRI, r3
 800320e:	f3bf 8f6f 	isb	sy
 8003212:	f3bf 8f4f 	dsb	sy
 8003216:	e7fe      	b.n	8003216 <xTaskResumeAll+0x1a>
	taskENTER_CRITICAL();
 8003218:	f000 fd2c 	bl	8003c74 <vPortEnterCritical>
		--uxSchedulerSuspended;
 800321c:	6823      	ldr	r3, [r4, #0]
 800321e:	3b01      	subs	r3, #1
 8003220:	6023      	str	r3, [r4, #0]
		if( uxSchedulerSuspended == ( UBaseType_t ) pdFALSE )
 8003222:	6824      	ldr	r4, [r4, #0]
 8003224:	b12c      	cbz	r4, 8003232 <xTaskResumeAll+0x36>
BaseType_t xAlreadyYielded = pdFALSE;
 8003226:	2400      	movs	r4, #0
	taskEXIT_CRITICAL();
 8003228:	f000 fd44 	bl	8003cb4 <vPortExitCritical>
}
 800322c:	4620      	mov	r0, r4
 800322e:	e8bd 81f0 	ldmia.w	sp!, {r4, r5, r6, r7, r8, pc}
			if( uxCurrentNumberOfTasks > ( UBaseType_t ) 0U )
 8003232:	4b25      	ldr	r3, [pc, #148]	@ (80032c8 <xTaskResumeAll+0xcc>)
 8003234:	681b      	ldr	r3, [r3, #0]
 8003236:	2b00      	cmp	r3, #0
 8003238:	d0f5      	beq.n	8003226 <xTaskResumeAll+0x2a>
				while( listLIST_IS_EMPTY( &xPendingReadyList ) == pdFALSE )
 800323a:	4d24      	ldr	r5, [pc, #144]	@ (80032cc <xTaskResumeAll+0xd0>)
					prvAddTaskToReadyList( pxTCB );
 800323c:	4e24      	ldr	r6, [pc, #144]	@ (80032d0 <xTaskResumeAll+0xd4>)
 800323e:	f8df 80a0 	ldr.w	r8, [pc, #160]	@ 80032e0 <xTaskResumeAll+0xe4>
 8003242:	e01d      	b.n	8003280 <xTaskResumeAll+0x84>
					pxTCB = listGET_OWNER_OF_HEAD_ENTRY( ( &xPendingReadyList ) ); /*lint !e9079 void * is used as this macro is used with timers and co-routines too.  Alignment is known to be fine as the type of the pointer stored and retrieved is the same. */
 8003244:	68eb      	ldr	r3, [r5, #12]
 8003246:	68dc      	ldr	r4, [r3, #12]
					( void ) uxListRemove( &( pxTCB->xStateListItem ) );
 8003248:	1d27      	adds	r7, r4, #4
					( void ) uxListRemove( &( pxTCB->xEventListItem ) );
 800324a:	f104 0018 	add.w	r0, r4, #24
 800324e:	f7fe ffe1 	bl	8002214 <uxListRemove>
					( void ) uxListRemove( &( pxTCB->xStateListItem ) );
 8003252:	4638      	mov	r0, r7
 8003254:	f7fe ffde 	bl	8002214 <uxListRemove>
					prvAddTaskToReadyList( pxTCB );
 8003258:	6ae3      	ldr	r3, [r4, #44]	@ 0x2c
 800325a:	6832      	ldr	r2, [r6, #0]
 800325c:	2014      	movs	r0, #20
 800325e:	4293      	cmp	r3, r2
 8003260:	fb00 8003 	mla	r0, r0, r3, r8
 8003264:	4639      	mov	r1, r7
 8003266:	bf88      	it	hi
 8003268:	6033      	strhi	r3, [r6, #0]
 800326a:	f7fe ffb1 	bl	80021d0 <vListInsertEnd>
					if( pxTCB->uxPriority >= pxCurrentTCB->uxPriority )
 800326e:	4b19      	ldr	r3, [pc, #100]	@ (80032d4 <xTaskResumeAll+0xd8>)
 8003270:	6ae2      	ldr	r2, [r4, #44]	@ 0x2c
 8003272:	681b      	ldr	r3, [r3, #0]
 8003274:	6adb      	ldr	r3, [r3, #44]	@ 0x2c
 8003276:	429a      	cmp	r2, r3
 8003278:	d302      	bcc.n	8003280 <xTaskResumeAll+0x84>
						xYieldPending = pdTRUE;
 800327a:	4b17      	ldr	r3, [pc, #92]	@ (80032d8 <xTaskResumeAll+0xdc>)
 800327c:	2201      	movs	r2, #1
 800327e:	601a      	str	r2, [r3, #0]
				while( listLIST_IS_EMPTY( &xPendingReadyList ) == pdFALSE )
 8003280:	682b      	ldr	r3, [r5, #0]
 8003282:	2b00      	cmp	r3, #0
 8003284:	d1de      	bne.n	8003244 <xTaskResumeAll+0x48>
				if( pxTCB != NULL )
 8003286:	b10c      	cbz	r4, 800328c <xTaskResumeAll+0x90>
					prvResetNextTaskUnblockTime();
 8003288:	f7ff fda2 	bl	8002dd0 <prvResetNextTaskUnblockTime>
					TickType_t xPendedCounts = xPendedTicks; /* Non-volatile copy. */
 800328c:	4d13      	ldr	r5, [pc, #76]	@ (80032dc <xTaskResumeAll+0xe0>)
 800328e:	682c      	ldr	r4, [r5, #0]
					if( xPendedCounts > ( TickType_t ) 0U )
 8003290:	b144      	cbz	r4, 80032a4 <xTaskResumeAll+0xa8>
								xYieldPending = pdTRUE;
 8003292:	4e11      	ldr	r6, [pc, #68]	@ (80032d8 <xTaskResumeAll+0xdc>)
 8003294:	2701      	movs	r7, #1
							if( xTaskIncrementTick() != pdFALSE )
 8003296:	f7ff ff1b 	bl	80030d0 <xTaskIncrementTick>
 800329a:	b100      	cbz	r0, 800329e <xTaskResumeAll+0xa2>
								xYieldPending = pdTRUE;
 800329c:	6037      	str	r7, [r6, #0]
						} while( xPendedCounts > ( TickType_t ) 0U );
 800329e:	3c01      	subs	r4, #1
 80032a0:	d1f9      	bne.n	8003296 <xTaskResumeAll+0x9a>
						xPendedTicks = 0;
 80032a2:	602c      	str	r4, [r5, #0]
				if( xYieldPending != pdFALSE )
 80032a4:	4b0c      	ldr	r3, [pc, #48]	@ (80032d8 <xTaskResumeAll+0xdc>)
 80032a6:	681b      	ldr	r3, [r3, #0]
 80032a8:	2b00      	cmp	r3, #0
 80032aa:	d0bc      	beq.n	8003226 <xTaskResumeAll+0x2a>
					taskYIELD_IF_USING_PREEMPTION();
 80032ac:	f04f 23e0 	mov.w	r3, #3758153728	@ 0xe000e000
 80032b0:	f04f 5280 	mov.w	r2, #268435456	@ 0x10000000
 80032b4:	f8c3 2d04 	str.w	r2, [r3, #3332]	@ 0xd04
 80032b8:	f3bf 8f4f 	dsb	sy
 80032bc:	f3bf 8f6f 	isb	sy
						xAlreadyYielded = pdTRUE;
 80032c0:	2401      	movs	r4, #1
 80032c2:	e7b1      	b.n	8003228 <xTaskResumeAll+0x2c>
 80032c4:	20000a68 	.word	0x20000a68
 80032c8:	20000a8c 	.word	0x20000a8c
 80032cc:	20000abc 	.word	0x20000abc
 80032d0:	20000a84 	.word	0x20000a84
 80032d4:	20000f60 	.word	0x20000f60
 80032d8:	20000a78 	.word	0x20000a78
 80032dc:	20000a7c 	.word	0x20000a7c
 80032e0:	20000b00 	.word	0x20000b00

080032e4 <vTaskDelay>:
	{
 80032e4:	b508      	push	{r3, lr}
		if( xTicksToDelay > ( TickType_t ) 0U )
 80032e6:	b950      	cbnz	r0, 80032fe <vTaskDelay+0x1a>
			portYIELD_WITHIN_API();
 80032e8:	f04f 23e0 	mov.w	r3, #3758153728	@ 0xe000e000
 80032ec:	f04f 5280 	mov.w	r2, #268435456	@ 0x10000000
 80032f0:	f8c3 2d04 	str.w	r2, [r3, #3332]	@ 0xd04
 80032f4:	f3bf 8f4f 	dsb	sy
 80032f8:	f3bf 8f6f 	isb	sy
	}
 80032fc:	bd08      	pop	{r3, pc}
			configASSERT( uxSchedulerSuspended == 0 );
 80032fe:	4b0a      	ldr	r3, [pc, #40]	@ (8003328 <vTaskDelay+0x44>)
 8003300:	6819      	ldr	r1, [r3, #0]
 8003302:	b141      	cbz	r1, 8003316 <vTaskDelay+0x32>
 8003304:	f04f 0350 	mov.w	r3, #80	@ 0x50
 8003308:	f383 8811 	msr	BASEPRI, r3
 800330c:	f3bf 8f6f 	isb	sy
 8003310:	f3bf 8f4f 	dsb	sy
 8003314:	e7fe      	b.n	8003314 <vTaskDelay+0x30>
			vTaskSuspendAll();
 8003316:	f7ff fecd 	bl	80030b4 <vTaskSuspendAll>
				prvAddCurrentTaskToDelayedList( xTicksToDelay, pdFALSE );
 800331a:	f7ff fd21 	bl	8002d60 <prvAddCurrentTaskToDelayedList>
			xAlreadyYielded = xTaskResumeAll();
 800331e:	f7ff ff6d 	bl	80031fc <xTaskResumeAll>
		if( xAlreadyYielded == pdFALSE )
 8003322:	2800      	cmp	r0, #0
 8003324:	d0e0      	beq.n	80032e8 <vTaskDelay+0x4>
 8003326:	e7e9      	b.n	80032fc <vTaskDelay+0x18>
 8003328:	20000a68 	.word	0x20000a68

0800332c <vTaskSwitchContext>:
	if( uxSchedulerSuspended != ( UBaseType_t ) pdFALSE )
 800332c:	4b19      	ldr	r3, [pc, #100]	@ (8003394 <vTaskSwitchContext+0x68>)
 800332e:	681a      	ldr	r2, [r3, #0]
 8003330:	4b19      	ldr	r3, [pc, #100]	@ (8003398 <vTaskSwitchContext+0x6c>)
{
 8003332:	b570      	push	{r4, r5, r6, lr}
	if( uxSchedulerSuspended != ( UBaseType_t ) pdFALSE )
 8003334:	b112      	cbz	r2, 800333c <vTaskSwitchContext+0x10>
		xYieldPending = pdTRUE;
 8003336:	2201      	movs	r2, #1
 8003338:	601a      	str	r2, [r3, #0]
}
 800333a:	bd70      	pop	{r4, r5, r6, pc}
		taskSELECT_HIGHEST_PRIORITY_TASK(); /*lint !e9079 void * is used as this macro is used with timers and co-routines too.  Alignment is known to be fine as the type of the pointer stored and retrieved is the same. */
 800333c:	4d17      	ldr	r5, [pc, #92]	@ (800339c <vTaskSwitchContext+0x70>)
		xYieldPending = pdFALSE;
 800333e:	601a      	str	r2, [r3, #0]
		taskSELECT_HIGHEST_PRIORITY_TASK(); /*lint !e9079 void * is used as this macro is used with timers and co-routines too.  Alignment is known to be fine as the type of the pointer stored and retrieved is the same. */
 8003340:	682a      	ldr	r2, [r5, #0]
 8003342:	4917      	ldr	r1, [pc, #92]	@ (80033a0 <vTaskSwitchContext+0x74>)
 8003344:	2614      	movs	r6, #20
 8003346:	fb06 f302 	mul.w	r3, r6, r2
 800334a:	18c8      	adds	r0, r1, r3
 800334c:	58cc      	ldr	r4, [r1, r3]
 800334e:	b1ac      	cbz	r4, 800337c <vTaskSwitchContext+0x50>
 8003350:	6844      	ldr	r4, [r0, #4]
 8003352:	3308      	adds	r3, #8
 8003354:	6864      	ldr	r4, [r4, #4]
 8003356:	6044      	str	r4, [r0, #4]
 8003358:	440b      	add	r3, r1
 800335a:	429c      	cmp	r4, r3
 800335c:	bf04      	itt	eq
 800335e:	6863      	ldreq	r3, [r4, #4]
 8003360:	6043      	streq	r3, [r0, #4]
 8003362:	2314      	movs	r3, #20
 8003364:	fb03 1102 	mla	r1, r3, r2, r1
 8003368:	684b      	ldr	r3, [r1, #4]
 800336a:	68d9      	ldr	r1, [r3, #12]
 800336c:	4b0d      	ldr	r3, [pc, #52]	@ (80033a4 <vTaskSwitchContext+0x78>)
 800336e:	6019      	str	r1, [r3, #0]
 8003370:	602a      	str	r2, [r5, #0]
			_impure_ptr = &( pxCurrentTCB->xNewLib_reent );
 8003372:	681b      	ldr	r3, [r3, #0]
 8003374:	4a0c      	ldr	r2, [pc, #48]	@ (80033a8 <vTaskSwitchContext+0x7c>)
 8003376:	3354      	adds	r3, #84	@ 0x54
 8003378:	6013      	str	r3, [r2, #0]
}
 800337a:	e7de      	b.n	800333a <vTaskSwitchContext+0xe>
		taskSELECT_HIGHEST_PRIORITY_TASK(); /*lint !e9079 void * is used as this macro is used with timers and co-routines too.  Alignment is known to be fine as the type of the pointer stored and retrieved is the same. */
 800337c:	b942      	cbnz	r2, 8003390 <vTaskSwitchContext+0x64>
 800337e:	f04f 0350 	mov.w	r3, #80	@ 0x50
 8003382:	f383 8811 	msr	BASEPRI, r3
 8003386:	f3bf 8f6f 	isb	sy
 800338a:	f3bf 8f4f 	dsb	sy
 800338e:	e7fe      	b.n	800338e <vTaskSwitchContext+0x62>
 8003390:	3a01      	subs	r2, #1
 8003392:	e7d8      	b.n	8003346 <vTaskSwitchContext+0x1a>
 8003394:	20000a68 	.word	0x20000a68
 8003398:	20000a78 	.word	0x20000a78
 800339c:	20000a84 	.word	0x20000a84
 80033a0:	20000b00 	.word	0x20000b00
 80033a4:	20000f60 	.word	0x20000f60
 80033a8:	2000001c 	.word	0x2000001c

080033ac <vTaskPlaceOnEventList>:
{
 80033ac:	b510      	push	{r4, lr}
 80033ae:	460c      	mov	r4, r1
	configASSERT( pxEventList );
 80033b0:	b940      	cbnz	r0, 80033c4 <vTaskPlaceOnEventList+0x18>
 80033b2:	f04f 0350 	mov.w	r3, #80	@ 0x50
 80033b6:	f383 8811 	msr	BASEPRI, r3
 80033ba:	f3bf 8f6f 	isb	sy
 80033be:	f3bf 8f4f 	dsb	sy
 80033c2:	e7fe      	b.n	80033c2 <vTaskPlaceOnEventList+0x16>
	vListInsert( pxEventList, &( pxCurrentTCB->xEventListItem ) );
 80033c4:	4b05      	ldr	r3, [pc, #20]	@ (80033dc <vTaskPlaceOnEventList+0x30>)
 80033c6:	6819      	ldr	r1, [r3, #0]
 80033c8:	3118      	adds	r1, #24
 80033ca:	f7fe ff0c 	bl	80021e6 <vListInsert>
	prvAddCurrentTaskToDelayedList( xTicksToWait, pdTRUE );
 80033ce:	4620      	mov	r0, r4
 80033d0:	2101      	movs	r1, #1
}
 80033d2:	e8bd 4010 	ldmia.w	sp!, {r4, lr}
	prvAddCurrentTaskToDelayedList( xTicksToWait, pdTRUE );
 80033d6:	f7ff bcc3 	b.w	8002d60 <prvAddCurrentTaskToDelayedList>
 80033da:	bf00      	nop
 80033dc:	20000f60 	.word	0x20000f60

080033e0 <vTaskPlaceOnEventListRestricted>:
	{
 80033e0:	b538      	push	{r3, r4, r5, lr}
 80033e2:	460d      	mov	r5, r1
 80033e4:	4614      	mov	r4, r2
		configASSERT( pxEventList );
 80033e6:	b940      	cbnz	r0, 80033fa <vTaskPlaceOnEventListRestricted+0x1a>
 80033e8:	f04f 0350 	mov.w	r3, #80	@ 0x50
 80033ec:	f383 8811 	msr	BASEPRI, r3
 80033f0:	f3bf 8f6f 	isb	sy
 80033f4:	f3bf 8f4f 	dsb	sy
 80033f8:	e7fe      	b.n	80033f8 <vTaskPlaceOnEventListRestricted+0x18>
		vListInsertEnd( pxEventList, &( pxCurrentTCB->xEventListItem ) );
 80033fa:	4b07      	ldr	r3, [pc, #28]	@ (8003418 <vTaskPlaceOnEventListRestricted+0x38>)
 80033fc:	6819      	ldr	r1, [r3, #0]
 80033fe:	3118      	adds	r1, #24
 8003400:	f7fe fee6 	bl	80021d0 <vListInsertEnd>
			xTicksToWait = portMAX_DELAY;
 8003404:	2c00      	cmp	r4, #0
		prvAddCurrentTaskToDelayedList( xTicksToWait, xWaitIndefinitely );
 8003406:	4621      	mov	r1, r4
 8003408:	bf0c      	ite	eq
 800340a:	4628      	moveq	r0, r5
 800340c:	f04f 30ff 	movne.w	r0, #4294967295
	}
 8003410:	e8bd 4038 	ldmia.w	sp!, {r3, r4, r5, lr}
		prvAddCurrentTaskToDelayedList( xTicksToWait, xWaitIndefinitely );
 8003414:	f7ff bca4 	b.w	8002d60 <prvAddCurrentTaskToDelayedList>
 8003418:	20000f60 	.word	0x20000f60

0800341c <xTaskRemoveFromEventList>:
{
 800341c:	b538      	push	{r3, r4, r5, lr}
	pxUnblockedTCB = listGET_OWNER_OF_HEAD_ENTRY( pxEventList ); /*lint !e9079 void * is used as this macro is used with timers and co-routines too.  Alignment is known to be fine as the type of the pointer stored and retrieved is the same. */
 800341e:	68c3      	ldr	r3, [r0, #12]
 8003420:	68dc      	ldr	r4, [r3, #12]
	configASSERT( pxUnblockedTCB );
 8003422:	b944      	cbnz	r4, 8003436 <xTaskRemoveFromEventList+0x1a>
 8003424:	f04f 0350 	mov.w	r3, #80	@ 0x50
 8003428:	f383 8811 	msr	BASEPRI, r3
 800342c:	f3bf 8f6f 	isb	sy
 8003430:	f3bf 8f4f 	dsb	sy
 8003434:	e7fe      	b.n	8003434 <xTaskRemoveFromEventList+0x18>
	( void ) uxListRemove( &( pxUnblockedTCB->xEventListItem ) );
 8003436:	f104 0518 	add.w	r5, r4, #24
 800343a:	4628      	mov	r0, r5
 800343c:	f7fe feea 	bl	8002214 <uxListRemove>
	if( uxSchedulerSuspended == ( UBaseType_t ) pdFALSE )
 8003440:	4b10      	ldr	r3, [pc, #64]	@ (8003484 <xTaskRemoveFromEventList+0x68>)
 8003442:	681b      	ldr	r3, [r3, #0]
 8003444:	b9db      	cbnz	r3, 800347e <xTaskRemoveFromEventList+0x62>
		( void ) uxListRemove( &( pxUnblockedTCB->xStateListItem ) );
 8003446:	1d25      	adds	r5, r4, #4
 8003448:	4628      	mov	r0, r5
 800344a:	f7fe fee3 	bl	8002214 <uxListRemove>
		prvAddTaskToReadyList( pxUnblockedTCB );
 800344e:	4a0e      	ldr	r2, [pc, #56]	@ (8003488 <xTaskRemoveFromEventList+0x6c>)
 8003450:	6ae3      	ldr	r3, [r4, #44]	@ 0x2c
 8003452:	6811      	ldr	r1, [r2, #0]
 8003454:	428b      	cmp	r3, r1
 8003456:	bf88      	it	hi
 8003458:	6013      	strhi	r3, [r2, #0]
 800345a:	4a0c      	ldr	r2, [pc, #48]	@ (800348c <xTaskRemoveFromEventList+0x70>)
 800345c:	2014      	movs	r0, #20
 800345e:	4629      	mov	r1, r5
 8003460:	fb00 2003 	mla	r0, r0, r3, r2
		vListInsertEnd( &( xPendingReadyList ), &( pxUnblockedTCB->xEventListItem ) );
 8003464:	f7fe feb4 	bl	80021d0 <vListInsertEnd>
	if( pxUnblockedTCB->uxPriority > pxCurrentTCB->uxPriority )
 8003468:	4b09      	ldr	r3, [pc, #36]	@ (8003490 <xTaskRemoveFromEventList+0x74>)
 800346a:	6ae2      	ldr	r2, [r4, #44]	@ 0x2c
 800346c:	681b      	ldr	r3, [r3, #0]
 800346e:	6adb      	ldr	r3, [r3, #44]	@ 0x2c
 8003470:	429a      	cmp	r2, r3
		xYieldPending = pdTRUE;
 8003472:	bf83      	ittte	hi
 8003474:	4b07      	ldrhi	r3, [pc, #28]	@ (8003494 <xTaskRemoveFromEventList+0x78>)
 8003476:	2001      	movhi	r0, #1
 8003478:	6018      	strhi	r0, [r3, #0]
		xReturn = pdFALSE;
 800347a:	2000      	movls	r0, #0
}
 800347c:	bd38      	pop	{r3, r4, r5, pc}
		vListInsertEnd( &( xPendingReadyList ), &( pxUnblockedTCB->xEventListItem ) );
 800347e:	4806      	ldr	r0, [pc, #24]	@ (8003498 <xTaskRemoveFromEventList+0x7c>)
 8003480:	4629      	mov	r1, r5
 8003482:	e7ef      	b.n	8003464 <xTaskRemoveFromEventList+0x48>
 8003484:	20000a68 	.word	0x20000a68
 8003488:	20000a84 	.word	0x20000a84
 800348c:	20000b00 	.word	0x20000b00
 8003490:	20000f60 	.word	0x20000f60
 8003494:	20000a78 	.word	0x20000a78
 8003498:	20000abc 	.word	0x20000abc

0800349c <vTaskSetTimeOutState>:
{
 800349c:	b510      	push	{r4, lr}
	configASSERT( pxTimeOut );
 800349e:	4604      	mov	r4, r0
 80034a0:	b940      	cbnz	r0, 80034b4 <vTaskSetTimeOutState+0x18>
 80034a2:	f04f 0350 	mov.w	r3, #80	@ 0x50
 80034a6:	f383 8811 	msr	BASEPRI, r3
 80034aa:	f3bf 8f6f 	isb	sy
 80034ae:	f3bf 8f4f 	dsb	sy
 80034b2:	e7fe      	b.n	80034b2 <vTaskSetTimeOutState+0x16>
	taskENTER_CRITICAL();
 80034b4:	f000 fbde 	bl	8003c74 <vPortEnterCritical>
		pxTimeOut->xOverflowCount = xNumOfOverflows;
 80034b8:	4b04      	ldr	r3, [pc, #16]	@ (80034cc <vTaskSetTimeOutState+0x30>)
 80034ba:	681b      	ldr	r3, [r3, #0]
 80034bc:	6023      	str	r3, [r4, #0]
		pxTimeOut->xTimeOnEntering = xTickCount;
 80034be:	4b04      	ldr	r3, [pc, #16]	@ (80034d0 <vTaskSetTimeOutState+0x34>)
 80034c0:	681b      	ldr	r3, [r3, #0]
 80034c2:	6063      	str	r3, [r4, #4]
}
 80034c4:	e8bd 4010 	ldmia.w	sp!, {r4, lr}
	taskEXIT_CRITICAL();
 80034c8:	f000 bbf4 	b.w	8003cb4 <vPortExitCritical>
 80034cc:	20000a74 	.word	0x20000a74
 80034d0:	20000a88 	.word	0x20000a88

080034d4 <vTaskInternalSetTimeOutState>:
	pxTimeOut->xOverflowCount = xNumOfOverflows;
 80034d4:	4b03      	ldr	r3, [pc, #12]	@ (80034e4 <vTaskInternalSetTimeOutState+0x10>)
 80034d6:	681b      	ldr	r3, [r3, #0]
 80034d8:	6003      	str	r3, [r0, #0]
	pxTimeOut->xTimeOnEntering = xTickCount;
 80034da:	4b03      	ldr	r3, [pc, #12]	@ (80034e8 <vTaskInternalSetTimeOutState+0x14>)
 80034dc:	681b      	ldr	r3, [r3, #0]
 80034de:	6043      	str	r3, [r0, #4]
}
 80034e0:	4770      	bx	lr
 80034e2:	bf00      	nop
 80034e4:	20000a74 	.word	0x20000a74
 80034e8:	20000a88 	.word	0x20000a88

080034ec <xTaskCheckForTimeOut>:
{
 80034ec:	b570      	push	{r4, r5, r6, lr}
 80034ee:	460c      	mov	r4, r1
	configASSERT( pxTimeOut );
 80034f0:	4605      	mov	r5, r0
 80034f2:	b940      	cbnz	r0, 8003506 <xTaskCheckForTimeOut+0x1a>
 80034f4:	f04f 0350 	mov.w	r3, #80	@ 0x50
 80034f8:	f383 8811 	msr	BASEPRI, r3
 80034fc:	f3bf 8f6f 	isb	sy
 8003500:	f3bf 8f4f 	dsb	sy
 8003504:	e7fe      	b.n	8003504 <xTaskCheckForTimeOut+0x18>
	configASSERT( pxTicksToWait );
 8003506:	b941      	cbnz	r1, 800351a <xTaskCheckForTimeOut+0x2e>
 8003508:	f04f 0350 	mov.w	r3, #80	@ 0x50
 800350c:	f383 8811 	msr	BASEPRI, r3
 8003510:	f3bf 8f6f 	isb	sy
 8003514:	f3bf 8f4f 	dsb	sy
 8003518:	e7fe      	b.n	8003518 <xTaskCheckForTimeOut+0x2c>
	taskENTER_CRITICAL();
 800351a:	f000 fbab 	bl	8003c74 <vPortEnterCritical>
		const TickType_t xConstTickCount = xTickCount;
 800351e:	4b0f      	ldr	r3, [pc, #60]	@ (800355c <xTaskCheckForTimeOut+0x70>)
 8003520:	6819      	ldr	r1, [r3, #0]
			if( *pxTicksToWait == portMAX_DELAY )
 8003522:	6823      	ldr	r3, [r4, #0]
 8003524:	1c5a      	adds	r2, r3, #1
 8003526:	d010      	beq.n	800354a <xTaskCheckForTimeOut+0x5e>
		if( ( xNumOfOverflows != pxTimeOut->xOverflowCount ) && ( xConstTickCount >= pxTimeOut->xTimeOnEntering ) ) /*lint !e525 Indentation preferred as is to make code within pre-processor directives clearer. */
 8003528:	480d      	ldr	r0, [pc, #52]	@ (8003560 <xTaskCheckForTimeOut+0x74>)
 800352a:	682e      	ldr	r6, [r5, #0]
 800352c:	6800      	ldr	r0, [r0, #0]
		const TickType_t xElapsedTime = xConstTickCount - pxTimeOut->xTimeOnEntering;
 800352e:	686a      	ldr	r2, [r5, #4]
		if( ( xNumOfOverflows != pxTimeOut->xOverflowCount ) && ( xConstTickCount >= pxTimeOut->xTimeOnEntering ) ) /*lint !e525 Indentation preferred as is to make code within pre-processor directives clearer. */
 8003530:	4286      	cmp	r6, r0
 8003532:	d001      	beq.n	8003538 <xTaskCheckForTimeOut+0x4c>
 8003534:	428a      	cmp	r2, r1
 8003536:	d90f      	bls.n	8003558 <xTaskCheckForTimeOut+0x6c>
		const TickType_t xElapsedTime = xConstTickCount - pxTimeOut->xTimeOnEntering;
 8003538:	1a88      	subs	r0, r1, r2
		else if( xElapsedTime < *pxTicksToWait ) /*lint !e961 Explicit casting is only redundant with some compilers, whereas others require it to prevent integer conversion errors. */
 800353a:	4283      	cmp	r3, r0
 800353c:	d90a      	bls.n	8003554 <xTaskCheckForTimeOut+0x68>
			*pxTicksToWait -= xElapsedTime;
 800353e:	1a5b      	subs	r3, r3, r1
 8003540:	4413      	add	r3, r2
 8003542:	6023      	str	r3, [r4, #0]
			vTaskInternalSetTimeOutState( pxTimeOut );
 8003544:	4628      	mov	r0, r5
 8003546:	f7ff ffc5 	bl	80034d4 <vTaskInternalSetTimeOutState>
				xReturn = pdFALSE;
 800354a:	2400      	movs	r4, #0
	taskEXIT_CRITICAL();
 800354c:	f000 fbb2 	bl	8003cb4 <vPortExitCritical>
}
 8003550:	4620      	mov	r0, r4
 8003552:	bd70      	pop	{r4, r5, r6, pc}
			*pxTicksToWait = 0;
 8003554:	2300      	movs	r3, #0
 8003556:	6023      	str	r3, [r4, #0]
			xReturn = pdTRUE;
 8003558:	2401      	movs	r4, #1
 800355a:	e7f7      	b.n	800354c <xTaskCheckForTimeOut+0x60>
 800355c:	20000a88 	.word	0x20000a88
 8003560:	20000a74 	.word	0x20000a74

08003564 <vTaskMissedYield>:
	xYieldPending = pdTRUE;
 8003564:	4b01      	ldr	r3, [pc, #4]	@ (800356c <vTaskMissedYield+0x8>)
 8003566:	2201      	movs	r2, #1
 8003568:	601a      	str	r2, [r3, #0]
}
 800356a:	4770      	bx	lr
 800356c:	20000a78 	.word	0x20000a78

08003570 <xTaskGetCurrentTaskHandle>:
		xReturn = pxCurrentTCB;
 8003570:	4b01      	ldr	r3, [pc, #4]	@ (8003578 <xTaskGetCurrentTaskHandle+0x8>)
 8003572:	6818      	ldr	r0, [r3, #0]
	}
 8003574:	4770      	bx	lr
 8003576:	bf00      	nop
 8003578:	20000f60 	.word	0x20000f60

0800357c <xTaskGetSchedulerState>:
		if( xSchedulerRunning == pdFALSE )
 800357c:	4b05      	ldr	r3, [pc, #20]	@ (8003594 <xTaskGetSchedulerState+0x18>)
 800357e:	681b      	ldr	r3, [r3, #0]
 8003580:	b133      	cbz	r3, 8003590 <xTaskGetSchedulerState+0x14>
			if( uxSchedulerSuspended == ( UBaseType_t ) pdFALSE )
 8003582:	4b05      	ldr	r3, [pc, #20]	@ (8003598 <xTaskGetSchedulerState+0x1c>)
 8003584:	6818      	ldr	r0, [r3, #0]
 8003586:	fab0 f080 	clz	r0, r0
 800358a:	0940      	lsrs	r0, r0, #5
 800358c:	0040      	lsls	r0, r0, #1
 800358e:	4770      	bx	lr
			xReturn = taskSCHEDULER_NOT_STARTED;
 8003590:	2001      	movs	r0, #1
	}
 8003592:	4770      	bx	lr
 8003594:	20000a80 	.word	0x20000a80
 8003598:	20000a68 	.word	0x20000a68

0800359c <xTaskPriorityDisinherit>:
	{
 800359c:	b538      	push	{r3, r4, r5, lr}
		if( pxMutexHolder != NULL )
 800359e:	b908      	cbnz	r0, 80035a4 <xTaskPriorityDisinherit+0x8>
	BaseType_t xReturn = pdFALSE;
 80035a0:	2000      	movs	r0, #0
	}
 80035a2:	bd38      	pop	{r3, r4, r5, pc}
			configASSERT( pxTCB == pxCurrentTCB );
 80035a4:	4b1b      	ldr	r3, [pc, #108]	@ (8003614 <xTaskPriorityDisinherit+0x78>)
 80035a6:	681c      	ldr	r4, [r3, #0]
 80035a8:	4284      	cmp	r4, r0
 80035aa:	d008      	beq.n	80035be <xTaskPriorityDisinherit+0x22>
 80035ac:	f04f 0350 	mov.w	r3, #80	@ 0x50
 80035b0:	f383 8811 	msr	BASEPRI, r3
 80035b4:	f3bf 8f6f 	isb	sy
 80035b8:	f3bf 8f4f 	dsb	sy
 80035bc:	e7fe      	b.n	80035bc <xTaskPriorityDisinherit+0x20>
			configASSERT( pxTCB->uxMutexesHeld );
 80035be:	6d23      	ldr	r3, [r4, #80]	@ 0x50
 80035c0:	b943      	cbnz	r3, 80035d4 <xTaskPriorityDisinherit+0x38>
 80035c2:	f04f 0350 	mov.w	r3, #80	@ 0x50
 80035c6:	f383 8811 	msr	BASEPRI, r3
 80035ca:	f3bf 8f6f 	isb	sy
 80035ce:	f3bf 8f4f 	dsb	sy
 80035d2:	e7fe      	b.n	80035d2 <xTaskPriorityDisinherit+0x36>
			if( pxTCB->uxPriority != pxTCB->uxBasePriority )
 80035d4:	6ae1      	ldr	r1, [r4, #44]	@ 0x2c
 80035d6:	6ce2      	ldr	r2, [r4, #76]	@ 0x4c
			( pxTCB->uxMutexesHeld )--;
 80035d8:	3b01      	subs	r3, #1
			if( pxTCB->uxPriority != pxTCB->uxBasePriority )
 80035da:	4291      	cmp	r1, r2
			( pxTCB->uxMutexesHeld )--;
 80035dc:	6523      	str	r3, [r4, #80]	@ 0x50
			if( pxTCB->uxPriority != pxTCB->uxBasePriority )
 80035de:	d0df      	beq.n	80035a0 <xTaskPriorityDisinherit+0x4>
				if( pxTCB->uxMutexesHeld == ( UBaseType_t ) 0 )
 80035e0:	2b00      	cmp	r3, #0
 80035e2:	d1dd      	bne.n	80035a0 <xTaskPriorityDisinherit+0x4>
					if( uxListRemove( &( pxTCB->xStateListItem ) ) == ( UBaseType_t ) 0 )
 80035e4:	1d25      	adds	r5, r4, #4
 80035e6:	4628      	mov	r0, r5
 80035e8:	f7fe fe14 	bl	8002214 <uxListRemove>
					pxTCB->uxPriority = pxTCB->uxBasePriority;
 80035ec:	6ce3      	ldr	r3, [r4, #76]	@ 0x4c
 80035ee:	62e3      	str	r3, [r4, #44]	@ 0x2c
					listSET_LIST_ITEM_VALUE( &( pxTCB->xEventListItem ), ( TickType_t ) configMAX_PRIORITIES - ( TickType_t ) pxTCB->uxPriority ); /*lint !e961 MISRA exception as the casts are only redundant for some ports. */
 80035f0:	f1c3 0238 	rsb	r2, r3, #56	@ 0x38
 80035f4:	61a2      	str	r2, [r4, #24]
					prvAddTaskToReadyList( pxTCB );
 80035f6:	4a08      	ldr	r2, [pc, #32]	@ (8003618 <xTaskPriorityDisinherit+0x7c>)
 80035f8:	6811      	ldr	r1, [r2, #0]
 80035fa:	428b      	cmp	r3, r1
 80035fc:	bf88      	it	hi
 80035fe:	6013      	strhi	r3, [r2, #0]
 8003600:	4a06      	ldr	r2, [pc, #24]	@ (800361c <xTaskPriorityDisinherit+0x80>)
 8003602:	2014      	movs	r0, #20
 8003604:	fb00 2003 	mla	r0, r0, r3, r2
 8003608:	4629      	mov	r1, r5
 800360a:	f7fe fde1 	bl	80021d0 <vListInsertEnd>
					xReturn = pdTRUE;
 800360e:	2001      	movs	r0, #1
		return xReturn;
 8003610:	e7c7      	b.n	80035a2 <xTaskPriorityDisinherit+0x6>
 8003612:	bf00      	nop
 8003614:	20000f60 	.word	0x20000f60
 8003618:	20000a84 	.word	0x20000a84
 800361c:	20000b00 	.word	0x20000b00

08003620 <xTaskNotifyWait>:
	{
 8003620:	e92d 41f0 	stmdb	sp!, {r4, r5, r6, r7, r8, lr}
			if( pxCurrentTCB->ucNotifyState != taskNOTIFICATION_RECEIVED )
 8003624:	4c22      	ldr	r4, [pc, #136]	@ (80036b0 <xTaskNotifyWait+0x90>)
	{
 8003626:	461e      	mov	r6, r3
 8003628:	4680      	mov	r8, r0
 800362a:	460f      	mov	r7, r1
 800362c:	4615      	mov	r5, r2
		taskENTER_CRITICAL();
 800362e:	f000 fb21 	bl	8003c74 <vPortEnterCritical>
			if( pxCurrentTCB->ucNotifyState != taskNOTIFICATION_RECEIVED )
 8003632:	6823      	ldr	r3, [r4, #0]
 8003634:	f893 30a4 	ldrb.w	r3, [r3, #164]	@ 0xa4
 8003638:	2b02      	cmp	r3, #2
 800363a:	d018      	beq.n	800366e <xTaskNotifyWait+0x4e>
				pxCurrentTCB->ulNotifiedValue &= ~ulBitsToClearOnEntry;
 800363c:	6822      	ldr	r2, [r4, #0]
 800363e:	f8d2 30a0 	ldr.w	r3, [r2, #160]	@ 0xa0
 8003642:	ea23 0308 	bic.w	r3, r3, r8
 8003646:	f8c2 30a0 	str.w	r3, [r2, #160]	@ 0xa0
				pxCurrentTCB->ucNotifyState = taskWAITING_NOTIFICATION;
 800364a:	6823      	ldr	r3, [r4, #0]
 800364c:	2101      	movs	r1, #1
 800364e:	f883 10a4 	strb.w	r1, [r3, #164]	@ 0xa4
				if( xTicksToWait > ( TickType_t ) 0 )
 8003652:	b166      	cbz	r6, 800366e <xTaskNotifyWait+0x4e>
					prvAddCurrentTaskToDelayedList( xTicksToWait, pdTRUE );
 8003654:	4630      	mov	r0, r6
 8003656:	f7ff fb83 	bl	8002d60 <prvAddCurrentTaskToDelayedList>
					portYIELD_WITHIN_API();
 800365a:	f04f 23e0 	mov.w	r3, #3758153728	@ 0xe000e000
 800365e:	f04f 5280 	mov.w	r2, #268435456	@ 0x10000000
 8003662:	f8c3 2d04 	str.w	r2, [r3, #3332]	@ 0xd04
 8003666:	f3bf 8f4f 	dsb	sy
 800366a:	f3bf 8f6f 	isb	sy
		taskEXIT_CRITICAL();
 800366e:	f000 fb21 	bl	8003cb4 <vPortExitCritical>
		taskENTER_CRITICAL();
 8003672:	f000 faff 	bl	8003c74 <vPortEnterCritical>
			if( pulNotificationValue != NULL )
 8003676:	b11d      	cbz	r5, 8003680 <xTaskNotifyWait+0x60>
				*pulNotificationValue = pxCurrentTCB->ulNotifiedValue;
 8003678:	6823      	ldr	r3, [r4, #0]
 800367a:	f8d3 30a0 	ldr.w	r3, [r3, #160]	@ 0xa0
 800367e:	602b      	str	r3, [r5, #0]
			if( pxCurrentTCB->ucNotifyState != taskNOTIFICATION_RECEIVED )
 8003680:	6823      	ldr	r3, [r4, #0]
 8003682:	f893 30a4 	ldrb.w	r3, [r3, #164]	@ 0xa4
 8003686:	2b02      	cmp	r3, #2
				pxCurrentTCB->ulNotifiedValue &= ~ulBitsToClearOnExit;
 8003688:	bf01      	itttt	eq
 800368a:	6822      	ldreq	r2, [r4, #0]
 800368c:	f8d2 30a0 	ldreq.w	r3, [r2, #160]	@ 0xa0
 8003690:	43bb      	biceq	r3, r7
 8003692:	f8c2 30a0 	streq.w	r3, [r2, #160]	@ 0xa0
			pxCurrentTCB->ucNotifyState = taskNOT_WAITING_NOTIFICATION;
 8003696:	6823      	ldr	r3, [r4, #0]
 8003698:	f04f 0200 	mov.w	r2, #0
				xReturn = pdTRUE;
 800369c:	bf0c      	ite	eq
 800369e:	2501      	moveq	r5, #1
				xReturn = pdFALSE;
 80036a0:	2500      	movne	r5, #0
			pxCurrentTCB->ucNotifyState = taskNOT_WAITING_NOTIFICATION;
 80036a2:	f883 20a4 	strb.w	r2, [r3, #164]	@ 0xa4
		taskEXIT_CRITICAL();
 80036a6:	f000 fb05 	bl	8003cb4 <vPortExitCritical>
	}
 80036aa:	4628      	mov	r0, r5
 80036ac:	e8bd 81f0 	ldmia.w	sp!, {r4, r5, r6, r7, r8, pc}
 80036b0:	20000f60 	.word	0x20000f60

080036b4 <xTaskGenericNotify>:
	{
 80036b4:	b5f8      	push	{r3, r4, r5, r6, r7, lr}
 80036b6:	460d      	mov	r5, r1
 80036b8:	4616      	mov	r6, r2
 80036ba:	461f      	mov	r7, r3
		configASSERT( xTaskToNotify );
 80036bc:	4604      	mov	r4, r0
 80036be:	b940      	cbnz	r0, 80036d2 <xTaskGenericNotify+0x1e>
 80036c0:	f04f 0350 	mov.w	r3, #80	@ 0x50
 80036c4:	f383 8811 	msr	BASEPRI, r3
 80036c8:	f3bf 8f6f 	isb	sy
 80036cc:	f3bf 8f4f 	dsb	sy
 80036d0:	e7fe      	b.n	80036d0 <xTaskGenericNotify+0x1c>
		taskENTER_CRITICAL();
 80036d2:	f000 facf 	bl	8003c74 <vPortEnterCritical>
			if( pulPreviousNotificationValue != NULL )
 80036d6:	b117      	cbz	r7, 80036de <xTaskGenericNotify+0x2a>
				*pulPreviousNotificationValue = pxTCB->ulNotifiedValue;
 80036d8:	f8d4 30a0 	ldr.w	r3, [r4, #160]	@ 0xa0
 80036dc:	603b      	str	r3, [r7, #0]
			ucOriginalNotifyState = pxTCB->ucNotifyState;
 80036de:	f894 30a4 	ldrb.w	r3, [r4, #164]	@ 0xa4
			pxTCB->ucNotifyState = taskNOTIFICATION_RECEIVED;
 80036e2:	2202      	movs	r2, #2
			ucOriginalNotifyState = pxTCB->ucNotifyState;
 80036e4:	b2db      	uxtb	r3, r3
			pxTCB->ucNotifyState = taskNOTIFICATION_RECEIVED;
 80036e6:	f884 20a4 	strb.w	r2, [r4, #164]	@ 0xa4
			switch( eAction )
 80036ea:	2e04      	cmp	r6, #4
 80036ec:	d830      	bhi.n	8003750 <xTaskGenericNotify+0x9c>
 80036ee:	e8df f006 	tbb	[pc, r6]
 80036f2:	0308      	.short	0x0308
 80036f4:	2c26      	.short	0x2c26
 80036f6:	2a          	.byte	0x2a
 80036f7:	00          	.byte	0x00
					pxTCB->ulNotifiedValue |= ulValue;
 80036f8:	f8d4 20a0 	ldr.w	r2, [r4, #160]	@ 0xa0
 80036fc:	432a      	orrs	r2, r5
					( pxTCB->ulNotifiedValue )++;
 80036fe:	f8c4 20a0 	str.w	r2, [r4, #160]	@ 0xa0
			if( ucOriginalNotifyState == taskWAITING_NOTIFICATION )
 8003702:	2b01      	cmp	r3, #1
 8003704:	d141      	bne.n	800378a <xTaskGenericNotify+0xd6>
				( void ) uxListRemove( &( pxTCB->xStateListItem ) );
 8003706:	1d25      	adds	r5, r4, #4
 8003708:	4628      	mov	r0, r5
 800370a:	f7fe fd83 	bl	8002214 <uxListRemove>
				prvAddTaskToReadyList( pxTCB );
 800370e:	4a22      	ldr	r2, [pc, #136]	@ (8003798 <xTaskGenericNotify+0xe4>)
 8003710:	6ae3      	ldr	r3, [r4, #44]	@ 0x2c
 8003712:	6811      	ldr	r1, [r2, #0]
 8003714:	428b      	cmp	r3, r1
 8003716:	bf88      	it	hi
 8003718:	6013      	strhi	r3, [r2, #0]
 800371a:	4a20      	ldr	r2, [pc, #128]	@ (800379c <xTaskGenericNotify+0xe8>)
 800371c:	2014      	movs	r0, #20
 800371e:	fb00 2003 	mla	r0, r0, r3, r2
 8003722:	4629      	mov	r1, r5
 8003724:	f7fe fd54 	bl	80021d0 <vListInsertEnd>
				configASSERT( listLIST_ITEM_CONTAINER( &( pxTCB->xEventListItem ) ) == NULL );
 8003728:	6aa3      	ldr	r3, [r4, #40]	@ 0x28
 800372a:	b1f3      	cbz	r3, 800376a <xTaskGenericNotify+0xb6>
 800372c:	f04f 0350 	mov.w	r3, #80	@ 0x50
 8003730:	f383 8811 	msr	BASEPRI, r3
 8003734:	f3bf 8f6f 	isb	sy
 8003738:	f3bf 8f4f 	dsb	sy
 800373c:	e7fe      	b.n	800373c <xTaskGenericNotify+0x88>
					( pxTCB->ulNotifiedValue )++;
 800373e:	f8d4 20a0 	ldr.w	r2, [r4, #160]	@ 0xa0
 8003742:	3201      	adds	r2, #1
 8003744:	e7db      	b.n	80036fe <xTaskGenericNotify+0x4a>
					if( ucOriginalNotifyState != taskNOTIFICATION_RECEIVED )
 8003746:	2b02      	cmp	r3, #2
 8003748:	d024      	beq.n	8003794 <xTaskGenericNotify+0xe0>
						pxTCB->ulNotifiedValue = ulValue;
 800374a:	f8c4 50a0 	str.w	r5, [r4, #160]	@ 0xa0
 800374e:	e7d8      	b.n	8003702 <xTaskGenericNotify+0x4e>
					configASSERT( pxTCB->ulNotifiedValue == ~0UL );
 8003750:	f8d4 20a0 	ldr.w	r2, [r4, #160]	@ 0xa0
 8003754:	3201      	adds	r2, #1
 8003756:	d0d4      	beq.n	8003702 <xTaskGenericNotify+0x4e>
 8003758:	f04f 0350 	mov.w	r3, #80	@ 0x50
 800375c:	f383 8811 	msr	BASEPRI, r3
 8003760:	f3bf 8f6f 	isb	sy
 8003764:	f3bf 8f4f 	dsb	sy
 8003768:	e7fe      	b.n	8003768 <xTaskGenericNotify+0xb4>
				if( pxTCB->uxPriority > pxCurrentTCB->uxPriority )
 800376a:	4b0d      	ldr	r3, [pc, #52]	@ (80037a0 <xTaskGenericNotify+0xec>)
 800376c:	6ae2      	ldr	r2, [r4, #44]	@ 0x2c
 800376e:	681b      	ldr	r3, [r3, #0]
 8003770:	6adb      	ldr	r3, [r3, #44]	@ 0x2c
 8003772:	429a      	cmp	r2, r3
 8003774:	d909      	bls.n	800378a <xTaskGenericNotify+0xd6>
					taskYIELD_IF_USING_PREEMPTION();
 8003776:	f04f 23e0 	mov.w	r3, #3758153728	@ 0xe000e000
 800377a:	f04f 5280 	mov.w	r2, #268435456	@ 0x10000000
 800377e:	f8c3 2d04 	str.w	r2, [r3, #3332]	@ 0xd04
 8003782:	f3bf 8f4f 	dsb	sy
 8003786:	f3bf 8f6f 	isb	sy
	{
 800378a:	2401      	movs	r4, #1
		taskEXIT_CRITICAL();
 800378c:	f000 fa92 	bl	8003cb4 <vPortExitCritical>
	}
 8003790:	4620      	mov	r0, r4
 8003792:	bdf8      	pop	{r3, r4, r5, r6, r7, pc}
						xReturn = pdFAIL;
 8003794:	2400      	movs	r4, #0
 8003796:	e7f9      	b.n	800378c <xTaskGenericNotify+0xd8>
 8003798:	20000a84 	.word	0x20000a84
 800379c:	20000b00 	.word	0x20000b00
 80037a0:	20000f60 	.word	0x20000f60

080037a4 <xTaskNotifyStateClear>:
	{
 80037a4:	b510      	push	{r4, lr}
		pxTCB = prvGetTCBFromHandle( xTask );
 80037a6:	4604      	mov	r4, r0
 80037a8:	b908      	cbnz	r0, 80037ae <xTaskNotifyStateClear+0xa>
 80037aa:	4b08      	ldr	r3, [pc, #32]	@ (80037cc <xTaskNotifyStateClear+0x28>)
 80037ac:	681c      	ldr	r4, [r3, #0]
		taskENTER_CRITICAL();
 80037ae:	f000 fa61 	bl	8003c74 <vPortEnterCritical>
			if( pxTCB->ucNotifyState == taskNOTIFICATION_RECEIVED )
 80037b2:	f894 30a4 	ldrb.w	r3, [r4, #164]	@ 0xa4
 80037b6:	2000      	movs	r0, #0
 80037b8:	2b02      	cmp	r3, #2
				pxTCB->ucNotifyState = taskNOT_WAITING_NOTIFICATION;
 80037ba:	bf0a      	itet	eq
 80037bc:	f884 00a4 	strbeq.w	r0, [r4, #164]	@ 0xa4
				xReturn = pdFAIL;
 80037c0:	4604      	movne	r4, r0
				xReturn = pdPASS;
 80037c2:	2401      	moveq	r4, #1
		taskEXIT_CRITICAL();
 80037c4:	f000 fa76 	bl	8003cb4 <vPortExitCritical>
	}
 80037c8:	4620      	mov	r0, r4
 80037ca:	bd10      	pop	{r4, pc}
 80037cc:	20000f60 	.word	0x20000f60

080037d0 <prvInsertTimerInActiveList>:
BaseType_t xProcessTimerNow = pdFALSE;

	listSET_LIST_ITEM_VALUE( &( pxTimer->xTimerListItem ), xNextExpiryTime );
	listSET_LIST_ITEM_OWNER( &( pxTimer->xTimerListItem ), pxTimer );

	if( xNextExpiryTime <= xTimeNow )
 80037d0:	4291      	cmp	r1, r2
{
 80037d2:	b508      	push	{r3, lr}
	listSET_LIST_ITEM_VALUE( &( pxTimer->xTimerListItem ), xNextExpiryTime );
 80037d4:	6041      	str	r1, [r0, #4]
	listSET_LIST_ITEM_OWNER( &( pxTimer->xTimerListItem ), pxTimer );
 80037d6:	6100      	str	r0, [r0, #16]
	if( xNextExpiryTime <= xTimeNow )
 80037d8:	d80a      	bhi.n	80037f0 <prvInsertTimerInActiveList+0x20>
	{
		/* Has the expiry time elapsed between the command to start/reset a
		timer was issued, and the time the command was processed? */
		if( ( ( TickType_t ) ( xTimeNow - xCommandTime ) ) >= pxTimer->xTimerPeriodInTicks ) /*lint !e961 MISRA exception as the casts are only redundant for some ports. */
 80037da:	1ad2      	subs	r2, r2, r3
 80037dc:	6983      	ldr	r3, [r0, #24]
 80037de:	429a      	cmp	r2, r3
 80037e0:	d20d      	bcs.n	80037fe <prvInsertTimerInActiveList+0x2e>
			processed actually exceeds the timers period.  */
			xProcessTimerNow = pdTRUE;
		}
		else
		{
			vListInsert( pxOverflowTimerList, &( pxTimer->xTimerListItem ) );
 80037e2:	4b08      	ldr	r3, [pc, #32]	@ (8003804 <prvInsertTimerInActiveList+0x34>)
 80037e4:	1d01      	adds	r1, r0, #4
			its expiry time and should be processed immediately. */
			xProcessTimerNow = pdTRUE;
		}
		else
		{
			vListInsert( pxCurrentTimerList, &( pxTimer->xTimerListItem ) );
 80037e6:	6818      	ldr	r0, [r3, #0]
 80037e8:	f7fe fcfd 	bl	80021e6 <vListInsert>
BaseType_t xProcessTimerNow = pdFALSE;
 80037ec:	2000      	movs	r0, #0
		}
	}

	return xProcessTimerNow;
}
 80037ee:	bd08      	pop	{r3, pc}
		if( ( xTimeNow < xCommandTime ) && ( xNextExpiryTime >= xCommandTime ) )
 80037f0:	429a      	cmp	r2, r3
 80037f2:	d201      	bcs.n	80037f8 <prvInsertTimerInActiveList+0x28>
 80037f4:	4299      	cmp	r1, r3
 80037f6:	d202      	bcs.n	80037fe <prvInsertTimerInActiveList+0x2e>
			vListInsert( pxCurrentTimerList, &( pxTimer->xTimerListItem ) );
 80037f8:	4b03      	ldr	r3, [pc, #12]	@ (8003808 <prvInsertTimerInActiveList+0x38>)
 80037fa:	1d01      	adds	r1, r0, #4
 80037fc:	e7f3      	b.n	80037e6 <prvInsertTimerInActiveList+0x16>
			xProcessTimerNow = pdTRUE;
 80037fe:	2001      	movs	r0, #1
	return xProcessTimerNow;
 8003800:	e7f5      	b.n	80037ee <prvInsertTimerInActiveList+0x1e>
 8003802:	bf00      	nop
 8003804:	20001060 	.word	0x20001060
 8003808:	20001064 	.word	0x20001064

0800380c <prvCheckForValidListAndQueue>:
	pxOverflowTimerList = pxTemp;
}
/*-----------------------------------------------------------*/

static void prvCheckForValidListAndQueue( void )
{
 800380c:	b5f7      	push	{r0, r1, r2, r4, r5, r6, r7, lr}
	/* Check that the list from which active timers are referenced, and the
	queue used to communicate with the timer service, have been
	initialised. */
	taskENTER_CRITICAL();
	{
		if( xTimerQueue == NULL )
 800380e:	4c11      	ldr	r4, [pc, #68]	@ (8003854 <prvCheckForValidListAndQueue+0x48>)
	taskENTER_CRITICAL();
 8003810:	f000 fa30 	bl	8003c74 <vPortEnterCritical>
		if( xTimerQueue == NULL )
 8003814:	6825      	ldr	r5, [r4, #0]
 8003816:	b9bd      	cbnz	r5, 8003848 <prvCheckForValidListAndQueue+0x3c>
		{
			vListInitialise( &xActiveTimerList1 );
 8003818:	4f0f      	ldr	r7, [pc, #60]	@ (8003858 <prvCheckForValidListAndQueue+0x4c>)
			vListInitialise( &xActiveTimerList2 );
 800381a:	4e10      	ldr	r6, [pc, #64]	@ (800385c <prvCheckForValidListAndQueue+0x50>)
			vListInitialise( &xActiveTimerList1 );
 800381c:	4638      	mov	r0, r7
 800381e:	f7fe fcc9 	bl	80021b4 <vListInitialise>
			vListInitialise( &xActiveTimerList2 );
 8003822:	4630      	mov	r0, r6
 8003824:	f7fe fcc6 	bl	80021b4 <vListInitialise>
			pxCurrentTimerList = &xActiveTimerList1;
 8003828:	4b0d      	ldr	r3, [pc, #52]	@ (8003860 <prvCheckForValidListAndQueue+0x54>)
				/* The timer queue is allocated statically in case
				configSUPPORT_DYNAMIC_ALLOCATION is 0. */
				static StaticQueue_t xStaticTimerQueue; /*lint !e956 Ok to declare in this manner to prevent additional conditional compilation guards in other locations. */
				static uint8_t ucStaticTimerQueueStorage[ ( size_t ) configTIMER_QUEUE_LENGTH * sizeof( DaemonTaskMessage_t ) ]; /*lint !e956 Ok to declare in this manner to prevent additional conditional compilation guards in other locations. */

				xTimerQueue = xQueueCreateStatic( ( UBaseType_t ) configTIMER_QUEUE_LENGTH, ( UBaseType_t ) sizeof( DaemonTaskMessage_t ), &( ucStaticTimerQueueStorage[ 0 ] ), &xStaticTimerQueue );
 800382a:	4a0e      	ldr	r2, [pc, #56]	@ (8003864 <prvCheckForValidListAndQueue+0x58>)
			pxCurrentTimerList = &xActiveTimerList1;
 800382c:	601f      	str	r7, [r3, #0]
			pxOverflowTimerList = &xActiveTimerList2;
 800382e:	4b0e      	ldr	r3, [pc, #56]	@ (8003868 <prvCheckForValidListAndQueue+0x5c>)
				xTimerQueue = xQueueCreateStatic( ( UBaseType_t ) configTIMER_QUEUE_LENGTH, ( UBaseType_t ) sizeof( DaemonTaskMessage_t ), &( ucStaticTimerQueueStorage[ 0 ] ), &xStaticTimerQueue );
 8003830:	2110      	movs	r1, #16
			pxOverflowTimerList = &xActiveTimerList2;
 8003832:	601e      	str	r6, [r3, #0]
				xTimerQueue = xQueueCreateStatic( ( UBaseType_t ) configTIMER_QUEUE_LENGTH, ( UBaseType_t ) sizeof( DaemonTaskMessage_t ), &( ucStaticTimerQueueStorage[ 0 ] ), &xStaticTimerQueue );
 8003834:	200a      	movs	r0, #10
 8003836:	4b0d      	ldr	r3, [pc, #52]	@ (800386c <prvCheckForValidListAndQueue+0x60>)
 8003838:	9500      	str	r5, [sp, #0]
 800383a:	f7fe fdc4 	bl	80023c6 <xQueueGenericCreateStatic>
 800383e:	6020      	str	r0, [r4, #0]
			}
			#endif

			#if ( configQUEUE_REGISTRY_SIZE > 0 )
			{
				if( xTimerQueue != NULL )
 8003840:	b110      	cbz	r0, 8003848 <prvCheckForValidListAndQueue+0x3c>
				{
					vQueueAddToRegistry( xTimerQueue, "TmrQ" );
 8003842:	490b      	ldr	r1, [pc, #44]	@ (8003870 <prvCheckForValidListAndQueue+0x64>)
 8003844:	f7fe ffba 	bl	80027bc <vQueueAddToRegistry>
		{
			mtCOVERAGE_TEST_MARKER();
		}
	}
	taskEXIT_CRITICAL();
}
 8003848:	b003      	add	sp, #12
 800384a:	e8bd 40f0 	ldmia.w	sp!, {r4, r5, r6, r7, lr}
	taskEXIT_CRITICAL();
 800384e:	f000 ba31 	b.w	8003cb4 <vPortExitCritical>
 8003852:	bf00      	nop
 8003854:	2000105c 	.word	0x2000105c
 8003858:	2000107c 	.word	0x2000107c
 800385c:	20001068 	.word	0x20001068
 8003860:	20001064 	.word	0x20001064
 8003864:	20000fb4 	.word	0x20000fb4
 8003868:	20001060 	.word	0x20001060
 800386c:	20000f64 	.word	0x20000f64
 8003870:	080088b7 	.word	0x080088b7

08003874 <xTimerCreateTimerTask>:
{
 8003874:	b510      	push	{r4, lr}
 8003876:	b088      	sub	sp, #32
	prvCheckForValidListAndQueue();
 8003878:	f7ff ffc8 	bl	800380c <prvCheckForValidListAndQueue>
	if( xTimerQueue != NULL )
 800387c:	4b12      	ldr	r3, [pc, #72]	@ (80038c8 <xTimerCreateTimerTask+0x54>)
 800387e:	681b      	ldr	r3, [r3, #0]
 8003880:	b1b3      	cbz	r3, 80038b0 <xTimerCreateTimerTask+0x3c>
			StaticTask_t *pxTimerTaskTCBBuffer = NULL;
 8003882:	2400      	movs	r4, #0
			vApplicationGetTimerTaskMemory( &pxTimerTaskTCBBuffer, &pxTimerTaskStackBuffer, &ulTimerTaskStackSize );
 8003884:	aa07      	add	r2, sp, #28
 8003886:	a906      	add	r1, sp, #24
 8003888:	a805      	add	r0, sp, #20
			StackType_t *pxTimerTaskStackBuffer = NULL;
 800388a:	e9cd 4405 	strd	r4, r4, [sp, #20]
			vApplicationGetTimerTaskMemory( &pxTimerTaskTCBBuffer, &pxTimerTaskStackBuffer, &ulTimerTaskStackSize );
 800388e:	f7fe fc85 	bl	800219c <vApplicationGetTimerTaskMemory>
			xTimerTaskHandle = xTaskCreateStatic(	prvTimerTask,
 8003892:	9b05      	ldr	r3, [sp, #20]
 8003894:	9302      	str	r3, [sp, #8]
 8003896:	9b06      	ldr	r3, [sp, #24]
 8003898:	9301      	str	r3, [sp, #4]
 800389a:	2302      	movs	r3, #2
 800389c:	9300      	str	r3, [sp, #0]
 800389e:	9a07      	ldr	r2, [sp, #28]
 80038a0:	490a      	ldr	r1, [pc, #40]	@ (80038cc <xTimerCreateTimerTask+0x58>)
 80038a2:	480b      	ldr	r0, [pc, #44]	@ (80038d0 <xTimerCreateTimerTask+0x5c>)
 80038a4:	4623      	mov	r3, r4
 80038a6:	f7ff fb4f 	bl	8002f48 <xTaskCreateStatic>
 80038aa:	4b0a      	ldr	r3, [pc, #40]	@ (80038d4 <xTimerCreateTimerTask+0x60>)
 80038ac:	6018      	str	r0, [r3, #0]
			if( xTimerTaskHandle != NULL )
 80038ae:	b940      	cbnz	r0, 80038c2 <xTimerCreateTimerTask+0x4e>
 80038b0:	f04f 0350 	mov.w	r3, #80	@ 0x50
 80038b4:	f383 8811 	msr	BASEPRI, r3
 80038b8:	f3bf 8f6f 	isb	sy
 80038bc:	f3bf 8f4f 	dsb	sy
	configASSERT( xReturn );
 80038c0:	e7fe      	b.n	80038c0 <xTimerCreateTimerTask+0x4c>
}
 80038c2:	2001      	movs	r0, #1
 80038c4:	b008      	add	sp, #32
 80038c6:	bd10      	pop	{r4, pc}
 80038c8:	2000105c 	.word	0x2000105c
 80038cc:	080088bc 	.word	0x080088bc
 80038d0:	080039d5 	.word	0x080039d5
 80038d4:	20001058 	.word	0x20001058

080038d8 <xTimerGenericCommand>:
{
 80038d8:	b57f      	push	{r0, r1, r2, r3, r4, r5, r6, lr}
 80038da:	4616      	mov	r6, r2
	configASSERT( xTimer );
 80038dc:	4604      	mov	r4, r0
{
 80038de:	461a      	mov	r2, r3
	configASSERT( xTimer );
 80038e0:	b940      	cbnz	r0, 80038f4 <xTimerGenericCommand+0x1c>
 80038e2:	f04f 0350 	mov.w	r3, #80	@ 0x50
 80038e6:	f383 8811 	msr	BASEPRI, r3
 80038ea:	f3bf 8f6f 	isb	sy
 80038ee:	f3bf 8f4f 	dsb	sy
 80038f2:	e7fe      	b.n	80038f2 <xTimerGenericCommand+0x1a>
	if( xTimerQueue != NULL )
 80038f4:	4d0d      	ldr	r5, [pc, #52]	@ (800392c <xTimerGenericCommand+0x54>)
 80038f6:	6828      	ldr	r0, [r5, #0]
 80038f8:	b180      	cbz	r0, 800391c <xTimerGenericCommand+0x44>
		if( xCommandID < tmrFIRST_FROM_ISR_COMMAND )
 80038fa:	2905      	cmp	r1, #5
		xMessage.u.xTimerParameters.xMessageValue = xOptionalValue;
 80038fc:	e9cd 1600 	strd	r1, r6, [sp]
		xMessage.u.xTimerParameters.pxTimer = xTimer;
 8003900:	9402      	str	r4, [sp, #8]
		if( xCommandID < tmrFIRST_FROM_ISR_COMMAND )
 8003902:	dc0d      	bgt.n	8003920 <xTimerGenericCommand+0x48>
			if( xTaskGetSchedulerState() == taskSCHEDULER_RUNNING )
 8003904:	f7ff fe3a 	bl	800357c <xTaskGetSchedulerState>
				xReturn = xQueueSendToBack( xTimerQueue, &xMessage, xTicksToWait );
 8003908:	2300      	movs	r3, #0
			if( xTaskGetSchedulerState() == taskSCHEDULER_RUNNING )
 800390a:	2802      	cmp	r0, #2
				xReturn = xQueueSendToBack( xTimerQueue, &xMessage, xTicksToWait );
 800390c:	bf08      	it	eq
 800390e:	9a08      	ldreq	r2, [sp, #32]
				xReturn = xQueueSendToBack( xTimerQueue, &xMessage, tmrNO_DELAY );
 8003910:	6828      	ldr	r0, [r5, #0]
 8003912:	bf18      	it	ne
 8003914:	461a      	movne	r2, r3
 8003916:	4669      	mov	r1, sp
 8003918:	f7fe fda3 	bl	8002462 <xQueueGenericSend>
}
 800391c:	b004      	add	sp, #16
 800391e:	bd70      	pop	{r4, r5, r6, pc}
			xReturn = xQueueSendToBackFromISR( xTimerQueue, &xMessage, pxHigherPriorityTaskWoken );
 8003920:	2300      	movs	r3, #0
 8003922:	4669      	mov	r1, sp
 8003924:	f7fe fe4f 	bl	80025c6 <xQueueGenericSendFromISR>
 8003928:	e7f8      	b.n	800391c <xTimerGenericCommand+0x44>
 800392a:	bf00      	nop
 800392c:	2000105c 	.word	0x2000105c

08003930 <prvSampleTimeNow>:
{
 8003930:	e92d 47f3 	stmdb	sp!, {r0, r1, r4, r5, r6, r7, r8, r9, sl, lr}
	if( xTimeNow < xLastTime )
 8003934:	f8df 8098 	ldr.w	r8, [pc, #152]	@ 80039d0 <prvSampleTimeNow+0xa0>
{
 8003938:	4606      	mov	r6, r0
	xTimeNow = xTaskGetTickCount();
 800393a:	f7ff fbc3 	bl	80030c4 <xTaskGetTickCount>
	if( xTimeNow < xLastTime )
 800393e:	f8d8 3000 	ldr.w	r3, [r8]
 8003942:	4283      	cmp	r3, r0
	xTimeNow = xTaskGetTickCount();
 8003944:	4605      	mov	r5, r0
	if( xTimeNow < xLastTime )
 8003946:	d909      	bls.n	800395c <prvSampleTimeNow+0x2c>
	while( listLIST_IS_EMPTY( pxCurrentTimerList ) == pdFALSE )
 8003948:	4f1f      	ldr	r7, [pc, #124]	@ (80039c8 <prvSampleTimeNow+0x98>)
 800394a:	683b      	ldr	r3, [r7, #0]
 800394c:	681a      	ldr	r2, [r3, #0]
 800394e:	b96a      	cbnz	r2, 800396c <prvSampleTimeNow+0x3c>
	pxCurrentTimerList = pxOverflowTimerList;
 8003950:	4a1e      	ldr	r2, [pc, #120]	@ (80039cc <prvSampleTimeNow+0x9c>)
 8003952:	6811      	ldr	r1, [r2, #0]
 8003954:	6039      	str	r1, [r7, #0]
	pxOverflowTimerList = pxTemp;
 8003956:	6013      	str	r3, [r2, #0]
		*pxTimerListsWereSwitched = pdTRUE;
 8003958:	2301      	movs	r3, #1
 800395a:	e000      	b.n	800395e <prvSampleTimeNow+0x2e>
 800395c:	2300      	movs	r3, #0
}
 800395e:	4628      	mov	r0, r5
		*pxTimerListsWereSwitched = pdTRUE;
 8003960:	6033      	str	r3, [r6, #0]
	xLastTime = xTimeNow;
 8003962:	f8c8 5000 	str.w	r5, [r8]
}
 8003966:	b002      	add	sp, #8
 8003968:	e8bd 87f0 	ldmia.w	sp!, {r4, r5, r6, r7, r8, r9, sl, pc}
		xNextExpireTime = listGET_ITEM_VALUE_OF_HEAD_ENTRY( pxCurrentTimerList );
 800396c:	68db      	ldr	r3, [r3, #12]
		pxTimer = ( Timer_t * ) listGET_OWNER_OF_HEAD_ENTRY( pxCurrentTimerList ); /*lint !e9087 !e9079 void * is used as this macro is used with tasks and co-routines too.  Alignment is known to be fine as the type of the pointer stored and retrieved is the same. */
 800396e:	68dc      	ldr	r4, [r3, #12]
		xNextExpireTime = listGET_ITEM_VALUE_OF_HEAD_ENTRY( pxCurrentTimerList );
 8003970:	f8d3 9000 	ldr.w	r9, [r3]
		( void ) uxListRemove( &( pxTimer->xTimerListItem ) );
 8003974:	f104 0a04 	add.w	sl, r4, #4
 8003978:	4650      	mov	r0, sl
 800397a:	f7fe fc4b 	bl	8002214 <uxListRemove>
		pxTimer->pxCallbackFunction( ( TimerHandle_t ) pxTimer );
 800397e:	6a23      	ldr	r3, [r4, #32]
 8003980:	4620      	mov	r0, r4
 8003982:	4798      	blx	r3
		if( ( pxTimer->ucStatus & tmrSTATUS_IS_AUTORELOAD ) != 0 )
 8003984:	f894 3028 	ldrb.w	r3, [r4, #40]	@ 0x28
 8003988:	075b      	lsls	r3, r3, #29
 800398a:	d5de      	bpl.n	800394a <prvSampleTimeNow+0x1a>
			xReloadTime = ( xNextExpireTime + pxTimer->xTimerPeriodInTicks );
 800398c:	69a3      	ldr	r3, [r4, #24]
 800398e:	444b      	add	r3, r9
			if( xReloadTime > xNextExpireTime )
 8003990:	4599      	cmp	r9, r3
 8003992:	d206      	bcs.n	80039a2 <prvSampleTimeNow+0x72>
				vListInsert( pxCurrentTimerList, &( pxTimer->xTimerListItem ) );
 8003994:	6838      	ldr	r0, [r7, #0]
				listSET_LIST_ITEM_VALUE( &( pxTimer->xTimerListItem ), xReloadTime );
 8003996:	6063      	str	r3, [r4, #4]
				listSET_LIST_ITEM_OWNER( &( pxTimer->xTimerListItem ), pxTimer );
 8003998:	6124      	str	r4, [r4, #16]
				vListInsert( pxCurrentTimerList, &( pxTimer->xTimerListItem ) );
 800399a:	4651      	mov	r1, sl
 800399c:	f7fe fc23 	bl	80021e6 <vListInsert>
 80039a0:	e7d3      	b.n	800394a <prvSampleTimeNow+0x1a>
				xResult = xTimerGenericCommand( pxTimer, tmrCOMMAND_START_DONT_TRACE, xNextExpireTime, NULL, tmrNO_DELAY );
 80039a2:	2300      	movs	r3, #0
 80039a4:	9300      	str	r3, [sp, #0]
 80039a6:	464a      	mov	r2, r9
 80039a8:	4619      	mov	r1, r3
 80039aa:	4620      	mov	r0, r4
 80039ac:	f7ff ff94 	bl	80038d8 <xTimerGenericCommand>
				configASSERT( xResult );
 80039b0:	2800      	cmp	r0, #0
 80039b2:	d1ca      	bne.n	800394a <prvSampleTimeNow+0x1a>
 80039b4:	f04f 0350 	mov.w	r3, #80	@ 0x50
 80039b8:	f383 8811 	msr	BASEPRI, r3
 80039bc:	f3bf 8f6f 	isb	sy
 80039c0:	f3bf 8f4f 	dsb	sy
 80039c4:	e7fe      	b.n	80039c4 <prvSampleTimeNow+0x94>
 80039c6:	bf00      	nop
 80039c8:	20001064 	.word	0x20001064
 80039cc:	20001060 	.word	0x20001060
 80039d0:	20001054 	.word	0x20001054

080039d4 <prvTimerTask>:
{
 80039d4:	e92d 43f0 	stmdb	sp!, {r4, r5, r6, r7, r8, r9, lr}
	*pxListWasEmpty = listLIST_IS_EMPTY( pxCurrentTimerList );
 80039d8:	4d6e      	ldr	r5, [pc, #440]	@ (8003b94 <prvTimerTask+0x1c0>)
				vQueueWaitForMessageRestricted( xTimerQueue, ( xNextExpireTime - xTimeNow ), xListWasEmpty );
 80039da:	4e6f      	ldr	r6, [pc, #444]	@ (8003b98 <prvTimerTask+0x1c4>)
{
 80039dc:	b089      	sub	sp, #36	@ 0x24
	*pxListWasEmpty = listLIST_IS_EMPTY( pxCurrentTimerList );
 80039de:	682b      	ldr	r3, [r5, #0]
 80039e0:	f8d3 8000 	ldr.w	r8, [r3]
 80039e4:	f1b8 0f00 	cmp.w	r8, #0
 80039e8:	d035      	beq.n	8003a56 <prvTimerTask+0x82>
		xNextExpireTime = listGET_ITEM_VALUE_OF_HEAD_ENTRY( pxCurrentTimerList );
 80039ea:	68db      	ldr	r3, [r3, #12]
 80039ec:	f8d3 8000 	ldr.w	r8, [r3]
	*pxListWasEmpty = listLIST_IS_EMPTY( pxCurrentTimerList );
 80039f0:	2400      	movs	r4, #0
	vTaskSuspendAll();
 80039f2:	f7ff fb5f 	bl	80030b4 <vTaskSuspendAll>
		xTimeNow = prvSampleTimeNow( &xTimerListsWereSwitched );
 80039f6:	a804      	add	r0, sp, #16
 80039f8:	f7ff ff9a 	bl	8003930 <prvSampleTimeNow>
		if( xTimerListsWereSwitched == pdFALSE )
 80039fc:	9b04      	ldr	r3, [sp, #16]
		xTimeNow = prvSampleTimeNow( &xTimerListsWereSwitched );
 80039fe:	4681      	mov	r9, r0
		if( xTimerListsWereSwitched == pdFALSE )
 8003a00:	2b00      	cmp	r3, #0
 8003a02:	d169      	bne.n	8003ad8 <prvTimerTask+0x104>
			if( ( xListWasEmpty == pdFALSE ) && ( xNextExpireTime <= xTimeNow ) )
 8003a04:	2c00      	cmp	r4, #0
 8003a06:	d14c      	bne.n	8003aa2 <prvTimerTask+0xce>
 8003a08:	4540      	cmp	r0, r8
 8003a0a:	d350      	bcc.n	8003aae <prvTimerTask+0xda>
				( void ) xTaskResumeAll();
 8003a0c:	f7ff fbf6 	bl	80031fc <xTaskResumeAll>
Timer_t * const pxTimer = ( Timer_t * ) listGET_OWNER_OF_HEAD_ENTRY( pxCurrentTimerList ); /*lint !e9087 !e9079 void * is used as this macro is used with tasks and co-routines too.  Alignment is known to be fine as the type of the pointer stored and retrieved is the same. */
 8003a10:	682b      	ldr	r3, [r5, #0]
 8003a12:	68db      	ldr	r3, [r3, #12]
 8003a14:	68df      	ldr	r7, [r3, #12]
	( void ) uxListRemove( &( pxTimer->xTimerListItem ) );
 8003a16:	1d38      	adds	r0, r7, #4
 8003a18:	f7fe fbfc 	bl	8002214 <uxListRemove>
	if( ( pxTimer->ucStatus & tmrSTATUS_IS_AUTORELOAD ) != 0 )
 8003a1c:	f897 3028 	ldrb.w	r3, [r7, #40]	@ 0x28
 8003a20:	0758      	lsls	r0, r3, #29
 8003a22:	d51a      	bpl.n	8003a5a <prvTimerTask+0x86>
		if( prvInsertTimerInActiveList( pxTimer, ( xNextExpireTime + pxTimer->xTimerPeriodInTicks ), xTimeNow, xNextExpireTime ) != pdFALSE )
 8003a24:	69b9      	ldr	r1, [r7, #24]
 8003a26:	4643      	mov	r3, r8
 8003a28:	464a      	mov	r2, r9
 8003a2a:	4441      	add	r1, r8
 8003a2c:	4638      	mov	r0, r7
 8003a2e:	f7ff fecf 	bl	80037d0 <prvInsertTimerInActiveList>
 8003a32:	b1b0      	cbz	r0, 8003a62 <prvTimerTask+0x8e>
			xResult = xTimerGenericCommand( pxTimer, tmrCOMMAND_START_DONT_TRACE, xNextExpireTime, NULL, tmrNO_DELAY );
 8003a34:	9400      	str	r4, [sp, #0]
 8003a36:	4623      	mov	r3, r4
 8003a38:	4642      	mov	r2, r8
 8003a3a:	4621      	mov	r1, r4
 8003a3c:	4638      	mov	r0, r7
 8003a3e:	f7ff ff4b 	bl	80038d8 <xTimerGenericCommand>
			configASSERT( xResult );
 8003a42:	b970      	cbnz	r0, 8003a62 <prvTimerTask+0x8e>
 8003a44:	f04f 0350 	mov.w	r3, #80	@ 0x50
 8003a48:	f383 8811 	msr	BASEPRI, r3
 8003a4c:	f3bf 8f6f 	isb	sy
 8003a50:	f3bf 8f4f 	dsb	sy
 8003a54:	e7fe      	b.n	8003a54 <prvTimerTask+0x80>
	*pxListWasEmpty = listLIST_IS_EMPTY( pxCurrentTimerList );
 8003a56:	2401      	movs	r4, #1
 8003a58:	e7cb      	b.n	80039f2 <prvTimerTask+0x1e>
		pxTimer->ucStatus &= ~tmrSTATUS_IS_ACTIVE;
 8003a5a:	f023 0301 	bic.w	r3, r3, #1
 8003a5e:	f887 3028 	strb.w	r3, [r7, #40]	@ 0x28
	pxTimer->pxCallbackFunction( ( TimerHandle_t ) pxTimer );
 8003a62:	6a3b      	ldr	r3, [r7, #32]
 8003a64:	4638      	mov	r0, r7
 8003a66:	4798      	blx	r3
	while( xQueueReceive( xTimerQueue, &xMessage, tmrNO_DELAY ) != pdFAIL ) /*lint !e603 xMessage does not have to be initialised as it is passed out, not in, and it is not used unless xQueueReceive() returns pdTRUE. */
 8003a68:	6830      	ldr	r0, [r6, #0]
 8003a6a:	2200      	movs	r2, #0
 8003a6c:	a904      	add	r1, sp, #16
 8003a6e:	f7fe fe07 	bl	8002680 <xQueueReceive>
 8003a72:	2800      	cmp	r0, #0
 8003a74:	d0b3      	beq.n	80039de <prvTimerTask+0xa>
			if( xMessage.xMessageID < ( BaseType_t ) 0 )
 8003a76:	9b04      	ldr	r3, [sp, #16]
				pxCallback->pxCallbackFunction( pxCallback->pvParameter1, pxCallback->ulParameter2 );
 8003a78:	9806      	ldr	r0, [sp, #24]
			if( xMessage.xMessageID < ( BaseType_t ) 0 )
 8003a7a:	2b00      	cmp	r3, #0
 8003a7c:	db2f      	blt.n	8003ade <prvTimerTask+0x10a>
			pxTimer = xMessage.u.xTimerParameters.pxTimer;
 8003a7e:	9c06      	ldr	r4, [sp, #24]
			if( listIS_CONTAINED_WITHIN( NULL, &( pxTimer->xTimerListItem ) ) == pdFALSE ) /*lint !e961. The cast is only redundant when NULL is passed into the macro. */
 8003a80:	6963      	ldr	r3, [r4, #20]
 8003a82:	2b00      	cmp	r3, #0
 8003a84:	d132      	bne.n	8003aec <prvTimerTask+0x118>
			xTimeNow = prvSampleTimeNow( &xTimerListsWereSwitched );
 8003a86:	a803      	add	r0, sp, #12
 8003a88:	f7ff ff52 	bl	8003930 <prvSampleTimeNow>
			switch( xMessage.xMessageID )
 8003a8c:	9b04      	ldr	r3, [sp, #16]
			xTimeNow = prvSampleTimeNow( &xTimerListsWereSwitched );
 8003a8e:	4602      	mov	r2, r0
			switch( xMessage.xMessageID )
 8003a90:	2b09      	cmp	r3, #9
 8003a92:	d8e9      	bhi.n	8003a68 <prvTimerTask+0x94>
 8003a94:	e8df f003 	tbb	[pc, r3]
 8003a98:	572e2e2e 	.word	0x572e2e2e
 8003a9c:	2e2e765e 	.word	0x2e2e765e
 8003aa0:	5e57      	.short	0x5e57
					xListWasEmpty = listLIST_IS_EMPTY( pxOverflowTimerList );
 8003aa2:	4b3e      	ldr	r3, [pc, #248]	@ (8003b9c <prvTimerTask+0x1c8>)
 8003aa4:	681b      	ldr	r3, [r3, #0]
 8003aa6:	681c      	ldr	r4, [r3, #0]
 8003aa8:	fab4 f484 	clz	r4, r4
 8003aac:	0964      	lsrs	r4, r4, #5
				vQueueWaitForMessageRestricted( xTimerQueue, ( xNextExpireTime - xTimeNow ), xListWasEmpty );
 8003aae:	6830      	ldr	r0, [r6, #0]
 8003ab0:	4622      	mov	r2, r4
 8003ab2:	eba8 0109 	sub.w	r1, r8, r9
 8003ab6:	f7fe fe93 	bl	80027e0 <vQueueWaitForMessageRestricted>
				if( xTaskResumeAll() == pdFALSE )
 8003aba:	f7ff fb9f 	bl	80031fc <xTaskResumeAll>
 8003abe:	2800      	cmp	r0, #0
 8003ac0:	d1d2      	bne.n	8003a68 <prvTimerTask+0x94>
					portYIELD_WITHIN_API();
 8003ac2:	f04f 23e0 	mov.w	r3, #3758153728	@ 0xe000e000
 8003ac6:	f04f 5280 	mov.w	r2, #268435456	@ 0x10000000
 8003aca:	f8c3 2d04 	str.w	r2, [r3, #3332]	@ 0xd04
 8003ace:	f3bf 8f4f 	dsb	sy
 8003ad2:	f3bf 8f6f 	isb	sy
 8003ad6:	e7c7      	b.n	8003a68 <prvTimerTask+0x94>
			( void ) xTaskResumeAll();
 8003ad8:	f7ff fb90 	bl	80031fc <xTaskResumeAll>
}
 8003adc:	e7c4      	b.n	8003a68 <prvTimerTask+0x94>
				pxCallback->pxCallbackFunction( pxCallback->pvParameter1, pxCallback->ulParameter2 );
 8003ade:	9b05      	ldr	r3, [sp, #20]
 8003ae0:	9907      	ldr	r1, [sp, #28]
 8003ae2:	4798      	blx	r3
		if( xMessage.xMessageID >= ( BaseType_t ) 0 )
 8003ae4:	9b04      	ldr	r3, [sp, #16]
 8003ae6:	2b00      	cmp	r3, #0
 8003ae8:	dbbe      	blt.n	8003a68 <prvTimerTask+0x94>
 8003aea:	e7c8      	b.n	8003a7e <prvTimerTask+0xaa>
				( void ) uxListRemove( &( pxTimer->xTimerListItem ) );
 8003aec:	1d20      	adds	r0, r4, #4
 8003aee:	f7fe fb91 	bl	8002214 <uxListRemove>
 8003af2:	e7c8      	b.n	8003a86 <prvTimerTask+0xb2>
					pxTimer->ucStatus |= tmrSTATUS_IS_ACTIVE;
 8003af4:	f894 3028 	ldrb.w	r3, [r4, #40]	@ 0x28
					if( prvInsertTimerInActiveList( pxTimer,  xMessage.u.xTimerParameters.xMessageValue + pxTimer->xTimerPeriodInTicks, xTimeNow, xMessage.u.xTimerParameters.xMessageValue ) != pdFALSE )
 8003af8:	69a1      	ldr	r1, [r4, #24]
					pxTimer->ucStatus |= tmrSTATUS_IS_ACTIVE;
 8003afa:	f043 0301 	orr.w	r3, r3, #1
 8003afe:	f884 3028 	strb.w	r3, [r4, #40]	@ 0x28
					if( prvInsertTimerInActiveList( pxTimer,  xMessage.u.xTimerParameters.xMessageValue + pxTimer->xTimerPeriodInTicks, xTimeNow, xMessage.u.xTimerParameters.xMessageValue ) != pdFALSE )
 8003b02:	9b05      	ldr	r3, [sp, #20]
 8003b04:	4620      	mov	r0, r4
 8003b06:	4419      	add	r1, r3
 8003b08:	f7ff fe62 	bl	80037d0 <prvInsertTimerInActiveList>
 8003b0c:	2800      	cmp	r0, #0
 8003b0e:	d0ab      	beq.n	8003a68 <prvTimerTask+0x94>
						pxTimer->pxCallbackFunction( ( TimerHandle_t ) pxTimer );
 8003b10:	6a23      	ldr	r3, [r4, #32]
 8003b12:	4620      	mov	r0, r4
 8003b14:	4798      	blx	r3
						if( ( pxTimer->ucStatus & tmrSTATUS_IS_AUTORELOAD ) != 0 )
 8003b16:	f894 3028 	ldrb.w	r3, [r4, #40]	@ 0x28
 8003b1a:	0759      	lsls	r1, r3, #29
 8003b1c:	d5a4      	bpl.n	8003a68 <prvTimerTask+0x94>
							xResult = xTimerGenericCommand( pxTimer, tmrCOMMAND_START_DONT_TRACE, xMessage.u.xTimerParameters.xMessageValue + pxTimer->xTimerPeriodInTicks, NULL, tmrNO_DELAY );
 8003b1e:	69a2      	ldr	r2, [r4, #24]
 8003b20:	9905      	ldr	r1, [sp, #20]
 8003b22:	2300      	movs	r3, #0
 8003b24:	440a      	add	r2, r1
 8003b26:	9300      	str	r3, [sp, #0]
 8003b28:	4619      	mov	r1, r3
 8003b2a:	4620      	mov	r0, r4
 8003b2c:	f7ff fed4 	bl	80038d8 <xTimerGenericCommand>
							configASSERT( xResult );
 8003b30:	2800      	cmp	r0, #0
 8003b32:	d199      	bne.n	8003a68 <prvTimerTask+0x94>
 8003b34:	f04f 0350 	mov.w	r3, #80	@ 0x50
 8003b38:	f383 8811 	msr	BASEPRI, r3
 8003b3c:	f3bf 8f6f 	isb	sy
 8003b40:	f3bf 8f4f 	dsb	sy
 8003b44:	e7fe      	b.n	8003b44 <prvTimerTask+0x170>
					pxTimer->ucStatus &= ~tmrSTATUS_IS_ACTIVE;
 8003b46:	f894 3028 	ldrb.w	r3, [r4, #40]	@ 0x28
							pxTimer->ucStatus &= ~tmrSTATUS_IS_ACTIVE;
 8003b4a:	f023 0301 	bic.w	r3, r3, #1
 8003b4e:	f884 3028 	strb.w	r3, [r4, #40]	@ 0x28
 8003b52:	e789      	b.n	8003a68 <prvTimerTask+0x94>
					pxTimer->ucStatus |= tmrSTATUS_IS_ACTIVE;
 8003b54:	f894 3028 	ldrb.w	r3, [r4, #40]	@ 0x28
 8003b58:	f043 0301 	orr.w	r3, r3, #1
 8003b5c:	f884 3028 	strb.w	r3, [r4, #40]	@ 0x28
					pxTimer->xTimerPeriodInTicks = xMessage.u.xTimerParameters.xMessageValue;
 8003b60:	9905      	ldr	r1, [sp, #20]
 8003b62:	61a1      	str	r1, [r4, #24]
					configASSERT( ( pxTimer->xTimerPeriodInTicks > 0 ) );
 8003b64:	b941      	cbnz	r1, 8003b78 <prvTimerTask+0x1a4>
 8003b66:	f04f 0350 	mov.w	r3, #80	@ 0x50
 8003b6a:	f383 8811 	msr	BASEPRI, r3
 8003b6e:	f3bf 8f6f 	isb	sy
 8003b72:	f3bf 8f4f 	dsb	sy
 8003b76:	e7fe      	b.n	8003b76 <prvTimerTask+0x1a2>
					( void ) prvInsertTimerInActiveList( pxTimer, ( xTimeNow + pxTimer->xTimerPeriodInTicks ), xTimeNow, xTimeNow );
 8003b78:	4603      	mov	r3, r0
 8003b7a:	4401      	add	r1, r0
 8003b7c:	4620      	mov	r0, r4
 8003b7e:	f7ff fe27 	bl	80037d0 <prvInsertTimerInActiveList>
					break;
 8003b82:	e771      	b.n	8003a68 <prvTimerTask+0x94>
						if( ( pxTimer->ucStatus & tmrSTATUS_IS_STATICALLY_ALLOCATED ) == ( uint8_t ) 0 )
 8003b84:	f894 3028 	ldrb.w	r3, [r4, #40]	@ 0x28
 8003b88:	079a      	lsls	r2, r3, #30
 8003b8a:	d4de      	bmi.n	8003b4a <prvTimerTask+0x176>
							vPortFree( pxTimer );
 8003b8c:	4620      	mov	r0, r4
 8003b8e:	f000 fa6f 	bl	8004070 <vPortFree>
 8003b92:	e769      	b.n	8003a68 <prvTimerTask+0x94>
 8003b94:	20001064 	.word	0x20001064
 8003b98:	2000105c 	.word	0x2000105c
 8003b9c:	20001060 	.word	0x20001060

08003ba0 <prvPortStartFirstTask>:
{
	/* Start the first task.  This also clears the bit that indicates the FPU is
	in use in case the FPU was used before the scheduler was started - which
	would otherwise result in the unnecessary leaving of space in the SVC stack
	for lazy saving of FPU registers. */
	__asm volatile(
 8003ba0:	4808      	ldr	r0, [pc, #32]	@ (8003bc4 <prvPortStartFirstTask+0x24>)
 8003ba2:	6800      	ldr	r0, [r0, #0]
 8003ba4:	6800      	ldr	r0, [r0, #0]
 8003ba6:	f380 8808 	msr	MSP, r0
 8003baa:	f04f 0000 	mov.w	r0, #0
 8003bae:	f380 8814 	msr	CONTROL, r0
 8003bb2:	b662      	cpsie	i
 8003bb4:	b661      	cpsie	f
 8003bb6:	f3bf 8f4f 	dsb	sy
 8003bba:	f3bf 8f6f 	isb	sy
 8003bbe:	df00      	svc	0
 8003bc0:	bf00      	nop
					" dsb					\n"
					" isb					\n"
					" svc 0					\n" /* System call to start first task. */
					" nop					\n"
				);
}
 8003bc2:	0000      	.short	0x0000
 8003bc4:	e000ed08 	.word	0xe000ed08

08003bc8 <vPortEnableVFP>:
/*-----------------------------------------------------------*/

/* This is a naked function. */
static void vPortEnableVFP( void )
{
	__asm volatile
 8003bc8:	f8df 000c 	ldr.w	r0, [pc, #12]	@ 8003bd8 <vPortEnableVFP+0x10>
 8003bcc:	6801      	ldr	r1, [r0, #0]
 8003bce:	f441 0170 	orr.w	r1, r1, #15728640	@ 0xf00000
 8003bd2:	6001      	str	r1, [r0, #0]
 8003bd4:	4770      	bx	lr
		"								\n"
		"	orr r1, r1, #( 0xf << 20 )	\n" /* Enable CP10 and CP11 coprocessors, then save back. */
		"	str r1, [r0]				\n"
		"	bx r14						"
	);
}
 8003bd6:	0000      	.short	0x0000
 8003bd8:	e000ed88 	.word	0xe000ed88

08003bdc <prvTaskExitError>:
{
 8003bdc:	b082      	sub	sp, #8
volatile uint32_t ulDummy = 0;
 8003bde:	2300      	movs	r3, #0
 8003be0:	9301      	str	r3, [sp, #4]
	configASSERT( uxCriticalNesting == ~0UL );
 8003be2:	4b0d      	ldr	r3, [pc, #52]	@ (8003c18 <prvTaskExitError+0x3c>)
 8003be4:	681b      	ldr	r3, [r3, #0]
 8003be6:	3301      	adds	r3, #1
 8003be8:	d008      	beq.n	8003bfc <prvTaskExitError+0x20>
 8003bea:	f04f 0350 	mov.w	r3, #80	@ 0x50
 8003bee:	f383 8811 	msr	BASEPRI, r3
 8003bf2:	f3bf 8f6f 	isb	sy
 8003bf6:	f3bf 8f4f 	dsb	sy
 8003bfa:	e7fe      	b.n	8003bfa <prvTaskExitError+0x1e>
 8003bfc:	f04f 0350 	mov.w	r3, #80	@ 0x50
 8003c00:	f383 8811 	msr	BASEPRI, r3
 8003c04:	f3bf 8f6f 	isb	sy
 8003c08:	f3bf 8f4f 	dsb	sy
	while( ulDummy == 0 )
 8003c0c:	9b01      	ldr	r3, [sp, #4]
 8003c0e:	2b00      	cmp	r3, #0
 8003c10:	d0fc      	beq.n	8003c0c <prvTaskExitError+0x30>
}
 8003c12:	b002      	add	sp, #8
 8003c14:	4770      	bx	lr
 8003c16:	bf00      	nop
 8003c18:	2000000c 	.word	0x2000000c

08003c1c <pxPortInitialiseStack>:
	*pxTopOfStack = portINITIAL_XPSR;	/* xPSR */
 8003c1c:	f04f 7380 	mov.w	r3, #16777216	@ 0x1000000
 8003c20:	f840 3c04 	str.w	r3, [r0, #-4]
	*pxTopOfStack = ( StackType_t ) portTASK_RETURN_ADDRESS;	/* LR */
 8003c24:	4b07      	ldr	r3, [pc, #28]	@ (8003c44 <pxPortInitialiseStack+0x28>)
 8003c26:	f840 3c0c 	str.w	r3, [r0, #-12]
	*pxTopOfStack = ( ( StackType_t ) pxCode ) & portSTART_ADDRESS_MASK;	/* PC */
 8003c2a:	f021 0101 	bic.w	r1, r1, #1
	*pxTopOfStack = portINITIAL_EXC_RETURN;
 8003c2e:	f06f 0302 	mvn.w	r3, #2
	*pxTopOfStack = ( ( StackType_t ) pxCode ) & portSTART_ADDRESS_MASK;	/* PC */
 8003c32:	f840 1c08 	str.w	r1, [r0, #-8]
	*pxTopOfStack = ( StackType_t ) pvParameters;	/* R0 */
 8003c36:	f840 2c20 	str.w	r2, [r0, #-32]
	*pxTopOfStack = portINITIAL_EXC_RETURN;
 8003c3a:	f840 3c24 	str.w	r3, [r0, #-36]
}
 8003c3e:	3844      	subs	r0, #68	@ 0x44
 8003c40:	4770      	bx	lr
 8003c42:	bf00      	nop
 8003c44:	08003bdd 	.word	0x08003bdd
	...

08003c50 <SVC_Handler>:
	__asm volatile (
 8003c50:	4b07      	ldr	r3, [pc, #28]	@ (8003c70 <pxCurrentTCBConst2>)
 8003c52:	6819      	ldr	r1, [r3, #0]
 8003c54:	6808      	ldr	r0, [r1, #0]
 8003c56:	e8b0 4ff0 	ldmia.w	r0!, {r4, r5, r6, r7, r8, r9, sl, fp, lr}
 8003c5a:	f380 8809 	msr	PSP, r0
 8003c5e:	f3bf 8f6f 	isb	sy
 8003c62:	f04f 0000 	mov.w	r0, #0
 8003c66:	f380 8811 	msr	BASEPRI, r0
 8003c6a:	4770      	bx	lr
 8003c6c:	f3af 8000 	nop.w

08003c70 <pxCurrentTCBConst2>:
 8003c70:	20000f60 	.word	0x20000f60

08003c74 <vPortEnterCritical>:
 8003c74:	f04f 0350 	mov.w	r3, #80	@ 0x50
 8003c78:	f383 8811 	msr	BASEPRI, r3
 8003c7c:	f3bf 8f6f 	isb	sy
 8003c80:	f3bf 8f4f 	dsb	sy
	uxCriticalNesting++;
 8003c84:	4a0a      	ldr	r2, [pc, #40]	@ (8003cb0 <vPortEnterCritical+0x3c>)
 8003c86:	6813      	ldr	r3, [r2, #0]
 8003c88:	3301      	adds	r3, #1
	if( uxCriticalNesting == 1 )
 8003c8a:	2b01      	cmp	r3, #1
	uxCriticalNesting++;
 8003c8c:	6013      	str	r3, [r2, #0]
	if( uxCriticalNesting == 1 )
 8003c8e:	d10e      	bne.n	8003cae <vPortEnterCritical+0x3a>
		configASSERT( ( portNVIC_INT_CTRL_REG & portVECTACTIVE_MASK ) == 0 );
 8003c90:	f04f 23e0 	mov.w	r3, #3758153728	@ 0xe000e000
 8003c94:	f8d3 3d04 	ldr.w	r3, [r3, #3332]	@ 0xd04
 8003c98:	b2db      	uxtb	r3, r3
 8003c9a:	b143      	cbz	r3, 8003cae <vPortEnterCritical+0x3a>
 8003c9c:	f04f 0350 	mov.w	r3, #80	@ 0x50
 8003ca0:	f383 8811 	msr	BASEPRI, r3
 8003ca4:	f3bf 8f6f 	isb	sy
 8003ca8:	f3bf 8f4f 	dsb	sy
 8003cac:	e7fe      	b.n	8003cac <vPortEnterCritical+0x38>
}
 8003cae:	4770      	bx	lr
 8003cb0:	2000000c 	.word	0x2000000c

08003cb4 <vPortExitCritical>:
	configASSERT( uxCriticalNesting );
 8003cb4:	4a08      	ldr	r2, [pc, #32]	@ (8003cd8 <vPortExitCritical+0x24>)
 8003cb6:	6813      	ldr	r3, [r2, #0]
 8003cb8:	b943      	cbnz	r3, 8003ccc <vPortExitCritical+0x18>
 8003cba:	f04f 0350 	mov.w	r3, #80	@ 0x50
 8003cbe:	f383 8811 	msr	BASEPRI, r3
 8003cc2:	f3bf 8f6f 	isb	sy
 8003cc6:	f3bf 8f4f 	dsb	sy
 8003cca:	e7fe      	b.n	8003cca <vPortExitCritical+0x16>
	uxCriticalNesting--;
 8003ccc:	3b01      	subs	r3, #1
 8003cce:	6013      	str	r3, [r2, #0]
	if( uxCriticalNesting == 0 )
 8003cd0:	b90b      	cbnz	r3, 8003cd6 <vPortExitCritical+0x22>
	__asm volatile
 8003cd2:	f383 8811 	msr	BASEPRI, r3
}
 8003cd6:	4770      	bx	lr
 8003cd8:	2000000c 	.word	0x2000000c
 8003cdc:	00000000 	.word	0x00000000

08003ce0 <PendSV_Handler>:
	__asm volatile
 8003ce0:	f3ef 8009 	mrs	r0, PSP
 8003ce4:	f3bf 8f6f 	isb	sy
 8003ce8:	4b15      	ldr	r3, [pc, #84]	@ (8003d40 <pxCurrentTCBConst>)
 8003cea:	681a      	ldr	r2, [r3, #0]
 8003cec:	f01e 0f10 	tst.w	lr, #16
 8003cf0:	bf08      	it	eq
 8003cf2:	ed20 8a10 	vstmdbeq	r0!, {s16-s31}
 8003cf6:	e920 4ff0 	stmdb	r0!, {r4, r5, r6, r7, r8, r9, sl, fp, lr}
 8003cfa:	6010      	str	r0, [r2, #0]
 8003cfc:	e92d 0009 	stmdb	sp!, {r0, r3}
 8003d00:	f04f 0050 	mov.w	r0, #80	@ 0x50
 8003d04:	f380 8811 	msr	BASEPRI, r0
 8003d08:	f3bf 8f4f 	dsb	sy
 8003d0c:	f3bf 8f6f 	isb	sy
 8003d10:	f7ff fb0c 	bl	800332c <vTaskSwitchContext>
 8003d14:	f04f 0000 	mov.w	r0, #0
 8003d18:	f380 8811 	msr	BASEPRI, r0
 8003d1c:	bc09      	pop	{r0, r3}
 8003d1e:	6819      	ldr	r1, [r3, #0]
 8003d20:	6808      	ldr	r0, [r1, #0]
 8003d22:	e8b0 4ff0 	ldmia.w	r0!, {r4, r5, r6, r7, r8, r9, sl, fp, lr}
 8003d26:	f01e 0f10 	tst.w	lr, #16
 8003d2a:	bf08      	it	eq
 8003d2c:	ecb0 8a10 	vldmiaeq	r0!, {s16-s31}
 8003d30:	f380 8809 	msr	PSP, r0
 8003d34:	f3bf 8f6f 	isb	sy
 8003d38:	4770      	bx	lr
 8003d3a:	bf00      	nop
 8003d3c:	f3af 8000 	nop.w

08003d40 <pxCurrentTCBConst>:
 8003d40:	20000f60 	.word	0x20000f60

08003d44 <xPortSysTickHandler>:
{
 8003d44:	b508      	push	{r3, lr}
	__asm volatile
 8003d46:	f04f 0350 	mov.w	r3, #80	@ 0x50
 8003d4a:	f383 8811 	msr	BASEPRI, r3
 8003d4e:	f3bf 8f6f 	isb	sy
 8003d52:	f3bf 8f4f 	dsb	sy
		if( xTaskIncrementTick() != pdFALSE )
 8003d56:	f7ff f9bb 	bl	80030d0 <xTaskIncrementTick>
 8003d5a:	b128      	cbz	r0, 8003d68 <xPortSysTickHandler+0x24>
			portNVIC_INT_CTRL_REG = portNVIC_PENDSVSET_BIT;
 8003d5c:	f04f 23e0 	mov.w	r3, #3758153728	@ 0xe000e000
 8003d60:	f04f 5280 	mov.w	r2, #268435456	@ 0x10000000
 8003d64:	f8c3 2d04 	str.w	r2, [r3, #3332]	@ 0xd04
	__asm volatile
 8003d68:	2300      	movs	r3, #0
 8003d6a:	f383 8811 	msr	BASEPRI, r3
}
 8003d6e:	bd08      	pop	{r3, pc}

08003d70 <vPortSetupTimerInterrupt>:
	portNVIC_SYSTICK_CTRL_REG = 0UL;
 8003d70:	f04f 22e0 	mov.w	r2, #3758153728	@ 0xe000e000
 8003d74:	2300      	movs	r3, #0
 8003d76:	6113      	str	r3, [r2, #16]
	portNVIC_SYSTICK_CURRENT_VALUE_REG = 0UL;
 8003d78:	6193      	str	r3, [r2, #24]
	portNVIC_SYSTICK_LOAD_REG = ( configSYSTICK_CLOCK_HZ / configTICK_RATE_HZ ) - 1UL;
 8003d7a:	4b05      	ldr	r3, [pc, #20]	@ (8003d90 <vPortSetupTimerInterrupt+0x20>)
 8003d7c:	f44f 717a 	mov.w	r1, #1000	@ 0x3e8
 8003d80:	681b      	ldr	r3, [r3, #0]
 8003d82:	fbb3 f3f1 	udiv	r3, r3, r1
 8003d86:	3b01      	subs	r3, #1
 8003d88:	6153      	str	r3, [r2, #20]
	portNVIC_SYSTICK_CTRL_REG = ( portNVIC_SYSTICK_CLK_BIT | portNVIC_SYSTICK_INT_BIT | portNVIC_SYSTICK_ENABLE_BIT );
 8003d8a:	2307      	movs	r3, #7
 8003d8c:	6113      	str	r3, [r2, #16]
}
 8003d8e:	4770      	bx	lr
 8003d90:	20000000 	.word	0x20000000

08003d94 <xPortStartScheduler>:
	configASSERT( portCPUID != portCORTEX_M7_r0p1_ID );
 8003d94:	f04f 23e0 	mov.w	r3, #3758153728	@ 0xe000e000
{
 8003d98:	b537      	push	{r0, r1, r2, r4, r5, lr}
	configASSERT( portCPUID != portCORTEX_M7_r0p1_ID );
 8003d9a:	f8d3 1d00 	ldr.w	r1, [r3, #3328]	@ 0xd00
 8003d9e:	4a38      	ldr	r2, [pc, #224]	@ (8003e80 <xPortStartScheduler+0xec>)
 8003da0:	4291      	cmp	r1, r2
 8003da2:	d108      	bne.n	8003db6 <xPortStartScheduler+0x22>
	__asm volatile
 8003da4:	f04f 0350 	mov.w	r3, #80	@ 0x50
 8003da8:	f383 8811 	msr	BASEPRI, r3
 8003dac:	f3bf 8f6f 	isb	sy
 8003db0:	f3bf 8f4f 	dsb	sy
 8003db4:	e7fe      	b.n	8003db4 <xPortStartScheduler+0x20>
	configASSERT( portCPUID != portCORTEX_M7_r0p0_ID );
 8003db6:	f8d3 2d00 	ldr.w	r2, [r3, #3328]	@ 0xd00
 8003dba:	4b32      	ldr	r3, [pc, #200]	@ (8003e84 <xPortStartScheduler+0xf0>)
 8003dbc:	429a      	cmp	r2, r3
 8003dbe:	d108      	bne.n	8003dd2 <xPortStartScheduler+0x3e>
 8003dc0:	f04f 0350 	mov.w	r3, #80	@ 0x50
 8003dc4:	f383 8811 	msr	BASEPRI, r3
 8003dc8:	f3bf 8f6f 	isb	sy
 8003dcc:	f3bf 8f4f 	dsb	sy
 8003dd0:	e7fe      	b.n	8003dd0 <xPortStartScheduler+0x3c>
		ulOriginalPriority = *pucFirstUserPriorityRegister;
 8003dd2:	4b2d      	ldr	r3, [pc, #180]	@ (8003e88 <xPortStartScheduler+0xf4>)
 8003dd4:	781a      	ldrb	r2, [r3, #0]
 8003dd6:	b2d2      	uxtb	r2, r2
 8003dd8:	9201      	str	r2, [sp, #4]
		*pucFirstUserPriorityRegister = portMAX_8_BIT_VALUE;
 8003dda:	22ff      	movs	r2, #255	@ 0xff
 8003ddc:	701a      	strb	r2, [r3, #0]
		ucMaxPriorityValue = *pucFirstUserPriorityRegister;
 8003dde:	781b      	ldrb	r3, [r3, #0]
		ucMaxSysCallPriority = configMAX_SYSCALL_INTERRUPT_PRIORITY & ucMaxPriorityValue;
 8003de0:	4a2a      	ldr	r2, [pc, #168]	@ (8003e8c <xPortStartScheduler+0xf8>)
		ucMaxPriorityValue = *pucFirstUserPriorityRegister;
 8003de2:	b2db      	uxtb	r3, r3
 8003de4:	f88d 3003 	strb.w	r3, [sp, #3]
		ucMaxSysCallPriority = configMAX_SYSCALL_INTERRUPT_PRIORITY & ucMaxPriorityValue;
 8003de8:	f89d 3003 	ldrb.w	r3, [sp, #3]
 8003dec:	f003 0350 	and.w	r3, r3, #80	@ 0x50
 8003df0:	7013      	strb	r3, [r2, #0]
		ulMaxPRIGROUPValue = portMAX_PRIGROUP_BITS;
 8003df2:	4a27      	ldr	r2, [pc, #156]	@ (8003e90 <xPortStartScheduler+0xfc>)
 8003df4:	2307      	movs	r3, #7
 8003df6:	6013      	str	r3, [r2, #0]
		while( ( ucMaxPriorityValue & portTOP_BIT_OF_BYTE ) == portTOP_BIT_OF_BYTE )
 8003df8:	f89d 1003 	ldrb.w	r1, [sp, #3]
			ulMaxPRIGROUPValue--;
 8003dfc:	6813      	ldr	r3, [r2, #0]
		while( ( ucMaxPriorityValue & portTOP_BIT_OF_BYTE ) == portTOP_BIT_OF_BYTE )
 8003dfe:	0609      	lsls	r1, r1, #24
 8003e00:	d40a      	bmi.n	8003e18 <xPortStartScheduler+0x84>
			configASSERT( ( portMAX_PRIGROUP_BITS - ulMaxPRIGROUPValue ) == configPRIO_BITS );
 8003e02:	2b03      	cmp	r3, #3
 8003e04:	d011      	beq.n	8003e2a <xPortStartScheduler+0x96>
 8003e06:	f04f 0350 	mov.w	r3, #80	@ 0x50
 8003e0a:	f383 8811 	msr	BASEPRI, r3
 8003e0e:	f3bf 8f6f 	isb	sy
 8003e12:	f3bf 8f4f 	dsb	sy
 8003e16:	e7fe      	b.n	8003e16 <xPortStartScheduler+0x82>
			ulMaxPRIGROUPValue--;
 8003e18:	3b01      	subs	r3, #1
 8003e1a:	6013      	str	r3, [r2, #0]
			ucMaxPriorityValue <<= ( uint8_t ) 0x01;
 8003e1c:	f89d 3003 	ldrb.w	r3, [sp, #3]
 8003e20:	005b      	lsls	r3, r3, #1
 8003e22:	b2db      	uxtb	r3, r3
 8003e24:	f88d 3003 	strb.w	r3, [sp, #3]
 8003e28:	e7e6      	b.n	8003df8 <xPortStartScheduler+0x64>
		ulMaxPRIGROUPValue &= portPRIORITY_GROUP_MASK;
 8003e2a:	f44f 7340 	mov.w	r3, #768	@ 0x300
 8003e2e:	6013      	str	r3, [r2, #0]
		*pucFirstUserPriorityRegister = ulOriginalPriority;
 8003e30:	9b01      	ldr	r3, [sp, #4]
 8003e32:	4a15      	ldr	r2, [pc, #84]	@ (8003e88 <xPortStartScheduler+0xf4>)
	portNVIC_SYSPRI2_REG |= portNVIC_PENDSV_PRI;
 8003e34:	f04f 24e0 	mov.w	r4, #3758153728	@ 0xe000e000
		*pucFirstUserPriorityRegister = ulOriginalPriority;
 8003e38:	b2db      	uxtb	r3, r3
 8003e3a:	7013      	strb	r3, [r2, #0]
	portNVIC_SYSPRI2_REG |= portNVIC_PENDSV_PRI;
 8003e3c:	f8d4 3d20 	ldr.w	r3, [r4, #3360]	@ 0xd20
 8003e40:	f443 0370 	orr.w	r3, r3, #15728640	@ 0xf00000
 8003e44:	f8c4 3d20 	str.w	r3, [r4, #3360]	@ 0xd20
	portNVIC_SYSPRI2_REG |= portNVIC_SYSTICK_PRI;
 8003e48:	f8d4 3d20 	ldr.w	r3, [r4, #3360]	@ 0xd20
 8003e4c:	f043 4370 	orr.w	r3, r3, #4026531840	@ 0xf0000000
 8003e50:	f8c4 3d20 	str.w	r3, [r4, #3360]	@ 0xd20
	vPortSetupTimerInterrupt();
 8003e54:	f7ff ff8c 	bl	8003d70 <vPortSetupTimerInterrupt>
	uxCriticalNesting = 0;
 8003e58:	4b0e      	ldr	r3, [pc, #56]	@ (8003e94 <xPortStartScheduler+0x100>)
 8003e5a:	2500      	movs	r5, #0
 8003e5c:	601d      	str	r5, [r3, #0]
	vPortEnableVFP();
 8003e5e:	f7ff feb3 	bl	8003bc8 <vPortEnableVFP>
	*( portFPCCR ) |= portASPEN_AND_LSPEN_BITS;
 8003e62:	f8d4 3f34 	ldr.w	r3, [r4, #3892]	@ 0xf34
 8003e66:	f043 4340 	orr.w	r3, r3, #3221225472	@ 0xc0000000
 8003e6a:	f8c4 3f34 	str.w	r3, [r4, #3892]	@ 0xf34
	prvPortStartFirstTask();
 8003e6e:	f7ff fe97 	bl	8003ba0 <prvPortStartFirstTask>
	vTaskSwitchContext();
 8003e72:	f7ff fa5b 	bl	800332c <vTaskSwitchContext>
	prvTaskExitError();
 8003e76:	f7ff feb1 	bl	8003bdc <prvTaskExitError>
}
 8003e7a:	4628      	mov	r0, r5
 8003e7c:	b003      	add	sp, #12
 8003e7e:	bd30      	pop	{r4, r5, pc}
 8003e80:	410fc271 	.word	0x410fc271
 8003e84:	410fc270 	.word	0x410fc270
 8003e88:	e000e400 	.word	0xe000e400
 8003e8c:	20001094 	.word	0x20001094
 8003e90:	20001090 	.word	0x20001090
 8003e94:	2000000c 	.word	0x2000000c

08003e98 <vPortValidateInterruptPriority>:
	{
	uint32_t ulCurrentInterrupt;
	uint8_t ucCurrentPriority;

		/* Obtain the number of the currently executing interrupt. */
		__asm volatile( "mrs %0, ipsr" : "=r"( ulCurrentInterrupt ) :: "memory" );
 8003e98:	f3ef 8305 	mrs	r3, IPSR

		/* Is the interrupt number a user defined interrupt? */
		if( ulCurrentInterrupt >= portFIRST_USER_INTERRUPT_NUMBER )
 8003e9c:	2b0f      	cmp	r3, #15
 8003e9e:	d90e      	bls.n	8003ebe <vPortValidateInterruptPriority+0x26>
		{
			/* Look up the interrupt's priority. */
			ucCurrentPriority = pcInterruptPriorityRegisters[ ulCurrentInterrupt ];
 8003ea0:	4a11      	ldr	r2, [pc, #68]	@ (8003ee8 <vPortValidateInterruptPriority+0x50>)
 8003ea2:	5c9b      	ldrb	r3, [r3, r2]
			interrupt entry is as fast and simple as possible.

			The following links provide detailed information:
			http://www.freertos.org/RTOS-Cortex-M3-M4.html
			http://www.freertos.org/FAQHelp.html */
			configASSERT( ucCurrentPriority >= ucMaxSysCallPriority );
 8003ea4:	4a11      	ldr	r2, [pc, #68]	@ (8003eec <vPortValidateInterruptPriority+0x54>)
 8003ea6:	7812      	ldrb	r2, [r2, #0]
 8003ea8:	429a      	cmp	r2, r3
 8003eaa:	d908      	bls.n	8003ebe <vPortValidateInterruptPriority+0x26>
 8003eac:	f04f 0350 	mov.w	r3, #80	@ 0x50
 8003eb0:	f383 8811 	msr	BASEPRI, r3
 8003eb4:	f3bf 8f6f 	isb	sy
 8003eb8:	f3bf 8f4f 	dsb	sy
 8003ebc:	e7fe      	b.n	8003ebc <vPortValidateInterruptPriority+0x24>
		configuration then the correct setting can be achieved on all Cortex-M
		devices by calling NVIC_SetPriorityGrouping( 0 ); before starting the
		scheduler.  Note however that some vendor specific peripheral libraries
		assume a non-zero priority group setting, in which cases using a value
		of zero will result in unpredictable behaviour. */
		configASSERT( ( portAIRCR_REG & portPRIORITY_GROUP_MASK ) <= ulMaxPRIGROUPValue );
 8003ebe:	f04f 23e0 	mov.w	r3, #3758153728	@ 0xe000e000
 8003ec2:	4a0b      	ldr	r2, [pc, #44]	@ (8003ef0 <vPortValidateInterruptPriority+0x58>)
 8003ec4:	f8d3 3d0c 	ldr.w	r3, [r3, #3340]	@ 0xd0c
 8003ec8:	6812      	ldr	r2, [r2, #0]
 8003eca:	f403 63e0 	and.w	r3, r3, #1792	@ 0x700
 8003ece:	4293      	cmp	r3, r2
 8003ed0:	d908      	bls.n	8003ee4 <vPortValidateInterruptPriority+0x4c>
 8003ed2:	f04f 0350 	mov.w	r3, #80	@ 0x50
 8003ed6:	f383 8811 	msr	BASEPRI, r3
 8003eda:	f3bf 8f6f 	isb	sy
 8003ede:	f3bf 8f4f 	dsb	sy
 8003ee2:	e7fe      	b.n	8003ee2 <vPortValidateInterruptPriority+0x4a>
	}
 8003ee4:	4770      	bx	lr
 8003ee6:	bf00      	nop
 8003ee8:	e000e3f0 	.word	0xe000e3f0
 8003eec:	20001094 	.word	0x20001094
 8003ef0:	20001090 	.word	0x20001090

08003ef4 <prvInsertBlockIntoFreeList>:
	xBlockAllocatedBit = ( ( size_t ) 1 ) << ( ( sizeof( size_t ) * heapBITS_PER_BYTE ) - 1 );
}
/*-----------------------------------------------------------*/

static void prvInsertBlockIntoFreeList( BlockLink_t *pxBlockToInsert )
{
 8003ef4:	b510      	push	{r4, lr}
BlockLink_t *pxIterator;
uint8_t *puc;

	/* Iterate through the list until a block is found that has a higher address
	than the block being inserted. */
	for( pxIterator = &xStart; pxIterator->pxNextFreeBlock < pxBlockToInsert; pxIterator = pxIterator->pxNextFreeBlock )
 8003ef6:	4b10      	ldr	r3, [pc, #64]	@ (8003f38 <prvInsertBlockIntoFreeList+0x44>)
 8003ef8:	461a      	mov	r2, r3
 8003efa:	681b      	ldr	r3, [r3, #0]
 8003efc:	4283      	cmp	r3, r0
 8003efe:	d3fb      	bcc.n	8003ef8 <prvInsertBlockIntoFreeList+0x4>
	}

	/* Do the block being inserted, and the block it is being inserted after
	make a contiguous block of memory? */
	puc = ( uint8_t * ) pxIterator;
	if( ( puc + pxIterator->xBlockSize ) == ( uint8_t * ) pxBlockToInsert )
 8003f00:	6854      	ldr	r4, [r2, #4]
 8003f02:	1911      	adds	r1, r2, r4
 8003f04:	4288      	cmp	r0, r1
	{
		pxIterator->xBlockSize += pxBlockToInsert->xBlockSize;
 8003f06:	bf01      	itttt	eq
 8003f08:	6841      	ldreq	r1, [r0, #4]
		pxBlockToInsert = pxIterator;
 8003f0a:	4610      	moveq	r0, r2
		pxIterator->xBlockSize += pxBlockToInsert->xBlockSize;
 8003f0c:	1909      	addeq	r1, r1, r4
 8003f0e:	6051      	streq	r1, [r2, #4]
	}

	/* Do the block being inserted, and the block it is being inserted before
	make a contiguous block of memory? */
	puc = ( uint8_t * ) pxBlockToInsert;
	if( ( puc + pxBlockToInsert->xBlockSize ) == ( uint8_t * ) pxIterator->pxNextFreeBlock )
 8003f10:	6844      	ldr	r4, [r0, #4]
 8003f12:	1901      	adds	r1, r0, r4
 8003f14:	428b      	cmp	r3, r1
 8003f16:	d10c      	bne.n	8003f32 <prvInsertBlockIntoFreeList+0x3e>
	{
		if( pxIterator->pxNextFreeBlock != pxEnd )
 8003f18:	4908      	ldr	r1, [pc, #32]	@ (8003f3c <prvInsertBlockIntoFreeList+0x48>)
 8003f1a:	6809      	ldr	r1, [r1, #0]
 8003f1c:	428b      	cmp	r3, r1
 8003f1e:	d003      	beq.n	8003f28 <prvInsertBlockIntoFreeList+0x34>
		{
			/* Form one big block from the two blocks. */
			pxBlockToInsert->xBlockSize += pxIterator->pxNextFreeBlock->xBlockSize;
 8003f20:	6859      	ldr	r1, [r3, #4]
 8003f22:	4421      	add	r1, r4
 8003f24:	6041      	str	r1, [r0, #4]
			pxBlockToInsert->pxNextFreeBlock = pxIterator->pxNextFreeBlock->pxNextFreeBlock;
 8003f26:	6819      	ldr	r1, [r3, #0]
		}
		else
		{
			pxBlockToInsert->pxNextFreeBlock = pxEnd;
 8003f28:	6001      	str	r1, [r0, #0]

	/* If the block being inserted plugged a gab, so was merged with the block
	before and the block after, then it's pxNextFreeBlock pointer will have
	already been set, and should not be set here as that would make it point
	to itself. */
	if( pxIterator != pxBlockToInsert )
 8003f2a:	4290      	cmp	r0, r2
	{
		pxIterator->pxNextFreeBlock = pxBlockToInsert;
 8003f2c:	bf18      	it	ne
 8003f2e:	6010      	strne	r0, [r2, #0]
	}
	else
	{
		mtCOVERAGE_TEST_MARKER();
	}
}
 8003f30:	bd10      	pop	{r4, pc}
 8003f32:	4619      	mov	r1, r3
 8003f34:	e7f8      	b.n	8003f28 <prvInsertBlockIntoFreeList+0x34>
 8003f36:	bf00      	nop
 8003f38:	200010b0 	.word	0x200010b0
 8003f3c:	200010ac 	.word	0x200010ac

08003f40 <pvPortMalloc>:
{
 8003f40:	e92d 41f0 	stmdb	sp!, {r4, r5, r6, r7, r8, lr}
 8003f44:	4604      	mov	r4, r0
	vTaskSuspendAll();
 8003f46:	f7ff f8b5 	bl	80030b4 <vTaskSuspendAll>
		if( pxEnd == NULL )
 8003f4a:	4942      	ldr	r1, [pc, #264]	@ (8004054 <pvPortMalloc+0x114>)
 8003f4c:	4d42      	ldr	r5, [pc, #264]	@ (8004058 <pvPortMalloc+0x118>)
 8003f4e:	680b      	ldr	r3, [r1, #0]
 8003f50:	bb0b      	cbnz	r3, 8003f96 <pvPortMalloc+0x56>
	uxAddress = ( size_t ) ucHeap;
 8003f52:	4a42      	ldr	r2, [pc, #264]	@ (800405c <pvPortMalloc+0x11c>)
	if( ( uxAddress & portBYTE_ALIGNMENT_MASK ) != 0 )
 8003f54:	0756      	lsls	r6, r2, #29
		uxAddress += ( portBYTE_ALIGNMENT - 1 );
 8003f56:	bf1f      	itttt	ne
 8003f58:	1dd0      	addne	r0, r2, #7
		uxAddress &= ~( ( size_t ) portBYTE_ALIGNMENT_MASK );
 8003f5a:	f020 0007 	bicne.w	r0, r0, #7
		xTotalHeapSize -= uxAddress - ( size_t ) ucHeap;
 8003f5e:	f502 5270 	addne.w	r2, r2, #15360	@ 0x3c00
 8003f62:	1a13      	subne	r3, r2, r0
size_t xTotalHeapSize = configTOTAL_HEAP_SIZE;
 8003f64:	bf0c      	ite	eq
 8003f66:	f44f 5370 	moveq.w	r3, #15360	@ 0x3c00
		uxAddress &= ~( ( size_t ) portBYTE_ALIGNMENT_MASK );
 8003f6a:	4602      	movne	r2, r0
	uxAddress = ( ( size_t ) pucAlignedHeap ) + xTotalHeapSize;
 8003f6c:	4413      	add	r3, r2
	xStart.pxNextFreeBlock = ( void * ) pucAlignedHeap;
 8003f6e:	4e3c      	ldr	r6, [pc, #240]	@ (8004060 <pvPortMalloc+0x120>)
	uxAddress -= xHeapStructSize;
 8003f70:	3b08      	subs	r3, #8
	uxAddress &= ~( ( size_t ) portBYTE_ALIGNMENT_MASK );
 8003f72:	f023 0307 	bic.w	r3, r3, #7
	xStart.xBlockSize = ( size_t ) 0;
 8003f76:	2000      	movs	r0, #0
 8003f78:	6070      	str	r0, [r6, #4]
	xStart.pxNextFreeBlock = ( void * ) pucAlignedHeap;
 8003f7a:	6032      	str	r2, [r6, #0]
	pxEnd->pxNextFreeBlock = NULL;
 8003f7c:	e9c3 0000 	strd	r0, r0, [r3]
	pxFirstFreeBlock->xBlockSize = uxAddress - ( size_t ) pxFirstFreeBlock;
 8003f80:	1a98      	subs	r0, r3, r2
	pxFirstFreeBlock->pxNextFreeBlock = pxEnd;
 8003f82:	e9c2 3000 	strd	r3, r0, [r2]
	pxEnd = ( void * ) uxAddress;
 8003f86:	600b      	str	r3, [r1, #0]
	xMinimumEverFreeBytesRemaining = pxFirstFreeBlock->xBlockSize;
 8003f88:	4b36      	ldr	r3, [pc, #216]	@ (8004064 <pvPortMalloc+0x124>)
 8003f8a:	6018      	str	r0, [r3, #0]
	xFreeBytesRemaining = pxFirstFreeBlock->xBlockSize;
 8003f8c:	4b36      	ldr	r3, [pc, #216]	@ (8004068 <pvPortMalloc+0x128>)
 8003f8e:	6018      	str	r0, [r3, #0]
	xBlockAllocatedBit = ( ( size_t ) 1 ) << ( ( sizeof( size_t ) * heapBITS_PER_BYTE ) - 1 );
 8003f90:	f04f 4300 	mov.w	r3, #2147483648	@ 0x80000000
 8003f94:	602b      	str	r3, [r5, #0]
		if( ( xWantedSize & xBlockAllocatedBit ) == 0 )
 8003f96:	682e      	ldr	r6, [r5, #0]
 8003f98:	4226      	tst	r6, r4
 8003f9a:	d155      	bne.n	8004048 <pvPortMalloc+0x108>
			if( xWantedSize > 0 )
 8003f9c:	2c00      	cmp	r4, #0
 8003f9e:	d046      	beq.n	800402e <pvPortMalloc+0xee>
				xWantedSize += xHeapStructSize;
 8003fa0:	f104 0308 	add.w	r3, r4, #8
				if( ( xWantedSize & portBYTE_ALIGNMENT_MASK ) != 0x00 )
 8003fa4:	0760      	lsls	r0, r4, #29
					xWantedSize += ( portBYTE_ALIGNMENT - ( xWantedSize & portBYTE_ALIGNMENT_MASK ) );
 8003fa6:	bf1c      	itt	ne
 8003fa8:	f023 0307 	bicne.w	r3, r3, #7
 8003fac:	3308      	addne	r3, #8
			if( ( xWantedSize > 0 ) && ( xWantedSize <= xFreeBytesRemaining ) )
 8003fae:	2b00      	cmp	r3, #0
 8003fb0:	d04a      	beq.n	8004048 <pvPortMalloc+0x108>
 8003fb2:	4f2d      	ldr	r7, [pc, #180]	@ (8004068 <pvPortMalloc+0x128>)
 8003fb4:	683c      	ldr	r4, [r7, #0]
 8003fb6:	429c      	cmp	r4, r3
 8003fb8:	d346      	bcc.n	8004048 <pvPortMalloc+0x108>
				pxBlock = xStart.pxNextFreeBlock;
 8003fba:	4a29      	ldr	r2, [pc, #164]	@ (8004060 <pvPortMalloc+0x120>)
 8003fbc:	6815      	ldr	r5, [r2, #0]
				while( ( pxBlock->xBlockSize < xWantedSize ) && ( pxBlock->pxNextFreeBlock != NULL ) )
 8003fbe:	6868      	ldr	r0, [r5, #4]
 8003fc0:	4298      	cmp	r0, r3
 8003fc2:	d204      	bcs.n	8003fce <pvPortMalloc+0x8e>
 8003fc4:	f8d5 c000 	ldr.w	ip, [r5]
 8003fc8:	f1bc 0f00 	cmp.w	ip, #0
 8003fcc:	d115      	bne.n	8003ffa <pvPortMalloc+0xba>
				if( pxBlock != pxEnd )
 8003fce:	6809      	ldr	r1, [r1, #0]
 8003fd0:	42a9      	cmp	r1, r5
 8003fd2:	d039      	beq.n	8004048 <pvPortMalloc+0x108>
					pxPreviousBlock->pxNextFreeBlock = pxBlock->pxNextFreeBlock;
 8003fd4:	6829      	ldr	r1, [r5, #0]
					pvReturn = ( void * ) ( ( ( uint8_t * ) pxPreviousBlock->pxNextFreeBlock ) + xHeapStructSize );
 8003fd6:	f8d2 8000 	ldr.w	r8, [r2]
					pxPreviousBlock->pxNextFreeBlock = pxBlock->pxNextFreeBlock;
 8003fda:	6011      	str	r1, [r2, #0]
					if( ( pxBlock->xBlockSize - xWantedSize ) > heapMINIMUM_BLOCK_SIZE )
 8003fdc:	1ac2      	subs	r2, r0, r3
 8003fde:	2a10      	cmp	r2, #16
 8003fe0:	d912      	bls.n	8004008 <pvPortMalloc+0xc8>
						pxNewBlockLink = ( void * ) ( ( ( uint8_t * ) pxBlock ) + xWantedSize );
 8003fe2:	18e8      	adds	r0, r5, r3
						configASSERT( ( ( ( size_t ) pxNewBlockLink ) & portBYTE_ALIGNMENT_MASK ) == 0 );
 8003fe4:	0741      	lsls	r1, r0, #29
 8003fe6:	d00b      	beq.n	8004000 <pvPortMalloc+0xc0>
 8003fe8:	f04f 0350 	mov.w	r3, #80	@ 0x50
 8003fec:	f383 8811 	msr	BASEPRI, r3
 8003ff0:	f3bf 8f6f 	isb	sy
 8003ff4:	f3bf 8f4f 	dsb	sy
 8003ff8:	e7fe      	b.n	8003ff8 <pvPortMalloc+0xb8>
					pxPreviousBlock = pxBlock;
 8003ffa:	462a      	mov	r2, r5
					pxBlock = pxBlock->pxNextFreeBlock;
 8003ffc:	4665      	mov	r5, ip
 8003ffe:	e7de      	b.n	8003fbe <pvPortMalloc+0x7e>
						pxNewBlockLink->xBlockSize = pxBlock->xBlockSize - xWantedSize;
 8004000:	6042      	str	r2, [r0, #4]
						pxBlock->xBlockSize = xWantedSize;
 8004002:	606b      	str	r3, [r5, #4]
						prvInsertBlockIntoFreeList( pxNewBlockLink );
 8004004:	f7ff ff76 	bl	8003ef4 <prvInsertBlockIntoFreeList>
					xFreeBytesRemaining -= pxBlock->xBlockSize;
 8004008:	686a      	ldr	r2, [r5, #4]
					if( xFreeBytesRemaining < xMinimumEverFreeBytesRemaining )
 800400a:	4916      	ldr	r1, [pc, #88]	@ (8004064 <pvPortMalloc+0x124>)
					xFreeBytesRemaining -= pxBlock->xBlockSize;
 800400c:	1aa4      	subs	r4, r4, r2
					pxBlock->xBlockSize |= xBlockAllocatedBit;
 800400e:	4316      	orrs	r6, r2
					xNumberOfSuccessfulAllocations++;
 8004010:	4a16      	ldr	r2, [pc, #88]	@ (800406c <pvPortMalloc+0x12c>)
					if( xFreeBytesRemaining < xMinimumEverFreeBytesRemaining )
 8004012:	6808      	ldr	r0, [r1, #0]
					xFreeBytesRemaining -= pxBlock->xBlockSize;
 8004014:	603c      	str	r4, [r7, #0]
					pxBlock->pxNextFreeBlock = NULL;
 8004016:	2300      	movs	r3, #0
 8004018:	602b      	str	r3, [r5, #0]
					xNumberOfSuccessfulAllocations++;
 800401a:	6813      	ldr	r3, [r2, #0]
					pxBlock->xBlockSize |= xBlockAllocatedBit;
 800401c:	606e      	str	r6, [r5, #4]
					if( xFreeBytesRemaining < xMinimumEverFreeBytesRemaining )
 800401e:	4284      	cmp	r4, r0
					xNumberOfSuccessfulAllocations++;
 8004020:	f103 0301 	add.w	r3, r3, #1
						xMinimumEverFreeBytesRemaining = xFreeBytesRemaining;
 8004024:	bf38      	it	cc
 8004026:	600c      	strcc	r4, [r1, #0]
					xNumberOfSuccessfulAllocations++;
 8004028:	6013      	str	r3, [r2, #0]
					pvReturn = ( void * ) ( ( ( uint8_t * ) pxPreviousBlock->pxNextFreeBlock ) + xHeapStructSize );
 800402a:	f108 0408 	add.w	r4, r8, #8
	( void ) xTaskResumeAll();
 800402e:	f7ff f8e5 	bl	80031fc <xTaskResumeAll>
	configASSERT( ( ( ( size_t ) pvReturn ) & ( size_t ) portBYTE_ALIGNMENT_MASK ) == 0 );
 8004032:	0763      	lsls	r3, r4, #29
 8004034:	d00a      	beq.n	800404c <pvPortMalloc+0x10c>
 8004036:	f04f 0350 	mov.w	r3, #80	@ 0x50
 800403a:	f383 8811 	msr	BASEPRI, r3
 800403e:	f3bf 8f6f 	isb	sy
 8004042:	f3bf 8f4f 	dsb	sy
 8004046:	e7fe      	b.n	8004046 <pvPortMalloc+0x106>
void *pvReturn = NULL;
 8004048:	2400      	movs	r4, #0
 800404a:	e7f0      	b.n	800402e <pvPortMalloc+0xee>
}
 800404c:	4620      	mov	r0, r4
 800404e:	e8bd 81f0 	ldmia.w	sp!, {r4, r5, r6, r7, r8, pc}
 8004052:	bf00      	nop
 8004054:	200010ac 	.word	0x200010ac
 8004058:	20001098 	.word	0x20001098
 800405c:	200010b8 	.word	0x200010b8
 8004060:	200010b0 	.word	0x200010b0
 8004064:	200010a4 	.word	0x200010a4
 8004068:	200010a8 	.word	0x200010a8
 800406c:	200010a0 	.word	0x200010a0

08004070 <vPortFree>:
{
 8004070:	b510      	push	{r4, lr}
	if( pv != NULL )
 8004072:	4604      	mov	r4, r0
 8004074:	b390      	cbz	r0, 80040dc <vPortFree+0x6c>
		configASSERT( ( pxLink->xBlockSize & xBlockAllocatedBit ) != 0 );
 8004076:	4a1a      	ldr	r2, [pc, #104]	@ (80040e0 <vPortFree+0x70>)
 8004078:	f850 3c04 	ldr.w	r3, [r0, #-4]
 800407c:	6812      	ldr	r2, [r2, #0]
 800407e:	4213      	tst	r3, r2
 8004080:	d108      	bne.n	8004094 <vPortFree+0x24>
 8004082:	f04f 0350 	mov.w	r3, #80	@ 0x50
 8004086:	f383 8811 	msr	BASEPRI, r3
 800408a:	f3bf 8f6f 	isb	sy
 800408e:	f3bf 8f4f 	dsb	sy
 8004092:	e7fe      	b.n	8004092 <vPortFree+0x22>
		configASSERT( pxLink->pxNextFreeBlock == NULL );
 8004094:	f850 1c08 	ldr.w	r1, [r0, #-8]
 8004098:	b141      	cbz	r1, 80040ac <vPortFree+0x3c>
 800409a:	f04f 0350 	mov.w	r3, #80	@ 0x50
 800409e:	f383 8811 	msr	BASEPRI, r3
 80040a2:	f3bf 8f6f 	isb	sy
 80040a6:	f3bf 8f4f 	dsb	sy
 80040aa:	e7fe      	b.n	80040aa <vPortFree+0x3a>
				pxLink->xBlockSize &= ~xBlockAllocatedBit;
 80040ac:	ea23 0302 	bic.w	r3, r3, r2
 80040b0:	f840 3c04 	str.w	r3, [r0, #-4]
				vTaskSuspendAll();
 80040b4:	f7fe fffe 	bl	80030b4 <vTaskSuspendAll>
					xFreeBytesRemaining += pxLink->xBlockSize;
 80040b8:	4a0a      	ldr	r2, [pc, #40]	@ (80040e4 <vPortFree+0x74>)
 80040ba:	f854 3c04 	ldr.w	r3, [r4, #-4]
 80040be:	6811      	ldr	r1, [r2, #0]
					prvInsertBlockIntoFreeList( ( ( BlockLink_t * ) pxLink ) );
 80040c0:	f1a4 0008 	sub.w	r0, r4, #8
					xFreeBytesRemaining += pxLink->xBlockSize;
 80040c4:	440b      	add	r3, r1
 80040c6:	6013      	str	r3, [r2, #0]
					prvInsertBlockIntoFreeList( ( ( BlockLink_t * ) pxLink ) );
 80040c8:	f7ff ff14 	bl	8003ef4 <prvInsertBlockIntoFreeList>
					xNumberOfSuccessfulFrees++;
 80040cc:	4a06      	ldr	r2, [pc, #24]	@ (80040e8 <vPortFree+0x78>)
 80040ce:	6813      	ldr	r3, [r2, #0]
}
 80040d0:	e8bd 4010 	ldmia.w	sp!, {r4, lr}
					xNumberOfSuccessfulFrees++;
 80040d4:	3301      	adds	r3, #1
 80040d6:	6013      	str	r3, [r2, #0]
				( void ) xTaskResumeAll();
 80040d8:	f7ff b890 	b.w	80031fc <xTaskResumeAll>
}
 80040dc:	bd10      	pop	{r4, pc}
 80040de:	bf00      	nop
 80040e0:	20001098 	.word	0x20001098
 80040e4:	200010a8 	.word	0x200010a8
 80040e8:	2000109c 	.word	0x2000109c

080040ec <__cvt>:
 80040ec:	e92d 47ff 	stmdb	sp!, {r0, r1, r2, r3, r4, r5, r6, r7, r8, r9, sl, lr}
 80040f0:	ec57 6b10 	vmov	r6, r7, d0
 80040f4:	2f00      	cmp	r7, #0
 80040f6:	460c      	mov	r4, r1
 80040f8:	4619      	mov	r1, r3
 80040fa:	463b      	mov	r3, r7
 80040fc:	bfbb      	ittet	lt
 80040fe:	f107 4300 	addlt.w	r3, r7, #2147483648	@ 0x80000000
 8004102:	461f      	movlt	r7, r3
 8004104:	2300      	movge	r3, #0
 8004106:	232d      	movlt	r3, #45	@ 0x2d
 8004108:	700b      	strb	r3, [r1, #0]
 800410a:	9b0d      	ldr	r3, [sp, #52]	@ 0x34
 800410c:	f8dd a030 	ldr.w	sl, [sp, #48]	@ 0x30
 8004110:	4691      	mov	r9, r2
 8004112:	f023 0820 	bic.w	r8, r3, #32
 8004116:	bfbc      	itt	lt
 8004118:	4632      	movlt	r2, r6
 800411a:	4616      	movlt	r6, r2
 800411c:	f1b8 0f46 	cmp.w	r8, #70	@ 0x46
 8004120:	d005      	beq.n	800412e <__cvt+0x42>
 8004122:	f1b8 0f45 	cmp.w	r8, #69	@ 0x45
 8004126:	d100      	bne.n	800412a <__cvt+0x3e>
 8004128:	3401      	adds	r4, #1
 800412a:	2102      	movs	r1, #2
 800412c:	e000      	b.n	8004130 <__cvt+0x44>
 800412e:	2103      	movs	r1, #3
 8004130:	ab03      	add	r3, sp, #12
 8004132:	9301      	str	r3, [sp, #4]
 8004134:	ab02      	add	r3, sp, #8
 8004136:	9300      	str	r3, [sp, #0]
 8004138:	ec47 6b10 	vmov	d0, r6, r7
 800413c:	4653      	mov	r3, sl
 800413e:	4622      	mov	r2, r4
 8004140:	f001 f8da 	bl	80052f8 <_dtoa_r>
 8004144:	f1b8 0f47 	cmp.w	r8, #71	@ 0x47
 8004148:	4605      	mov	r5, r0
 800414a:	d119      	bne.n	8004180 <__cvt+0x94>
 800414c:	f019 0f01 	tst.w	r9, #1
 8004150:	d00e      	beq.n	8004170 <__cvt+0x84>
 8004152:	eb00 0904 	add.w	r9, r0, r4
 8004156:	2200      	movs	r2, #0
 8004158:	2300      	movs	r3, #0
 800415a:	4630      	mov	r0, r6
 800415c:	4639      	mov	r1, r7
 800415e:	f7fc fcbb 	bl	8000ad8 <__aeabi_dcmpeq>
 8004162:	b108      	cbz	r0, 8004168 <__cvt+0x7c>
 8004164:	f8cd 900c 	str.w	r9, [sp, #12]
 8004168:	2230      	movs	r2, #48	@ 0x30
 800416a:	9b03      	ldr	r3, [sp, #12]
 800416c:	454b      	cmp	r3, r9
 800416e:	d31e      	bcc.n	80041ae <__cvt+0xc2>
 8004170:	9b03      	ldr	r3, [sp, #12]
 8004172:	9a0e      	ldr	r2, [sp, #56]	@ 0x38
 8004174:	1b5b      	subs	r3, r3, r5
 8004176:	4628      	mov	r0, r5
 8004178:	6013      	str	r3, [r2, #0]
 800417a:	b004      	add	sp, #16
 800417c:	e8bd 87f0 	ldmia.w	sp!, {r4, r5, r6, r7, r8, r9, sl, pc}
 8004180:	f1b8 0f46 	cmp.w	r8, #70	@ 0x46
 8004184:	eb00 0904 	add.w	r9, r0, r4
 8004188:	d1e5      	bne.n	8004156 <__cvt+0x6a>
 800418a:	7803      	ldrb	r3, [r0, #0]
 800418c:	2b30      	cmp	r3, #48	@ 0x30
 800418e:	d10a      	bne.n	80041a6 <__cvt+0xba>
 8004190:	2200      	movs	r2, #0
 8004192:	2300      	movs	r3, #0
 8004194:	4630      	mov	r0, r6
 8004196:	4639      	mov	r1, r7
 8004198:	f7fc fc9e 	bl	8000ad8 <__aeabi_dcmpeq>
 800419c:	b918      	cbnz	r0, 80041a6 <__cvt+0xba>
 800419e:	f1c4 0401 	rsb	r4, r4, #1
 80041a2:	f8ca 4000 	str.w	r4, [sl]
 80041a6:	f8da 3000 	ldr.w	r3, [sl]
 80041aa:	4499      	add	r9, r3
 80041ac:	e7d3      	b.n	8004156 <__cvt+0x6a>
 80041ae:	1c59      	adds	r1, r3, #1
 80041b0:	9103      	str	r1, [sp, #12]
 80041b2:	701a      	strb	r2, [r3, #0]
 80041b4:	e7d9      	b.n	800416a <__cvt+0x7e>

080041b6 <__exponent>:
 80041b6:	b5f7      	push	{r0, r1, r2, r4, r5, r6, r7, lr}
 80041b8:	2900      	cmp	r1, #0
 80041ba:	bfba      	itte	lt
 80041bc:	4249      	neglt	r1, r1
 80041be:	232d      	movlt	r3, #45	@ 0x2d
 80041c0:	232b      	movge	r3, #43	@ 0x2b
 80041c2:	2909      	cmp	r1, #9
 80041c4:	7002      	strb	r2, [r0, #0]
 80041c6:	7043      	strb	r3, [r0, #1]
 80041c8:	dd29      	ble.n	800421e <__exponent+0x68>
 80041ca:	f10d 0307 	add.w	r3, sp, #7
 80041ce:	461d      	mov	r5, r3
 80041d0:	270a      	movs	r7, #10
 80041d2:	461a      	mov	r2, r3
 80041d4:	fbb1 f6f7 	udiv	r6, r1, r7
 80041d8:	fb07 1416 	mls	r4, r7, r6, r1
 80041dc:	3430      	adds	r4, #48	@ 0x30
 80041de:	f802 4c01 	strb.w	r4, [r2, #-1]
 80041e2:	460c      	mov	r4, r1
 80041e4:	2c63      	cmp	r4, #99	@ 0x63
 80041e6:	f103 33ff 	add.w	r3, r3, #4294967295
 80041ea:	4631      	mov	r1, r6
 80041ec:	dcf1      	bgt.n	80041d2 <__exponent+0x1c>
 80041ee:	3130      	adds	r1, #48	@ 0x30
 80041f0:	1e94      	subs	r4, r2, #2
 80041f2:	f803 1c01 	strb.w	r1, [r3, #-1]
 80041f6:	1c41      	adds	r1, r0, #1
 80041f8:	4623      	mov	r3, r4
 80041fa:	42ab      	cmp	r3, r5
 80041fc:	d30a      	bcc.n	8004214 <__exponent+0x5e>
 80041fe:	f10d 0309 	add.w	r3, sp, #9
 8004202:	1a9b      	subs	r3, r3, r2
 8004204:	42ac      	cmp	r4, r5
 8004206:	bf88      	it	hi
 8004208:	2300      	movhi	r3, #0
 800420a:	3302      	adds	r3, #2
 800420c:	4403      	add	r3, r0
 800420e:	1a18      	subs	r0, r3, r0
 8004210:	b003      	add	sp, #12
 8004212:	bdf0      	pop	{r4, r5, r6, r7, pc}
 8004214:	f813 6b01 	ldrb.w	r6, [r3], #1
 8004218:	f801 6f01 	strb.w	r6, [r1, #1]!
 800421c:	e7ed      	b.n	80041fa <__exponent+0x44>
 800421e:	2330      	movs	r3, #48	@ 0x30
 8004220:	3130      	adds	r1, #48	@ 0x30
 8004222:	7083      	strb	r3, [r0, #2]
 8004224:	70c1      	strb	r1, [r0, #3]
 8004226:	1d03      	adds	r3, r0, #4
 8004228:	e7f1      	b.n	800420e <__exponent+0x58>
	...

0800422c <_printf_float>:
 800422c:	e92d 4ff0 	stmdb	sp!, {r4, r5, r6, r7, r8, r9, sl, fp, lr}
 8004230:	b08d      	sub	sp, #52	@ 0x34
 8004232:	460c      	mov	r4, r1
 8004234:	f8dd 8058 	ldr.w	r8, [sp, #88]	@ 0x58
 8004238:	4616      	mov	r6, r2
 800423a:	461f      	mov	r7, r3
 800423c:	4605      	mov	r5, r0
 800423e:	f000 fee9 	bl	8005014 <_localeconv_r>
 8004242:	6803      	ldr	r3, [r0, #0]
 8004244:	9304      	str	r3, [sp, #16]
 8004246:	4618      	mov	r0, r3
 8004248:	f7fc f81a 	bl	8000280 <strlen>
 800424c:	2300      	movs	r3, #0
 800424e:	930a      	str	r3, [sp, #40]	@ 0x28
 8004250:	f8d8 3000 	ldr.w	r3, [r8]
 8004254:	9005      	str	r0, [sp, #20]
 8004256:	3307      	adds	r3, #7
 8004258:	f023 0307 	bic.w	r3, r3, #7
 800425c:	f103 0208 	add.w	r2, r3, #8
 8004260:	f894 a018 	ldrb.w	sl, [r4, #24]
 8004264:	f8d4 b000 	ldr.w	fp, [r4]
 8004268:	f8c8 2000 	str.w	r2, [r8]
 800426c:	e9d3 8900 	ldrd	r8, r9, [r3]
 8004270:	f029 4300 	bic.w	r3, r9, #2147483648	@ 0x80000000
 8004274:	9307      	str	r3, [sp, #28]
 8004276:	f8cd 8018 	str.w	r8, [sp, #24]
 800427a:	e9c4 8912 	strd	r8, r9, [r4, #72]	@ 0x48
 800427e:	e9dd 0106 	ldrd	r0, r1, [sp, #24]
 8004282:	4b9c      	ldr	r3, [pc, #624]	@ (80044f4 <_printf_float+0x2c8>)
 8004284:	f04f 32ff 	mov.w	r2, #4294967295
 8004288:	f7fc fc58 	bl	8000b3c <__aeabi_dcmpun>
 800428c:	bb70      	cbnz	r0, 80042ec <_printf_float+0xc0>
 800428e:	e9dd 0106 	ldrd	r0, r1, [sp, #24]
 8004292:	4b98      	ldr	r3, [pc, #608]	@ (80044f4 <_printf_float+0x2c8>)
 8004294:	f04f 32ff 	mov.w	r2, #4294967295
 8004298:	f7fc fc32 	bl	8000b00 <__aeabi_dcmple>
 800429c:	bb30      	cbnz	r0, 80042ec <_printf_float+0xc0>
 800429e:	2200      	movs	r2, #0
 80042a0:	2300      	movs	r3, #0
 80042a2:	4640      	mov	r0, r8
 80042a4:	4649      	mov	r1, r9
 80042a6:	f7fc fc21 	bl	8000aec <__aeabi_dcmplt>
 80042aa:	b110      	cbz	r0, 80042b2 <_printf_float+0x86>
 80042ac:	232d      	movs	r3, #45	@ 0x2d
 80042ae:	f884 3043 	strb.w	r3, [r4, #67]	@ 0x43
 80042b2:	4a91      	ldr	r2, [pc, #580]	@ (80044f8 <_printf_float+0x2cc>)
 80042b4:	4b91      	ldr	r3, [pc, #580]	@ (80044fc <_printf_float+0x2d0>)
 80042b6:	f1ba 0f47 	cmp.w	sl, #71	@ 0x47
 80042ba:	bf8c      	ite	hi
 80042bc:	4690      	movhi	r8, r2
 80042be:	4698      	movls	r8, r3
 80042c0:	2303      	movs	r3, #3
 80042c2:	6123      	str	r3, [r4, #16]
 80042c4:	f02b 0304 	bic.w	r3, fp, #4
 80042c8:	6023      	str	r3, [r4, #0]
 80042ca:	f04f 0900 	mov.w	r9, #0
 80042ce:	9700      	str	r7, [sp, #0]
 80042d0:	4633      	mov	r3, r6
 80042d2:	aa0b      	add	r2, sp, #44	@ 0x2c
 80042d4:	4621      	mov	r1, r4
 80042d6:	4628      	mov	r0, r5
 80042d8:	f000 f9d2 	bl	8004680 <_printf_common>
 80042dc:	3001      	adds	r0, #1
 80042de:	f040 808d 	bne.w	80043fc <_printf_float+0x1d0>
 80042e2:	f04f 30ff 	mov.w	r0, #4294967295
 80042e6:	b00d      	add	sp, #52	@ 0x34
 80042e8:	e8bd 8ff0 	ldmia.w	sp!, {r4, r5, r6, r7, r8, r9, sl, fp, pc}
 80042ec:	4642      	mov	r2, r8
 80042ee:	464b      	mov	r3, r9
 80042f0:	4640      	mov	r0, r8
 80042f2:	4649      	mov	r1, r9
 80042f4:	f7fc fc22 	bl	8000b3c <__aeabi_dcmpun>
 80042f8:	b140      	cbz	r0, 800430c <_printf_float+0xe0>
 80042fa:	464b      	mov	r3, r9
 80042fc:	2b00      	cmp	r3, #0
 80042fe:	bfbc      	itt	lt
 8004300:	232d      	movlt	r3, #45	@ 0x2d
 8004302:	f884 3043 	strblt.w	r3, [r4, #67]	@ 0x43
 8004306:	4a7e      	ldr	r2, [pc, #504]	@ (8004500 <_printf_float+0x2d4>)
 8004308:	4b7e      	ldr	r3, [pc, #504]	@ (8004504 <_printf_float+0x2d8>)
 800430a:	e7d4      	b.n	80042b6 <_printf_float+0x8a>
 800430c:	6863      	ldr	r3, [r4, #4]
 800430e:	f00a 02df 	and.w	r2, sl, #223	@ 0xdf
 8004312:	9206      	str	r2, [sp, #24]
 8004314:	1c5a      	adds	r2, r3, #1
 8004316:	d13b      	bne.n	8004390 <_printf_float+0x164>
 8004318:	2306      	movs	r3, #6
 800431a:	6063      	str	r3, [r4, #4]
 800431c:	f44b 6280 	orr.w	r2, fp, #1024	@ 0x400
 8004320:	2300      	movs	r3, #0
 8004322:	6022      	str	r2, [r4, #0]
 8004324:	9303      	str	r3, [sp, #12]
 8004326:	ab0a      	add	r3, sp, #40	@ 0x28
 8004328:	e9cd a301 	strd	sl, r3, [sp, #4]
 800432c:	ab09      	add	r3, sp, #36	@ 0x24
 800432e:	9300      	str	r3, [sp, #0]
 8004330:	6861      	ldr	r1, [r4, #4]
 8004332:	ec49 8b10 	vmov	d0, r8, r9
 8004336:	f10d 0323 	add.w	r3, sp, #35	@ 0x23
 800433a:	4628      	mov	r0, r5
 800433c:	f7ff fed6 	bl	80040ec <__cvt>
 8004340:	9b06      	ldr	r3, [sp, #24]
 8004342:	9909      	ldr	r1, [sp, #36]	@ 0x24
 8004344:	2b47      	cmp	r3, #71	@ 0x47
 8004346:	4680      	mov	r8, r0
 8004348:	d129      	bne.n	800439e <_printf_float+0x172>
 800434a:	1cc8      	adds	r0, r1, #3
 800434c:	db02      	blt.n	8004354 <_printf_float+0x128>
 800434e:	6863      	ldr	r3, [r4, #4]
 8004350:	4299      	cmp	r1, r3
 8004352:	dd41      	ble.n	80043d8 <_printf_float+0x1ac>
 8004354:	f1aa 0a02 	sub.w	sl, sl, #2
 8004358:	fa5f fa8a 	uxtb.w	sl, sl
 800435c:	3901      	subs	r1, #1
 800435e:	4652      	mov	r2, sl
 8004360:	f104 0050 	add.w	r0, r4, #80	@ 0x50
 8004364:	9109      	str	r1, [sp, #36]	@ 0x24
 8004366:	f7ff ff26 	bl	80041b6 <__exponent>
 800436a:	9a0a      	ldr	r2, [sp, #40]	@ 0x28
 800436c:	1813      	adds	r3, r2, r0
 800436e:	2a01      	cmp	r2, #1
 8004370:	4681      	mov	r9, r0
 8004372:	6123      	str	r3, [r4, #16]
 8004374:	dc02      	bgt.n	800437c <_printf_float+0x150>
 8004376:	6822      	ldr	r2, [r4, #0]
 8004378:	07d2      	lsls	r2, r2, #31
 800437a:	d501      	bpl.n	8004380 <_printf_float+0x154>
 800437c:	3301      	adds	r3, #1
 800437e:	6123      	str	r3, [r4, #16]
 8004380:	f89d 3023 	ldrb.w	r3, [sp, #35]	@ 0x23
 8004384:	2b00      	cmp	r3, #0
 8004386:	d0a2      	beq.n	80042ce <_printf_float+0xa2>
 8004388:	232d      	movs	r3, #45	@ 0x2d
 800438a:	f884 3043 	strb.w	r3, [r4, #67]	@ 0x43
 800438e:	e79e      	b.n	80042ce <_printf_float+0xa2>
 8004390:	9a06      	ldr	r2, [sp, #24]
 8004392:	2a47      	cmp	r2, #71	@ 0x47
 8004394:	d1c2      	bne.n	800431c <_printf_float+0xf0>
 8004396:	2b00      	cmp	r3, #0
 8004398:	d1c0      	bne.n	800431c <_printf_float+0xf0>
 800439a:	2301      	movs	r3, #1
 800439c:	e7bd      	b.n	800431a <_printf_float+0xee>
 800439e:	f1ba 0f65 	cmp.w	sl, #101	@ 0x65
 80043a2:	d9db      	bls.n	800435c <_printf_float+0x130>
 80043a4:	f1ba 0f66 	cmp.w	sl, #102	@ 0x66
 80043a8:	d118      	bne.n	80043dc <_printf_float+0x1b0>
 80043aa:	2900      	cmp	r1, #0
 80043ac:	6863      	ldr	r3, [r4, #4]
 80043ae:	dd0b      	ble.n	80043c8 <_printf_float+0x19c>
 80043b0:	6121      	str	r1, [r4, #16]
 80043b2:	b913      	cbnz	r3, 80043ba <_printf_float+0x18e>
 80043b4:	6822      	ldr	r2, [r4, #0]
 80043b6:	07d0      	lsls	r0, r2, #31
 80043b8:	d502      	bpl.n	80043c0 <_printf_float+0x194>
 80043ba:	3301      	adds	r3, #1
 80043bc:	440b      	add	r3, r1
 80043be:	6123      	str	r3, [r4, #16]
 80043c0:	65a1      	str	r1, [r4, #88]	@ 0x58
 80043c2:	f04f 0900 	mov.w	r9, #0
 80043c6:	e7db      	b.n	8004380 <_printf_float+0x154>
 80043c8:	b913      	cbnz	r3, 80043d0 <_printf_float+0x1a4>
 80043ca:	6822      	ldr	r2, [r4, #0]
 80043cc:	07d2      	lsls	r2, r2, #31
 80043ce:	d501      	bpl.n	80043d4 <_printf_float+0x1a8>
 80043d0:	3302      	adds	r3, #2
 80043d2:	e7f4      	b.n	80043be <_printf_float+0x192>
 80043d4:	2301      	movs	r3, #1
 80043d6:	e7f2      	b.n	80043be <_printf_float+0x192>
 80043d8:	f04f 0a67 	mov.w	sl, #103	@ 0x67
 80043dc:	9b0a      	ldr	r3, [sp, #40]	@ 0x28
 80043de:	4299      	cmp	r1, r3
 80043e0:	db05      	blt.n	80043ee <_printf_float+0x1c2>
 80043e2:	6823      	ldr	r3, [r4, #0]
 80043e4:	6121      	str	r1, [r4, #16]
 80043e6:	07d8      	lsls	r0, r3, #31
 80043e8:	d5ea      	bpl.n	80043c0 <_printf_float+0x194>
 80043ea:	1c4b      	adds	r3, r1, #1
 80043ec:	e7e7      	b.n	80043be <_printf_float+0x192>
 80043ee:	2900      	cmp	r1, #0
 80043f0:	bfd4      	ite	le
 80043f2:	f1c1 0202 	rsble	r2, r1, #2
 80043f6:	2201      	movgt	r2, #1
 80043f8:	4413      	add	r3, r2
 80043fa:	e7e0      	b.n	80043be <_printf_float+0x192>
 80043fc:	6823      	ldr	r3, [r4, #0]
 80043fe:	055a      	lsls	r2, r3, #21
 8004400:	d407      	bmi.n	8004412 <_printf_float+0x1e6>
 8004402:	6923      	ldr	r3, [r4, #16]
 8004404:	4642      	mov	r2, r8
 8004406:	4631      	mov	r1, r6
 8004408:	4628      	mov	r0, r5
 800440a:	47b8      	blx	r7
 800440c:	3001      	adds	r0, #1
 800440e:	d12b      	bne.n	8004468 <_printf_float+0x23c>
 8004410:	e767      	b.n	80042e2 <_printf_float+0xb6>
 8004412:	f1ba 0f65 	cmp.w	sl, #101	@ 0x65
 8004416:	f240 80dd 	bls.w	80045d4 <_printf_float+0x3a8>
 800441a:	e9d4 0112 	ldrd	r0, r1, [r4, #72]	@ 0x48
 800441e:	2200      	movs	r2, #0
 8004420:	2300      	movs	r3, #0
 8004422:	f7fc fb59 	bl	8000ad8 <__aeabi_dcmpeq>
 8004426:	2800      	cmp	r0, #0
 8004428:	d033      	beq.n	8004492 <_printf_float+0x266>
 800442a:	4a37      	ldr	r2, [pc, #220]	@ (8004508 <_printf_float+0x2dc>)
 800442c:	2301      	movs	r3, #1
 800442e:	4631      	mov	r1, r6
 8004430:	4628      	mov	r0, r5
 8004432:	47b8      	blx	r7
 8004434:	3001      	adds	r0, #1
 8004436:	f43f af54 	beq.w	80042e2 <_printf_float+0xb6>
 800443a:	e9dd 3809 	ldrd	r3, r8, [sp, #36]	@ 0x24
 800443e:	4543      	cmp	r3, r8
 8004440:	db02      	blt.n	8004448 <_printf_float+0x21c>
 8004442:	6823      	ldr	r3, [r4, #0]
 8004444:	07d8      	lsls	r0, r3, #31
 8004446:	d50f      	bpl.n	8004468 <_printf_float+0x23c>
 8004448:	e9dd 2304 	ldrd	r2, r3, [sp, #16]
 800444c:	4631      	mov	r1, r6
 800444e:	4628      	mov	r0, r5
 8004450:	47b8      	blx	r7
 8004452:	3001      	adds	r0, #1
 8004454:	f43f af45 	beq.w	80042e2 <_printf_float+0xb6>
 8004458:	f04f 0900 	mov.w	r9, #0
 800445c:	f108 38ff 	add.w	r8, r8, #4294967295
 8004460:	f104 0a1a 	add.w	sl, r4, #26
 8004464:	45c8      	cmp	r8, r9
 8004466:	dc09      	bgt.n	800447c <_printf_float+0x250>
 8004468:	6823      	ldr	r3, [r4, #0]
 800446a:	079b      	lsls	r3, r3, #30
 800446c:	f100 8103 	bmi.w	8004676 <_printf_float+0x44a>
 8004470:	68e0      	ldr	r0, [r4, #12]
 8004472:	9b0b      	ldr	r3, [sp, #44]	@ 0x2c
 8004474:	4298      	cmp	r0, r3
 8004476:	bfb8      	it	lt
 8004478:	4618      	movlt	r0, r3
 800447a:	e734      	b.n	80042e6 <_printf_float+0xba>
 800447c:	2301      	movs	r3, #1
 800447e:	4652      	mov	r2, sl
 8004480:	4631      	mov	r1, r6
 8004482:	4628      	mov	r0, r5
 8004484:	47b8      	blx	r7
 8004486:	3001      	adds	r0, #1
 8004488:	f43f af2b 	beq.w	80042e2 <_printf_float+0xb6>
 800448c:	f109 0901 	add.w	r9, r9, #1
 8004490:	e7e8      	b.n	8004464 <_printf_float+0x238>
 8004492:	9b09      	ldr	r3, [sp, #36]	@ 0x24
 8004494:	2b00      	cmp	r3, #0
 8004496:	dc39      	bgt.n	800450c <_printf_float+0x2e0>
 8004498:	4a1b      	ldr	r2, [pc, #108]	@ (8004508 <_printf_float+0x2dc>)
 800449a:	2301      	movs	r3, #1
 800449c:	4631      	mov	r1, r6
 800449e:	4628      	mov	r0, r5
 80044a0:	47b8      	blx	r7
 80044a2:	3001      	adds	r0, #1
 80044a4:	f43f af1d 	beq.w	80042e2 <_printf_float+0xb6>
 80044a8:	e9dd 3909 	ldrd	r3, r9, [sp, #36]	@ 0x24
 80044ac:	ea59 0303 	orrs.w	r3, r9, r3
 80044b0:	d102      	bne.n	80044b8 <_printf_float+0x28c>
 80044b2:	6823      	ldr	r3, [r4, #0]
 80044b4:	07d9      	lsls	r1, r3, #31
 80044b6:	d5d7      	bpl.n	8004468 <_printf_float+0x23c>
 80044b8:	e9dd 2304 	ldrd	r2, r3, [sp, #16]
 80044bc:	4631      	mov	r1, r6
 80044be:	4628      	mov	r0, r5
 80044c0:	47b8      	blx	r7
 80044c2:	3001      	adds	r0, #1
 80044c4:	f43f af0d 	beq.w	80042e2 <_printf_float+0xb6>
 80044c8:	f04f 0a00 	mov.w	sl, #0
 80044cc:	f104 0b1a 	add.w	fp, r4, #26
 80044d0:	9b09      	ldr	r3, [sp, #36]	@ 0x24
 80044d2:	425b      	negs	r3, r3
 80044d4:	4553      	cmp	r3, sl
 80044d6:	dc01      	bgt.n	80044dc <_printf_float+0x2b0>
 80044d8:	464b      	mov	r3, r9
 80044da:	e793      	b.n	8004404 <_printf_float+0x1d8>
 80044dc:	2301      	movs	r3, #1
 80044de:	465a      	mov	r2, fp
 80044e0:	4631      	mov	r1, r6
 80044e2:	4628      	mov	r0, r5
 80044e4:	47b8      	blx	r7
 80044e6:	3001      	adds	r0, #1
 80044e8:	f43f aefb 	beq.w	80042e2 <_printf_float+0xb6>
 80044ec:	f10a 0a01 	add.w	sl, sl, #1
 80044f0:	e7ee      	b.n	80044d0 <_printf_float+0x2a4>
 80044f2:	bf00      	nop
 80044f4:	7fefffff 	.word	0x7fefffff
 80044f8:	080088c8 	.word	0x080088c8
 80044fc:	080088c4 	.word	0x080088c4
 8004500:	080088d0 	.word	0x080088d0
 8004504:	080088cc 	.word	0x080088cc
 8004508:	080088d4 	.word	0x080088d4
 800450c:	6da3      	ldr	r3, [r4, #88]	@ 0x58
 800450e:	f8dd a028 	ldr.w	sl, [sp, #40]	@ 0x28
 8004512:	4553      	cmp	r3, sl
 8004514:	bfa8      	it	ge
 8004516:	4653      	movge	r3, sl
 8004518:	2b00      	cmp	r3, #0
 800451a:	4699      	mov	r9, r3
 800451c:	dc36      	bgt.n	800458c <_printf_float+0x360>
 800451e:	f04f 0b00 	mov.w	fp, #0
 8004522:	ea29 79e9 	bic.w	r9, r9, r9, asr #31
 8004526:	f104 021a 	add.w	r2, r4, #26
 800452a:	6da3      	ldr	r3, [r4, #88]	@ 0x58
 800452c:	9306      	str	r3, [sp, #24]
 800452e:	eba3 0309 	sub.w	r3, r3, r9
 8004532:	455b      	cmp	r3, fp
 8004534:	dc31      	bgt.n	800459a <_printf_float+0x36e>
 8004536:	9b09      	ldr	r3, [sp, #36]	@ 0x24
 8004538:	459a      	cmp	sl, r3
 800453a:	dc3a      	bgt.n	80045b2 <_printf_float+0x386>
 800453c:	6823      	ldr	r3, [r4, #0]
 800453e:	07da      	lsls	r2, r3, #31
 8004540:	d437      	bmi.n	80045b2 <_printf_float+0x386>
 8004542:	9b09      	ldr	r3, [sp, #36]	@ 0x24
 8004544:	ebaa 0903 	sub.w	r9, sl, r3
 8004548:	9b06      	ldr	r3, [sp, #24]
 800454a:	ebaa 0303 	sub.w	r3, sl, r3
 800454e:	4599      	cmp	r9, r3
 8004550:	bfa8      	it	ge
 8004552:	4699      	movge	r9, r3
 8004554:	f1b9 0f00 	cmp.w	r9, #0
 8004558:	dc33      	bgt.n	80045c2 <_printf_float+0x396>
 800455a:	f04f 0800 	mov.w	r8, #0
 800455e:	ea29 79e9 	bic.w	r9, r9, r9, asr #31
 8004562:	f104 0b1a 	add.w	fp, r4, #26
 8004566:	9b09      	ldr	r3, [sp, #36]	@ 0x24
 8004568:	ebaa 0303 	sub.w	r3, sl, r3
 800456c:	eba3 0309 	sub.w	r3, r3, r9
 8004570:	4543      	cmp	r3, r8
 8004572:	f77f af79 	ble.w	8004468 <_printf_float+0x23c>
 8004576:	2301      	movs	r3, #1
 8004578:	465a      	mov	r2, fp
 800457a:	4631      	mov	r1, r6
 800457c:	4628      	mov	r0, r5
 800457e:	47b8      	blx	r7
 8004580:	3001      	adds	r0, #1
 8004582:	f43f aeae 	beq.w	80042e2 <_printf_float+0xb6>
 8004586:	f108 0801 	add.w	r8, r8, #1
 800458a:	e7ec      	b.n	8004566 <_printf_float+0x33a>
 800458c:	4642      	mov	r2, r8
 800458e:	4631      	mov	r1, r6
 8004590:	4628      	mov	r0, r5
 8004592:	47b8      	blx	r7
 8004594:	3001      	adds	r0, #1
 8004596:	d1c2      	bne.n	800451e <_printf_float+0x2f2>
 8004598:	e6a3      	b.n	80042e2 <_printf_float+0xb6>
 800459a:	2301      	movs	r3, #1
 800459c:	4631      	mov	r1, r6
 800459e:	4628      	mov	r0, r5
 80045a0:	9206      	str	r2, [sp, #24]
 80045a2:	47b8      	blx	r7
 80045a4:	3001      	adds	r0, #1
 80045a6:	f43f ae9c 	beq.w	80042e2 <_printf_float+0xb6>
 80045aa:	9a06      	ldr	r2, [sp, #24]
 80045ac:	f10b 0b01 	add.w	fp, fp, #1
 80045b0:	e7bb      	b.n	800452a <_printf_float+0x2fe>
 80045b2:	e9dd 2304 	ldrd	r2, r3, [sp, #16]
 80045b6:	4631      	mov	r1, r6
 80045b8:	4628      	mov	r0, r5
 80045ba:	47b8      	blx	r7
 80045bc:	3001      	adds	r0, #1
 80045be:	d1c0      	bne.n	8004542 <_printf_float+0x316>
 80045c0:	e68f      	b.n	80042e2 <_printf_float+0xb6>
 80045c2:	9a06      	ldr	r2, [sp, #24]
 80045c4:	464b      	mov	r3, r9
 80045c6:	4442      	add	r2, r8
 80045c8:	4631      	mov	r1, r6
 80045ca:	4628      	mov	r0, r5
 80045cc:	47b8      	blx	r7
 80045ce:	3001      	adds	r0, #1
 80045d0:	d1c3      	bne.n	800455a <_printf_float+0x32e>
 80045d2:	e686      	b.n	80042e2 <_printf_float+0xb6>
 80045d4:	f8dd a028 	ldr.w	sl, [sp, #40]	@ 0x28
 80045d8:	f1ba 0f01 	cmp.w	sl, #1
 80045dc:	dc01      	bgt.n	80045e2 <_printf_float+0x3b6>
 80045de:	07db      	lsls	r3, r3, #31
 80045e0:	d536      	bpl.n	8004650 <_printf_float+0x424>
 80045e2:	2301      	movs	r3, #1
 80045e4:	4642      	mov	r2, r8
 80045e6:	4631      	mov	r1, r6
 80045e8:	4628      	mov	r0, r5
 80045ea:	47b8      	blx	r7
 80045ec:	3001      	adds	r0, #1
 80045ee:	f43f ae78 	beq.w	80042e2 <_printf_float+0xb6>
 80045f2:	e9dd 2304 	ldrd	r2, r3, [sp, #16]
 80045f6:	4631      	mov	r1, r6
 80045f8:	4628      	mov	r0, r5
 80045fa:	47b8      	blx	r7
 80045fc:	3001      	adds	r0, #1
 80045fe:	f43f ae70 	beq.w	80042e2 <_printf_float+0xb6>
 8004602:	e9d4 0112 	ldrd	r0, r1, [r4, #72]	@ 0x48
 8004606:	2200      	movs	r2, #0
 8004608:	2300      	movs	r3, #0
 800460a:	f10a 3aff 	add.w	sl, sl, #4294967295
 800460e:	f7fc fa63 	bl	8000ad8 <__aeabi_dcmpeq>
 8004612:	b9c0      	cbnz	r0, 8004646 <_printf_float+0x41a>
 8004614:	4653      	mov	r3, sl
 8004616:	f108 0201 	add.w	r2, r8, #1
 800461a:	4631      	mov	r1, r6
 800461c:	4628      	mov	r0, r5
 800461e:	47b8      	blx	r7
 8004620:	3001      	adds	r0, #1
 8004622:	d10c      	bne.n	800463e <_printf_float+0x412>
 8004624:	e65d      	b.n	80042e2 <_printf_float+0xb6>
 8004626:	2301      	movs	r3, #1
 8004628:	465a      	mov	r2, fp
 800462a:	4631      	mov	r1, r6
 800462c:	4628      	mov	r0, r5
 800462e:	47b8      	blx	r7
 8004630:	3001      	adds	r0, #1
 8004632:	f43f ae56 	beq.w	80042e2 <_printf_float+0xb6>
 8004636:	f108 0801 	add.w	r8, r8, #1
 800463a:	45d0      	cmp	r8, sl
 800463c:	dbf3      	blt.n	8004626 <_printf_float+0x3fa>
 800463e:	464b      	mov	r3, r9
 8004640:	f104 0250 	add.w	r2, r4, #80	@ 0x50
 8004644:	e6df      	b.n	8004406 <_printf_float+0x1da>
 8004646:	f04f 0800 	mov.w	r8, #0
 800464a:	f104 0b1a 	add.w	fp, r4, #26
 800464e:	e7f4      	b.n	800463a <_printf_float+0x40e>
 8004650:	2301      	movs	r3, #1
 8004652:	4642      	mov	r2, r8
 8004654:	e7e1      	b.n	800461a <_printf_float+0x3ee>
 8004656:	2301      	movs	r3, #1
 8004658:	464a      	mov	r2, r9
 800465a:	4631      	mov	r1, r6
 800465c:	4628      	mov	r0, r5
 800465e:	47b8      	blx	r7
 8004660:	3001      	adds	r0, #1
 8004662:	f43f ae3e 	beq.w	80042e2 <_printf_float+0xb6>
 8004666:	f108 0801 	add.w	r8, r8, #1
 800466a:	68e3      	ldr	r3, [r4, #12]
 800466c:	990b      	ldr	r1, [sp, #44]	@ 0x2c
 800466e:	1a5b      	subs	r3, r3, r1
 8004670:	4543      	cmp	r3, r8
 8004672:	dcf0      	bgt.n	8004656 <_printf_float+0x42a>
 8004674:	e6fc      	b.n	8004470 <_printf_float+0x244>
 8004676:	f04f 0800 	mov.w	r8, #0
 800467a:	f104 0919 	add.w	r9, r4, #25
 800467e:	e7f4      	b.n	800466a <_printf_float+0x43e>

08004680 <_printf_common>:
 8004680:	e92d 47f0 	stmdb	sp!, {r4, r5, r6, r7, r8, r9, sl, lr}
 8004684:	4616      	mov	r6, r2
 8004686:	4698      	mov	r8, r3
 8004688:	688a      	ldr	r2, [r1, #8]
 800468a:	690b      	ldr	r3, [r1, #16]
 800468c:	f8dd 9020 	ldr.w	r9, [sp, #32]
 8004690:	4293      	cmp	r3, r2
 8004692:	bfb8      	it	lt
 8004694:	4613      	movlt	r3, r2
 8004696:	6033      	str	r3, [r6, #0]
 8004698:	f891 2043 	ldrb.w	r2, [r1, #67]	@ 0x43
 800469c:	4607      	mov	r7, r0
 800469e:	460c      	mov	r4, r1
 80046a0:	b10a      	cbz	r2, 80046a6 <_printf_common+0x26>
 80046a2:	3301      	adds	r3, #1
 80046a4:	6033      	str	r3, [r6, #0]
 80046a6:	6823      	ldr	r3, [r4, #0]
 80046a8:	0699      	lsls	r1, r3, #26
 80046aa:	bf42      	ittt	mi
 80046ac:	6833      	ldrmi	r3, [r6, #0]
 80046ae:	3302      	addmi	r3, #2
 80046b0:	6033      	strmi	r3, [r6, #0]
 80046b2:	6825      	ldr	r5, [r4, #0]
 80046b4:	f015 0506 	ands.w	r5, r5, #6
 80046b8:	d106      	bne.n	80046c8 <_printf_common+0x48>
 80046ba:	f104 0a19 	add.w	sl, r4, #25
 80046be:	68e3      	ldr	r3, [r4, #12]
 80046c0:	6832      	ldr	r2, [r6, #0]
 80046c2:	1a9b      	subs	r3, r3, r2
 80046c4:	42ab      	cmp	r3, r5
 80046c6:	dc26      	bgt.n	8004716 <_printf_common+0x96>
 80046c8:	f894 3043 	ldrb.w	r3, [r4, #67]	@ 0x43
 80046cc:	6822      	ldr	r2, [r4, #0]
 80046ce:	3b00      	subs	r3, #0
 80046d0:	bf18      	it	ne
 80046d2:	2301      	movne	r3, #1
 80046d4:	0692      	lsls	r2, r2, #26
 80046d6:	d42b      	bmi.n	8004730 <_printf_common+0xb0>
 80046d8:	f104 0243 	add.w	r2, r4, #67	@ 0x43
 80046dc:	4641      	mov	r1, r8
 80046de:	4638      	mov	r0, r7
 80046e0:	47c8      	blx	r9
 80046e2:	3001      	adds	r0, #1
 80046e4:	d01e      	beq.n	8004724 <_printf_common+0xa4>
 80046e6:	6823      	ldr	r3, [r4, #0]
 80046e8:	6922      	ldr	r2, [r4, #16]
 80046ea:	f003 0306 	and.w	r3, r3, #6
 80046ee:	2b04      	cmp	r3, #4
 80046f0:	bf02      	ittt	eq
 80046f2:	68e5      	ldreq	r5, [r4, #12]
 80046f4:	6833      	ldreq	r3, [r6, #0]
 80046f6:	1aed      	subeq	r5, r5, r3
 80046f8:	68a3      	ldr	r3, [r4, #8]
 80046fa:	bf0c      	ite	eq
 80046fc:	ea25 75e5 	biceq.w	r5, r5, r5, asr #31
 8004700:	2500      	movne	r5, #0
 8004702:	4293      	cmp	r3, r2
 8004704:	bfc4      	itt	gt
 8004706:	1a9b      	subgt	r3, r3, r2
 8004708:	18ed      	addgt	r5, r5, r3
 800470a:	2600      	movs	r6, #0
 800470c:	341a      	adds	r4, #26
 800470e:	42b5      	cmp	r5, r6
 8004710:	d11a      	bne.n	8004748 <_printf_common+0xc8>
 8004712:	2000      	movs	r0, #0
 8004714:	e008      	b.n	8004728 <_printf_common+0xa8>
 8004716:	2301      	movs	r3, #1
 8004718:	4652      	mov	r2, sl
 800471a:	4641      	mov	r1, r8
 800471c:	4638      	mov	r0, r7
 800471e:	47c8      	blx	r9
 8004720:	3001      	adds	r0, #1
 8004722:	d103      	bne.n	800472c <_printf_common+0xac>
 8004724:	f04f 30ff 	mov.w	r0, #4294967295
 8004728:	e8bd 87f0 	ldmia.w	sp!, {r4, r5, r6, r7, r8, r9, sl, pc}
 800472c:	3501      	adds	r5, #1
 800472e:	e7c6      	b.n	80046be <_printf_common+0x3e>
 8004730:	18e1      	adds	r1, r4, r3
 8004732:	1c5a      	adds	r2, r3, #1
 8004734:	2030      	movs	r0, #48	@ 0x30
 8004736:	f881 0043 	strb.w	r0, [r1, #67]	@ 0x43
 800473a:	4422      	add	r2, r4
 800473c:	f894 1045 	ldrb.w	r1, [r4, #69]	@ 0x45
 8004740:	f882 1043 	strb.w	r1, [r2, #67]	@ 0x43
 8004744:	3302      	adds	r3, #2
 8004746:	e7c7      	b.n	80046d8 <_printf_common+0x58>
 8004748:	2301      	movs	r3, #1
 800474a:	4622      	mov	r2, r4
 800474c:	4641      	mov	r1, r8
 800474e:	4638      	mov	r0, r7
 8004750:	47c8      	blx	r9
 8004752:	3001      	adds	r0, #1
 8004754:	d0e6      	beq.n	8004724 <_printf_common+0xa4>
 8004756:	3601      	adds	r6, #1
 8004758:	e7d9      	b.n	800470e <_printf_common+0x8e>
	...

0800475c <_printf_i>:
 800475c:	e92d 47ff 	stmdb	sp!, {r0, r1, r2, r3, r4, r5, r6, r7, r8, r9, sl, lr}
 8004760:	7e0f      	ldrb	r7, [r1, #24]
 8004762:	9e0c      	ldr	r6, [sp, #48]	@ 0x30
 8004764:	2f78      	cmp	r7, #120	@ 0x78
 8004766:	4691      	mov	r9, r2
 8004768:	4680      	mov	r8, r0
 800476a:	460c      	mov	r4, r1
 800476c:	469a      	mov	sl, r3
 800476e:	f101 0243 	add.w	r2, r1, #67	@ 0x43
 8004772:	d807      	bhi.n	8004784 <_printf_i+0x28>
 8004774:	2f62      	cmp	r7, #98	@ 0x62
 8004776:	d80a      	bhi.n	800478e <_printf_i+0x32>
 8004778:	2f00      	cmp	r7, #0
 800477a:	f000 80d1 	beq.w	8004920 <_printf_i+0x1c4>
 800477e:	2f58      	cmp	r7, #88	@ 0x58
 8004780:	f000 80b8 	beq.w	80048f4 <_printf_i+0x198>
 8004784:	f104 0642 	add.w	r6, r4, #66	@ 0x42
 8004788:	f884 7042 	strb.w	r7, [r4, #66]	@ 0x42
 800478c:	e03a      	b.n	8004804 <_printf_i+0xa8>
 800478e:	f1a7 0363 	sub.w	r3, r7, #99	@ 0x63
 8004792:	2b15      	cmp	r3, #21
 8004794:	d8f6      	bhi.n	8004784 <_printf_i+0x28>
 8004796:	a101      	add	r1, pc, #4	@ (adr r1, 800479c <_printf_i+0x40>)
 8004798:	f851 f023 	ldr.w	pc, [r1, r3, lsl #2]
 800479c:	080047f5 	.word	0x080047f5
 80047a0:	08004809 	.word	0x08004809
 80047a4:	08004785 	.word	0x08004785
 80047a8:	08004785 	.word	0x08004785
 80047ac:	08004785 	.word	0x08004785
 80047b0:	08004785 	.word	0x08004785
 80047b4:	08004809 	.word	0x08004809
 80047b8:	08004785 	.word	0x08004785
 80047bc:	08004785 	.word	0x08004785
 80047c0:	08004785 	.word	0x08004785
 80047c4:	08004785 	.word	0x08004785
 80047c8:	08004907 	.word	0x08004907
 80047cc:	08004833 	.word	0x08004833
 80047d0:	080048c1 	.word	0x080048c1
 80047d4:	08004785 	.word	0x08004785
 80047d8:	08004785 	.word	0x08004785
 80047dc:	08004929 	.word	0x08004929
 80047e0:	08004785 	.word	0x08004785
 80047e4:	08004833 	.word	0x08004833
 80047e8:	08004785 	.word	0x08004785
 80047ec:	08004785 	.word	0x08004785
 80047f0:	080048c9 	.word	0x080048c9
 80047f4:	6833      	ldr	r3, [r6, #0]
 80047f6:	1d1a      	adds	r2, r3, #4
 80047f8:	681b      	ldr	r3, [r3, #0]
 80047fa:	6032      	str	r2, [r6, #0]
 80047fc:	f104 0642 	add.w	r6, r4, #66	@ 0x42
 8004800:	f884 3042 	strb.w	r3, [r4, #66]	@ 0x42
 8004804:	2301      	movs	r3, #1
 8004806:	e09c      	b.n	8004942 <_printf_i+0x1e6>
 8004808:	6833      	ldr	r3, [r6, #0]
 800480a:	6820      	ldr	r0, [r4, #0]
 800480c:	1d19      	adds	r1, r3, #4
 800480e:	6031      	str	r1, [r6, #0]
 8004810:	0606      	lsls	r6, r0, #24
 8004812:	d501      	bpl.n	8004818 <_printf_i+0xbc>
 8004814:	681d      	ldr	r5, [r3, #0]
 8004816:	e003      	b.n	8004820 <_printf_i+0xc4>
 8004818:	0645      	lsls	r5, r0, #25
 800481a:	d5fb      	bpl.n	8004814 <_printf_i+0xb8>
 800481c:	f9b3 5000 	ldrsh.w	r5, [r3]
 8004820:	2d00      	cmp	r5, #0
 8004822:	da03      	bge.n	800482c <_printf_i+0xd0>
 8004824:	232d      	movs	r3, #45	@ 0x2d
 8004826:	426d      	negs	r5, r5
 8004828:	f884 3043 	strb.w	r3, [r4, #67]	@ 0x43
 800482c:	4858      	ldr	r0, [pc, #352]	@ (8004990 <_printf_i+0x234>)
 800482e:	230a      	movs	r3, #10
 8004830:	e011      	b.n	8004856 <_printf_i+0xfa>
 8004832:	6821      	ldr	r1, [r4, #0]
 8004834:	6833      	ldr	r3, [r6, #0]
 8004836:	0608      	lsls	r0, r1, #24
 8004838:	f853 5b04 	ldr.w	r5, [r3], #4
 800483c:	d402      	bmi.n	8004844 <_printf_i+0xe8>
 800483e:	0649      	lsls	r1, r1, #25
 8004840:	bf48      	it	mi
 8004842:	b2ad      	uxthmi	r5, r5
 8004844:	2f6f      	cmp	r7, #111	@ 0x6f
 8004846:	4852      	ldr	r0, [pc, #328]	@ (8004990 <_printf_i+0x234>)
 8004848:	6033      	str	r3, [r6, #0]
 800484a:	bf14      	ite	ne
 800484c:	230a      	movne	r3, #10
 800484e:	2308      	moveq	r3, #8
 8004850:	2100      	movs	r1, #0
 8004852:	f884 1043 	strb.w	r1, [r4, #67]	@ 0x43
 8004856:	6866      	ldr	r6, [r4, #4]
 8004858:	60a6      	str	r6, [r4, #8]
 800485a:	2e00      	cmp	r6, #0
 800485c:	db05      	blt.n	800486a <_printf_i+0x10e>
 800485e:	6821      	ldr	r1, [r4, #0]
 8004860:	432e      	orrs	r6, r5
 8004862:	f021 0104 	bic.w	r1, r1, #4
 8004866:	6021      	str	r1, [r4, #0]
 8004868:	d04b      	beq.n	8004902 <_printf_i+0x1a6>
 800486a:	4616      	mov	r6, r2
 800486c:	fbb5 f1f3 	udiv	r1, r5, r3
 8004870:	fb03 5711 	mls	r7, r3, r1, r5
 8004874:	5dc7      	ldrb	r7, [r0, r7]
 8004876:	f806 7d01 	strb.w	r7, [r6, #-1]!
 800487a:	462f      	mov	r7, r5
 800487c:	42bb      	cmp	r3, r7
 800487e:	460d      	mov	r5, r1
 8004880:	d9f4      	bls.n	800486c <_printf_i+0x110>
 8004882:	2b08      	cmp	r3, #8
 8004884:	d10b      	bne.n	800489e <_printf_i+0x142>
 8004886:	6823      	ldr	r3, [r4, #0]
 8004888:	07df      	lsls	r7, r3, #31
 800488a:	d508      	bpl.n	800489e <_printf_i+0x142>
 800488c:	6923      	ldr	r3, [r4, #16]
 800488e:	6861      	ldr	r1, [r4, #4]
 8004890:	4299      	cmp	r1, r3
 8004892:	bfde      	ittt	le
 8004894:	2330      	movle	r3, #48	@ 0x30
 8004896:	f806 3c01 	strble.w	r3, [r6, #-1]
 800489a:	f106 36ff 	addle.w	r6, r6, #4294967295
 800489e:	1b92      	subs	r2, r2, r6
 80048a0:	6122      	str	r2, [r4, #16]
 80048a2:	f8cd a000 	str.w	sl, [sp]
 80048a6:	464b      	mov	r3, r9
 80048a8:	aa03      	add	r2, sp, #12
 80048aa:	4621      	mov	r1, r4
 80048ac:	4640      	mov	r0, r8
 80048ae:	f7ff fee7 	bl	8004680 <_printf_common>
 80048b2:	3001      	adds	r0, #1
 80048b4:	d14a      	bne.n	800494c <_printf_i+0x1f0>
 80048b6:	f04f 30ff 	mov.w	r0, #4294967295
 80048ba:	b004      	add	sp, #16
 80048bc:	e8bd 87f0 	ldmia.w	sp!, {r4, r5, r6, r7, r8, r9, sl, pc}
 80048c0:	6823      	ldr	r3, [r4, #0]
 80048c2:	f043 0320 	orr.w	r3, r3, #32
 80048c6:	6023      	str	r3, [r4, #0]
 80048c8:	4832      	ldr	r0, [pc, #200]	@ (8004994 <_printf_i+0x238>)
 80048ca:	2778      	movs	r7, #120	@ 0x78
 80048cc:	f884 7045 	strb.w	r7, [r4, #69]	@ 0x45
 80048d0:	6823      	ldr	r3, [r4, #0]
 80048d2:	6831      	ldr	r1, [r6, #0]
 80048d4:	061f      	lsls	r7, r3, #24
 80048d6:	f851 5b04 	ldr.w	r5, [r1], #4
 80048da:	d402      	bmi.n	80048e2 <_printf_i+0x186>
 80048dc:	065f      	lsls	r7, r3, #25
 80048de:	bf48      	it	mi
 80048e0:	b2ad      	uxthmi	r5, r5
 80048e2:	6031      	str	r1, [r6, #0]
 80048e4:	07d9      	lsls	r1, r3, #31
 80048e6:	bf44      	itt	mi
 80048e8:	f043 0320 	orrmi.w	r3, r3, #32
 80048ec:	6023      	strmi	r3, [r4, #0]
 80048ee:	b11d      	cbz	r5, 80048f8 <_printf_i+0x19c>
 80048f0:	2310      	movs	r3, #16
 80048f2:	e7ad      	b.n	8004850 <_printf_i+0xf4>
 80048f4:	4826      	ldr	r0, [pc, #152]	@ (8004990 <_printf_i+0x234>)
 80048f6:	e7e9      	b.n	80048cc <_printf_i+0x170>
 80048f8:	6823      	ldr	r3, [r4, #0]
 80048fa:	f023 0320 	bic.w	r3, r3, #32
 80048fe:	6023      	str	r3, [r4, #0]
 8004900:	e7f6      	b.n	80048f0 <_printf_i+0x194>
 8004902:	4616      	mov	r6, r2
 8004904:	e7bd      	b.n	8004882 <_printf_i+0x126>
 8004906:	6833      	ldr	r3, [r6, #0]
 8004908:	6825      	ldr	r5, [r4, #0]
 800490a:	6961      	ldr	r1, [r4, #20]
 800490c:	1d18      	adds	r0, r3, #4
 800490e:	6030      	str	r0, [r6, #0]
 8004910:	062e      	lsls	r6, r5, #24
 8004912:	681b      	ldr	r3, [r3, #0]
 8004914:	d501      	bpl.n	800491a <_printf_i+0x1be>
 8004916:	6019      	str	r1, [r3, #0]
 8004918:	e002      	b.n	8004920 <_printf_i+0x1c4>
 800491a:	0668      	lsls	r0, r5, #25
 800491c:	d5fb      	bpl.n	8004916 <_printf_i+0x1ba>
 800491e:	8019      	strh	r1, [r3, #0]
 8004920:	2300      	movs	r3, #0
 8004922:	6123      	str	r3, [r4, #16]
 8004924:	4616      	mov	r6, r2
 8004926:	e7bc      	b.n	80048a2 <_printf_i+0x146>
 8004928:	6833      	ldr	r3, [r6, #0]
 800492a:	1d1a      	adds	r2, r3, #4
 800492c:	6032      	str	r2, [r6, #0]
 800492e:	681e      	ldr	r6, [r3, #0]
 8004930:	6862      	ldr	r2, [r4, #4]
 8004932:	2100      	movs	r1, #0
 8004934:	4630      	mov	r0, r6
 8004936:	f7fb fc53 	bl	80001e0 <memchr>
 800493a:	b108      	cbz	r0, 8004940 <_printf_i+0x1e4>
 800493c:	1b80      	subs	r0, r0, r6
 800493e:	6060      	str	r0, [r4, #4]
 8004940:	6863      	ldr	r3, [r4, #4]
 8004942:	6123      	str	r3, [r4, #16]
 8004944:	2300      	movs	r3, #0
 8004946:	f884 3043 	strb.w	r3, [r4, #67]	@ 0x43
 800494a:	e7aa      	b.n	80048a2 <_printf_i+0x146>
 800494c:	6923      	ldr	r3, [r4, #16]
 800494e:	4632      	mov	r2, r6
 8004950:	4649      	mov	r1, r9
 8004952:	4640      	mov	r0, r8
 8004954:	47d0      	blx	sl
 8004956:	3001      	adds	r0, #1
 8004958:	d0ad      	beq.n	80048b6 <_printf_i+0x15a>
 800495a:	6823      	ldr	r3, [r4, #0]
 800495c:	079b      	lsls	r3, r3, #30
 800495e:	d413      	bmi.n	8004988 <_printf_i+0x22c>
 8004960:	68e0      	ldr	r0, [r4, #12]
 8004962:	9b03      	ldr	r3, [sp, #12]
 8004964:	4298      	cmp	r0, r3
 8004966:	bfb8      	it	lt
 8004968:	4618      	movlt	r0, r3
 800496a:	e7a6      	b.n	80048ba <_printf_i+0x15e>
 800496c:	2301      	movs	r3, #1
 800496e:	4632      	mov	r2, r6
 8004970:	4649      	mov	r1, r9
 8004972:	4640      	mov	r0, r8
 8004974:	47d0      	blx	sl
 8004976:	3001      	adds	r0, #1
 8004978:	d09d      	beq.n	80048b6 <_printf_i+0x15a>
 800497a:	3501      	adds	r5, #1
 800497c:	68e3      	ldr	r3, [r4, #12]
 800497e:	9903      	ldr	r1, [sp, #12]
 8004980:	1a5b      	subs	r3, r3, r1
 8004982:	42ab      	cmp	r3, r5
 8004984:	dcf2      	bgt.n	800496c <_printf_i+0x210>
 8004986:	e7eb      	b.n	8004960 <_printf_i+0x204>
 8004988:	2500      	movs	r5, #0
 800498a:	f104 0619 	add.w	r6, r4, #25
 800498e:	e7f5      	b.n	800497c <_printf_i+0x220>
 8004990:	080088d6 	.word	0x080088d6
 8004994:	080088e7 	.word	0x080088e7

08004998 <_scanf_float>:
 8004998:	e92d 4ff0 	stmdb	sp!, {r4, r5, r6, r7, r8, r9, sl, fp, lr}
 800499c:	b087      	sub	sp, #28
 800499e:	4691      	mov	r9, r2
 80049a0:	9303      	str	r3, [sp, #12]
 80049a2:	688b      	ldr	r3, [r1, #8]
 80049a4:	1e5a      	subs	r2, r3, #1
 80049a6:	f5b2 7fae 	cmp.w	r2, #348	@ 0x15c
 80049aa:	bf81      	itttt	hi
 80049ac:	f46f 75ae 	mvnhi.w	r5, #348	@ 0x15c
 80049b0:	eb03 0b05 	addhi.w	fp, r3, r5
 80049b4:	f240 135d 	movwhi	r3, #349	@ 0x15d
 80049b8:	608b      	strhi	r3, [r1, #8]
 80049ba:	680b      	ldr	r3, [r1, #0]
 80049bc:	460a      	mov	r2, r1
 80049be:	f04f 0500 	mov.w	r5, #0
 80049c2:	f443 63f0 	orr.w	r3, r3, #1920	@ 0x780
 80049c6:	f842 3b1c 	str.w	r3, [r2], #28
 80049ca:	e9cd 5504 	strd	r5, r5, [sp, #16]
 80049ce:	4680      	mov	r8, r0
 80049d0:	460c      	mov	r4, r1
 80049d2:	bf98      	it	ls
 80049d4:	f04f 0b00 	movls.w	fp, #0
 80049d8:	9201      	str	r2, [sp, #4]
 80049da:	4616      	mov	r6, r2
 80049dc:	46aa      	mov	sl, r5
 80049de:	462f      	mov	r7, r5
 80049e0:	9502      	str	r5, [sp, #8]
 80049e2:	68a2      	ldr	r2, [r4, #8]
 80049e4:	b15a      	cbz	r2, 80049fe <_scanf_float+0x66>
 80049e6:	f8d9 3000 	ldr.w	r3, [r9]
 80049ea:	781b      	ldrb	r3, [r3, #0]
 80049ec:	2b4e      	cmp	r3, #78	@ 0x4e
 80049ee:	d863      	bhi.n	8004ab8 <_scanf_float+0x120>
 80049f0:	2b40      	cmp	r3, #64	@ 0x40
 80049f2:	d83b      	bhi.n	8004a6c <_scanf_float+0xd4>
 80049f4:	f1a3 012b 	sub.w	r1, r3, #43	@ 0x2b
 80049f8:	b2c8      	uxtb	r0, r1
 80049fa:	280e      	cmp	r0, #14
 80049fc:	d939      	bls.n	8004a72 <_scanf_float+0xda>
 80049fe:	b11f      	cbz	r7, 8004a08 <_scanf_float+0x70>
 8004a00:	6823      	ldr	r3, [r4, #0]
 8004a02:	f423 7380 	bic.w	r3, r3, #256	@ 0x100
 8004a06:	6023      	str	r3, [r4, #0]
 8004a08:	f10a 3aff 	add.w	sl, sl, #4294967295
 8004a0c:	f1ba 0f01 	cmp.w	sl, #1
 8004a10:	f200 8114 	bhi.w	8004c3c <_scanf_float+0x2a4>
 8004a14:	9b01      	ldr	r3, [sp, #4]
 8004a16:	429e      	cmp	r6, r3
 8004a18:	f200 8105 	bhi.w	8004c26 <_scanf_float+0x28e>
 8004a1c:	2001      	movs	r0, #1
 8004a1e:	b007      	add	sp, #28
 8004a20:	e8bd 8ff0 	ldmia.w	sp!, {r4, r5, r6, r7, r8, r9, sl, fp, pc}
 8004a24:	f1a3 0261 	sub.w	r2, r3, #97	@ 0x61
 8004a28:	2a0d      	cmp	r2, #13
 8004a2a:	d8e8      	bhi.n	80049fe <_scanf_float+0x66>
 8004a2c:	a101      	add	r1, pc, #4	@ (adr r1, 8004a34 <_scanf_float+0x9c>)
 8004a2e:	f851 f022 	ldr.w	pc, [r1, r2, lsl #2]
 8004a32:	bf00      	nop
 8004a34:	08004b7d 	.word	0x08004b7d
 8004a38:	080049ff 	.word	0x080049ff
 8004a3c:	080049ff 	.word	0x080049ff
 8004a40:	080049ff 	.word	0x080049ff
 8004a44:	08004bd9 	.word	0x08004bd9
 8004a48:	08004bb3 	.word	0x08004bb3
 8004a4c:	080049ff 	.word	0x080049ff
 8004a50:	080049ff 	.word	0x080049ff
 8004a54:	08004b8b 	.word	0x08004b8b
 8004a58:	080049ff 	.word	0x080049ff
 8004a5c:	080049ff 	.word	0x080049ff
 8004a60:	080049ff 	.word	0x080049ff
 8004a64:	080049ff 	.word	0x080049ff
 8004a68:	08004b47 	.word	0x08004b47
 8004a6c:	f1a3 0241 	sub.w	r2, r3, #65	@ 0x41
 8004a70:	e7da      	b.n	8004a28 <_scanf_float+0x90>
 8004a72:	290e      	cmp	r1, #14
 8004a74:	d8c3      	bhi.n	80049fe <_scanf_float+0x66>
 8004a76:	a001      	add	r0, pc, #4	@ (adr r0, 8004a7c <_scanf_float+0xe4>)
 8004a78:	f850 f021 	ldr.w	pc, [r0, r1, lsl #2]
 8004a7c:	08004b37 	.word	0x08004b37
 8004a80:	080049ff 	.word	0x080049ff
 8004a84:	08004b37 	.word	0x08004b37
 8004a88:	08004bc7 	.word	0x08004bc7
 8004a8c:	080049ff 	.word	0x080049ff
 8004a90:	08004ad9 	.word	0x08004ad9
 8004a94:	08004b1d 	.word	0x08004b1d
 8004a98:	08004b1d 	.word	0x08004b1d
 8004a9c:	08004b1d 	.word	0x08004b1d
 8004aa0:	08004b1d 	.word	0x08004b1d
 8004aa4:	08004b1d 	.word	0x08004b1d
 8004aa8:	08004b1d 	.word	0x08004b1d
 8004aac:	08004b1d 	.word	0x08004b1d
 8004ab0:	08004b1d 	.word	0x08004b1d
 8004ab4:	08004b1d 	.word	0x08004b1d
 8004ab8:	2b6e      	cmp	r3, #110	@ 0x6e
 8004aba:	d809      	bhi.n	8004ad0 <_scanf_float+0x138>
 8004abc:	2b60      	cmp	r3, #96	@ 0x60
 8004abe:	d8b1      	bhi.n	8004a24 <_scanf_float+0x8c>
 8004ac0:	2b54      	cmp	r3, #84	@ 0x54
 8004ac2:	d07b      	beq.n	8004bbc <_scanf_float+0x224>
 8004ac4:	2b59      	cmp	r3, #89	@ 0x59
 8004ac6:	d19a      	bne.n	80049fe <_scanf_float+0x66>
 8004ac8:	2d07      	cmp	r5, #7
 8004aca:	d198      	bne.n	80049fe <_scanf_float+0x66>
 8004acc:	2508      	movs	r5, #8
 8004ace:	e02f      	b.n	8004b30 <_scanf_float+0x198>
 8004ad0:	2b74      	cmp	r3, #116	@ 0x74
 8004ad2:	d073      	beq.n	8004bbc <_scanf_float+0x224>
 8004ad4:	2b79      	cmp	r3, #121	@ 0x79
 8004ad6:	e7f6      	b.n	8004ac6 <_scanf_float+0x12e>
 8004ad8:	6821      	ldr	r1, [r4, #0]
 8004ada:	05c8      	lsls	r0, r1, #23
 8004adc:	d51e      	bpl.n	8004b1c <_scanf_float+0x184>
 8004ade:	f021 0180 	bic.w	r1, r1, #128	@ 0x80
 8004ae2:	6021      	str	r1, [r4, #0]
 8004ae4:	3701      	adds	r7, #1
 8004ae6:	f1bb 0f00 	cmp.w	fp, #0
 8004aea:	d003      	beq.n	8004af4 <_scanf_float+0x15c>
 8004aec:	3201      	adds	r2, #1
 8004aee:	f10b 3bff 	add.w	fp, fp, #4294967295
 8004af2:	60a2      	str	r2, [r4, #8]
 8004af4:	68a3      	ldr	r3, [r4, #8]
 8004af6:	3b01      	subs	r3, #1
 8004af8:	60a3      	str	r3, [r4, #8]
 8004afa:	6923      	ldr	r3, [r4, #16]
 8004afc:	3301      	adds	r3, #1
 8004afe:	6123      	str	r3, [r4, #16]
 8004b00:	f8d9 3004 	ldr.w	r3, [r9, #4]
 8004b04:	3b01      	subs	r3, #1
 8004b06:	2b00      	cmp	r3, #0
 8004b08:	f8c9 3004 	str.w	r3, [r9, #4]
 8004b0c:	f340 8082 	ble.w	8004c14 <_scanf_float+0x27c>
 8004b10:	f8d9 3000 	ldr.w	r3, [r9]
 8004b14:	3301      	adds	r3, #1
 8004b16:	f8c9 3000 	str.w	r3, [r9]
 8004b1a:	e762      	b.n	80049e2 <_scanf_float+0x4a>
 8004b1c:	eb1a 0105 	adds.w	r1, sl, r5
 8004b20:	f47f af6d 	bne.w	80049fe <_scanf_float+0x66>
 8004b24:	6822      	ldr	r2, [r4, #0]
 8004b26:	f422 72c0 	bic.w	r2, r2, #384	@ 0x180
 8004b2a:	6022      	str	r2, [r4, #0]
 8004b2c:	460d      	mov	r5, r1
 8004b2e:	468a      	mov	sl, r1
 8004b30:	f806 3b01 	strb.w	r3, [r6], #1
 8004b34:	e7de      	b.n	8004af4 <_scanf_float+0x15c>
 8004b36:	6822      	ldr	r2, [r4, #0]
 8004b38:	0610      	lsls	r0, r2, #24
 8004b3a:	f57f af60 	bpl.w	80049fe <_scanf_float+0x66>
 8004b3e:	f022 0280 	bic.w	r2, r2, #128	@ 0x80
 8004b42:	6022      	str	r2, [r4, #0]
 8004b44:	e7f4      	b.n	8004b30 <_scanf_float+0x198>
 8004b46:	f1ba 0f00 	cmp.w	sl, #0
 8004b4a:	d10c      	bne.n	8004b66 <_scanf_float+0x1ce>
 8004b4c:	b977      	cbnz	r7, 8004b6c <_scanf_float+0x1d4>
 8004b4e:	6822      	ldr	r2, [r4, #0]
 8004b50:	f402 61e0 	and.w	r1, r2, #1792	@ 0x700
 8004b54:	f5b1 6fe0 	cmp.w	r1, #1792	@ 0x700
 8004b58:	d108      	bne.n	8004b6c <_scanf_float+0x1d4>
 8004b5a:	f422 62f0 	bic.w	r2, r2, #1920	@ 0x780
 8004b5e:	6022      	str	r2, [r4, #0]
 8004b60:	f04f 0a01 	mov.w	sl, #1
 8004b64:	e7e4      	b.n	8004b30 <_scanf_float+0x198>
 8004b66:	f1ba 0f02 	cmp.w	sl, #2
 8004b6a:	d050      	beq.n	8004c0e <_scanf_float+0x276>
 8004b6c:	2d01      	cmp	r5, #1
 8004b6e:	d002      	beq.n	8004b76 <_scanf_float+0x1de>
 8004b70:	2d04      	cmp	r5, #4
 8004b72:	f47f af44 	bne.w	80049fe <_scanf_float+0x66>
 8004b76:	3501      	adds	r5, #1
 8004b78:	b2ed      	uxtb	r5, r5
 8004b7a:	e7d9      	b.n	8004b30 <_scanf_float+0x198>
 8004b7c:	f1ba 0f01 	cmp.w	sl, #1
 8004b80:	f47f af3d 	bne.w	80049fe <_scanf_float+0x66>
 8004b84:	f04f 0a02 	mov.w	sl, #2
 8004b88:	e7d2      	b.n	8004b30 <_scanf_float+0x198>
 8004b8a:	b975      	cbnz	r5, 8004baa <_scanf_float+0x212>
 8004b8c:	2f00      	cmp	r7, #0
 8004b8e:	f47f af37 	bne.w	8004a00 <_scanf_float+0x68>
 8004b92:	6822      	ldr	r2, [r4, #0]
 8004b94:	f402 61e0 	and.w	r1, r2, #1792	@ 0x700
 8004b98:	f5b1 6fe0 	cmp.w	r1, #1792	@ 0x700
 8004b9c:	f040 8103 	bne.w	8004da6 <_scanf_float+0x40e>
 8004ba0:	f422 62f0 	bic.w	r2, r2, #1920	@ 0x780
 8004ba4:	6022      	str	r2, [r4, #0]
 8004ba6:	2501      	movs	r5, #1
 8004ba8:	e7c2      	b.n	8004b30 <_scanf_float+0x198>
 8004baa:	2d03      	cmp	r5, #3
 8004bac:	d0e3      	beq.n	8004b76 <_scanf_float+0x1de>
 8004bae:	2d05      	cmp	r5, #5
 8004bb0:	e7df      	b.n	8004b72 <_scanf_float+0x1da>
 8004bb2:	2d02      	cmp	r5, #2
 8004bb4:	f47f af23 	bne.w	80049fe <_scanf_float+0x66>
 8004bb8:	2503      	movs	r5, #3
 8004bba:	e7b9      	b.n	8004b30 <_scanf_float+0x198>
 8004bbc:	2d06      	cmp	r5, #6
 8004bbe:	f47f af1e 	bne.w	80049fe <_scanf_float+0x66>
 8004bc2:	2507      	movs	r5, #7
 8004bc4:	e7b4      	b.n	8004b30 <_scanf_float+0x198>
 8004bc6:	6822      	ldr	r2, [r4, #0]
 8004bc8:	0591      	lsls	r1, r2, #22
 8004bca:	f57f af18 	bpl.w	80049fe <_scanf_float+0x66>
 8004bce:	f422 7220 	bic.w	r2, r2, #640	@ 0x280
 8004bd2:	6022      	str	r2, [r4, #0]
 8004bd4:	9702      	str	r7, [sp, #8]
 8004bd6:	e7ab      	b.n	8004b30 <_scanf_float+0x198>
 8004bd8:	6822      	ldr	r2, [r4, #0]
 8004bda:	f402 61a0 	and.w	r1, r2, #1280	@ 0x500
 8004bde:	f5b1 6f80 	cmp.w	r1, #1024	@ 0x400
 8004be2:	d005      	beq.n	8004bf0 <_scanf_float+0x258>
 8004be4:	0550      	lsls	r0, r2, #21
 8004be6:	f57f af0a 	bpl.w	80049fe <_scanf_float+0x66>
 8004bea:	2f00      	cmp	r7, #0
 8004bec:	f000 80db 	beq.w	8004da6 <_scanf_float+0x40e>
 8004bf0:	0591      	lsls	r1, r2, #22
 8004bf2:	bf58      	it	pl
 8004bf4:	9902      	ldrpl	r1, [sp, #8]
 8004bf6:	f422 62f0 	bic.w	r2, r2, #1920	@ 0x780
 8004bfa:	bf58      	it	pl
 8004bfc:	1a79      	subpl	r1, r7, r1
 8004bfe:	f442 72c0 	orr.w	r2, r2, #384	@ 0x180
 8004c02:	bf58      	it	pl
 8004c04:	e9cd 1604 	strdpl	r1, r6, [sp, #16]
 8004c08:	6022      	str	r2, [r4, #0]
 8004c0a:	2700      	movs	r7, #0
 8004c0c:	e790      	b.n	8004b30 <_scanf_float+0x198>
 8004c0e:	f04f 0a03 	mov.w	sl, #3
 8004c12:	e78d      	b.n	8004b30 <_scanf_float+0x198>
 8004c14:	f8d4 3180 	ldr.w	r3, [r4, #384]	@ 0x180
 8004c18:	4649      	mov	r1, r9
 8004c1a:	4640      	mov	r0, r8
 8004c1c:	4798      	blx	r3
 8004c1e:	2800      	cmp	r0, #0
 8004c20:	f43f aedf 	beq.w	80049e2 <_scanf_float+0x4a>
 8004c24:	e6eb      	b.n	80049fe <_scanf_float+0x66>
 8004c26:	f8d4 317c 	ldr.w	r3, [r4, #380]	@ 0x17c
 8004c2a:	f816 1d01 	ldrb.w	r1, [r6, #-1]!
 8004c2e:	464a      	mov	r2, r9
 8004c30:	4640      	mov	r0, r8
 8004c32:	4798      	blx	r3
 8004c34:	6923      	ldr	r3, [r4, #16]
 8004c36:	3b01      	subs	r3, #1
 8004c38:	6123      	str	r3, [r4, #16]
 8004c3a:	e6eb      	b.n	8004a14 <_scanf_float+0x7c>
 8004c3c:	1e6b      	subs	r3, r5, #1
 8004c3e:	2b06      	cmp	r3, #6
 8004c40:	d824      	bhi.n	8004c8c <_scanf_float+0x2f4>
 8004c42:	2d02      	cmp	r5, #2
 8004c44:	d836      	bhi.n	8004cb4 <_scanf_float+0x31c>
 8004c46:	9b01      	ldr	r3, [sp, #4]
 8004c48:	429e      	cmp	r6, r3
 8004c4a:	f67f aee7 	bls.w	8004a1c <_scanf_float+0x84>
 8004c4e:	f8d4 317c 	ldr.w	r3, [r4, #380]	@ 0x17c
 8004c52:	f816 1d01 	ldrb.w	r1, [r6, #-1]!
 8004c56:	464a      	mov	r2, r9
 8004c58:	4640      	mov	r0, r8
 8004c5a:	4798      	blx	r3
 8004c5c:	6923      	ldr	r3, [r4, #16]
 8004c5e:	3b01      	subs	r3, #1
 8004c60:	6123      	str	r3, [r4, #16]
 8004c62:	e7f0      	b.n	8004c46 <_scanf_float+0x2ae>
 8004c64:	f8d4 317c 	ldr.w	r3, [r4, #380]	@ 0x17c
 8004c68:	f81b 1d01 	ldrb.w	r1, [fp, #-1]!
 8004c6c:	464a      	mov	r2, r9
 8004c6e:	4640      	mov	r0, r8
 8004c70:	4798      	blx	r3
 8004c72:	6923      	ldr	r3, [r4, #16]
 8004c74:	3b01      	subs	r3, #1
 8004c76:	6123      	str	r3, [r4, #16]
 8004c78:	f10a 3aff 	add.w	sl, sl, #4294967295
 8004c7c:	fa5f fa8a 	uxtb.w	sl, sl
 8004c80:	f1ba 0f02 	cmp.w	sl, #2
 8004c84:	d1ee      	bne.n	8004c64 <_scanf_float+0x2cc>
 8004c86:	3d03      	subs	r5, #3
 8004c88:	b2ed      	uxtb	r5, r5
 8004c8a:	1b76      	subs	r6, r6, r5
 8004c8c:	6823      	ldr	r3, [r4, #0]
 8004c8e:	05da      	lsls	r2, r3, #23
 8004c90:	d530      	bpl.n	8004cf4 <_scanf_float+0x35c>
 8004c92:	055b      	lsls	r3, r3, #21
 8004c94:	d511      	bpl.n	8004cba <_scanf_float+0x322>
 8004c96:	9b01      	ldr	r3, [sp, #4]
 8004c98:	429e      	cmp	r6, r3
 8004c9a:	f67f aebf 	bls.w	8004a1c <_scanf_float+0x84>
 8004c9e:	f8d4 317c 	ldr.w	r3, [r4, #380]	@ 0x17c
 8004ca2:	f816 1d01 	ldrb.w	r1, [r6, #-1]!
 8004ca6:	464a      	mov	r2, r9
 8004ca8:	4640      	mov	r0, r8
 8004caa:	4798      	blx	r3
 8004cac:	6923      	ldr	r3, [r4, #16]
 8004cae:	3b01      	subs	r3, #1
 8004cb0:	6123      	str	r3, [r4, #16]
 8004cb2:	e7f0      	b.n	8004c96 <_scanf_float+0x2fe>
 8004cb4:	46aa      	mov	sl, r5
 8004cb6:	46b3      	mov	fp, r6
 8004cb8:	e7de      	b.n	8004c78 <_scanf_float+0x2e0>
 8004cba:	f816 1c01 	ldrb.w	r1, [r6, #-1]
 8004cbe:	6923      	ldr	r3, [r4, #16]
 8004cc0:	2965      	cmp	r1, #101	@ 0x65
 8004cc2:	f103 33ff 	add.w	r3, r3, #4294967295
 8004cc6:	f106 35ff 	add.w	r5, r6, #4294967295
 8004cca:	6123      	str	r3, [r4, #16]
 8004ccc:	d00c      	beq.n	8004ce8 <_scanf_float+0x350>
 8004cce:	2945      	cmp	r1, #69	@ 0x45
 8004cd0:	d00a      	beq.n	8004ce8 <_scanf_float+0x350>
 8004cd2:	f8d4 317c 	ldr.w	r3, [r4, #380]	@ 0x17c
 8004cd6:	464a      	mov	r2, r9
 8004cd8:	4640      	mov	r0, r8
 8004cda:	4798      	blx	r3
 8004cdc:	6923      	ldr	r3, [r4, #16]
 8004cde:	f816 1c02 	ldrb.w	r1, [r6, #-2]
 8004ce2:	3b01      	subs	r3, #1
 8004ce4:	1eb5      	subs	r5, r6, #2
 8004ce6:	6123      	str	r3, [r4, #16]
 8004ce8:	f8d4 317c 	ldr.w	r3, [r4, #380]	@ 0x17c
 8004cec:	464a      	mov	r2, r9
 8004cee:	4640      	mov	r0, r8
 8004cf0:	4798      	blx	r3
 8004cf2:	462e      	mov	r6, r5
 8004cf4:	6822      	ldr	r2, [r4, #0]
 8004cf6:	f012 0210 	ands.w	r2, r2, #16
 8004cfa:	d001      	beq.n	8004d00 <_scanf_float+0x368>
 8004cfc:	2000      	movs	r0, #0
 8004cfe:	e68e      	b.n	8004a1e <_scanf_float+0x86>
 8004d00:	7032      	strb	r2, [r6, #0]
 8004d02:	6823      	ldr	r3, [r4, #0]
 8004d04:	f403 63c0 	and.w	r3, r3, #1536	@ 0x600
 8004d08:	f5b3 6f80 	cmp.w	r3, #1024	@ 0x400
 8004d0c:	d125      	bne.n	8004d5a <_scanf_float+0x3c2>
 8004d0e:	9b02      	ldr	r3, [sp, #8]
 8004d10:	429f      	cmp	r7, r3
 8004d12:	d00a      	beq.n	8004d2a <_scanf_float+0x392>
 8004d14:	1bda      	subs	r2, r3, r7
 8004d16:	f204 136f 	addw	r3, r4, #367	@ 0x16f
 8004d1a:	429e      	cmp	r6, r3
 8004d1c:	bf28      	it	cs
 8004d1e:	f504 76b7 	addcs.w	r6, r4, #366	@ 0x16e
 8004d22:	4922      	ldr	r1, [pc, #136]	@ (8004dac <_scanf_float+0x414>)
 8004d24:	4630      	mov	r0, r6
 8004d26:	f000 f907 	bl	8004f38 <siprintf>
 8004d2a:	9901      	ldr	r1, [sp, #4]
 8004d2c:	2200      	movs	r2, #0
 8004d2e:	4640      	mov	r0, r8
 8004d30:	f002 fc5e 	bl	80075f0 <_strtod_r>
 8004d34:	9b03      	ldr	r3, [sp, #12]
 8004d36:	6821      	ldr	r1, [r4, #0]
 8004d38:	681b      	ldr	r3, [r3, #0]
 8004d3a:	f011 0f02 	tst.w	r1, #2
 8004d3e:	ec57 6b10 	vmov	r6, r7, d0
 8004d42:	f103 0204 	add.w	r2, r3, #4
 8004d46:	d015      	beq.n	8004d74 <_scanf_float+0x3dc>
 8004d48:	9903      	ldr	r1, [sp, #12]
 8004d4a:	600a      	str	r2, [r1, #0]
 8004d4c:	681b      	ldr	r3, [r3, #0]
 8004d4e:	e9c3 6700 	strd	r6, r7, [r3]
 8004d52:	68e3      	ldr	r3, [r4, #12]
 8004d54:	3301      	adds	r3, #1
 8004d56:	60e3      	str	r3, [r4, #12]
 8004d58:	e7d0      	b.n	8004cfc <_scanf_float+0x364>
 8004d5a:	9b04      	ldr	r3, [sp, #16]
 8004d5c:	2b00      	cmp	r3, #0
 8004d5e:	d0e4      	beq.n	8004d2a <_scanf_float+0x392>
 8004d60:	9905      	ldr	r1, [sp, #20]
 8004d62:	230a      	movs	r3, #10
 8004d64:	3101      	adds	r1, #1
 8004d66:	4640      	mov	r0, r8
 8004d68:	f002 fcc2 	bl	80076f0 <_strtol_r>
 8004d6c:	9b04      	ldr	r3, [sp, #16]
 8004d6e:	9e05      	ldr	r6, [sp, #20]
 8004d70:	1ac2      	subs	r2, r0, r3
 8004d72:	e7d0      	b.n	8004d16 <_scanf_float+0x37e>
 8004d74:	f011 0f04 	tst.w	r1, #4
 8004d78:	9903      	ldr	r1, [sp, #12]
 8004d7a:	600a      	str	r2, [r1, #0]
 8004d7c:	d1e6      	bne.n	8004d4c <_scanf_float+0x3b4>
 8004d7e:	681d      	ldr	r5, [r3, #0]
 8004d80:	4632      	mov	r2, r6
 8004d82:	463b      	mov	r3, r7
 8004d84:	4630      	mov	r0, r6
 8004d86:	4639      	mov	r1, r7
 8004d88:	f7fb fed8 	bl	8000b3c <__aeabi_dcmpun>
 8004d8c:	b128      	cbz	r0, 8004d9a <_scanf_float+0x402>
 8004d8e:	4808      	ldr	r0, [pc, #32]	@ (8004db0 <_scanf_float+0x418>)
 8004d90:	f000 fa24 	bl	80051dc <nanf>
 8004d94:	ed85 0a00 	vstr	s0, [r5]
 8004d98:	e7db      	b.n	8004d52 <_scanf_float+0x3ba>
 8004d9a:	4630      	mov	r0, r6
 8004d9c:	4639      	mov	r1, r7
 8004d9e:	f7fb ff2b 	bl	8000bf8 <__aeabi_d2f>
 8004da2:	6028      	str	r0, [r5, #0]
 8004da4:	e7d5      	b.n	8004d52 <_scanf_float+0x3ba>
 8004da6:	2700      	movs	r7, #0
 8004da8:	e62e      	b.n	8004a08 <_scanf_float+0x70>
 8004daa:	bf00      	nop
 8004dac:	080088f8 	.word	0x080088f8
 8004db0:	0800889a 	.word	0x0800889a

08004db4 <std>:
 8004db4:	2300      	movs	r3, #0
 8004db6:	b510      	push	{r4, lr}
 8004db8:	4604      	mov	r4, r0
 8004dba:	e9c0 3300 	strd	r3, r3, [r0]
 8004dbe:	e9c0 3304 	strd	r3, r3, [r0, #16]
 8004dc2:	6083      	str	r3, [r0, #8]
 8004dc4:	8181      	strh	r1, [r0, #12]
 8004dc6:	6643      	str	r3, [r0, #100]	@ 0x64
 8004dc8:	81c2      	strh	r2, [r0, #14]
 8004dca:	6183      	str	r3, [r0, #24]
 8004dcc:	4619      	mov	r1, r3
 8004dce:	2208      	movs	r2, #8
 8004dd0:	305c      	adds	r0, #92	@ 0x5c
 8004dd2:	f000 f916 	bl	8005002 <memset>
 8004dd6:	4b0d      	ldr	r3, [pc, #52]	@ (8004e0c <std+0x58>)
 8004dd8:	6263      	str	r3, [r4, #36]	@ 0x24
 8004dda:	4b0d      	ldr	r3, [pc, #52]	@ (8004e10 <std+0x5c>)
 8004ddc:	62a3      	str	r3, [r4, #40]	@ 0x28
 8004dde:	4b0d      	ldr	r3, [pc, #52]	@ (8004e14 <std+0x60>)
 8004de0:	62e3      	str	r3, [r4, #44]	@ 0x2c
 8004de2:	4b0d      	ldr	r3, [pc, #52]	@ (8004e18 <std+0x64>)
 8004de4:	6323      	str	r3, [r4, #48]	@ 0x30
 8004de6:	4b0d      	ldr	r3, [pc, #52]	@ (8004e1c <std+0x68>)
 8004de8:	6224      	str	r4, [r4, #32]
 8004dea:	429c      	cmp	r4, r3
 8004dec:	d006      	beq.n	8004dfc <std+0x48>
 8004dee:	f103 0268 	add.w	r2, r3, #104	@ 0x68
 8004df2:	4294      	cmp	r4, r2
 8004df4:	d002      	beq.n	8004dfc <std+0x48>
 8004df6:	33d0      	adds	r3, #208	@ 0xd0
 8004df8:	429c      	cmp	r4, r3
 8004dfa:	d105      	bne.n	8004e08 <std+0x54>
 8004dfc:	f104 0058 	add.w	r0, r4, #88	@ 0x58
 8004e00:	e8bd 4010 	ldmia.w	sp!, {r4, lr}
 8004e04:	f000 b9d8 	b.w	80051b8 <__retarget_lock_init_recursive>
 8004e08:	bd10      	pop	{r4, pc}
 8004e0a:	bf00      	nop
 8004e0c:	08004f7d 	.word	0x08004f7d
 8004e10:	08004f9f 	.word	0x08004f9f
 8004e14:	08004fd7 	.word	0x08004fd7
 8004e18:	08004ffb 	.word	0x08004ffb
 8004e1c:	20004cb8 	.word	0x20004cb8

08004e20 <stdio_exit_handler>:
 8004e20:	4a02      	ldr	r2, [pc, #8]	@ (8004e2c <stdio_exit_handler+0xc>)
 8004e22:	4903      	ldr	r1, [pc, #12]	@ (8004e30 <stdio_exit_handler+0x10>)
 8004e24:	4803      	ldr	r0, [pc, #12]	@ (8004e34 <stdio_exit_handler+0x14>)
 8004e26:	f000 b869 	b.w	8004efc <_fwalk_sglue>
 8004e2a:	bf00      	nop
 8004e2c:	20000010 	.word	0x20000010
 8004e30:	08007aad 	.word	0x08007aad
 8004e34:	20000020 	.word	0x20000020

08004e38 <cleanup_stdio>:
 8004e38:	6841      	ldr	r1, [r0, #4]
 8004e3a:	4b0c      	ldr	r3, [pc, #48]	@ (8004e6c <cleanup_stdio+0x34>)
 8004e3c:	4299      	cmp	r1, r3
 8004e3e:	b510      	push	{r4, lr}
 8004e40:	4604      	mov	r4, r0
 8004e42:	d001      	beq.n	8004e48 <cleanup_stdio+0x10>
 8004e44:	f002 fe32 	bl	8007aac <_fflush_r>
 8004e48:	68a1      	ldr	r1, [r4, #8]
 8004e4a:	4b09      	ldr	r3, [pc, #36]	@ (8004e70 <cleanup_stdio+0x38>)
 8004e4c:	4299      	cmp	r1, r3
 8004e4e:	d002      	beq.n	8004e56 <cleanup_stdio+0x1e>
 8004e50:	4620      	mov	r0, r4
 8004e52:	f002 fe2b 	bl	8007aac <_fflush_r>
 8004e56:	68e1      	ldr	r1, [r4, #12]
 8004e58:	4b06      	ldr	r3, [pc, #24]	@ (8004e74 <cleanup_stdio+0x3c>)
 8004e5a:	4299      	cmp	r1, r3
 8004e5c:	d004      	beq.n	8004e68 <cleanup_stdio+0x30>
 8004e5e:	4620      	mov	r0, r4
 8004e60:	e8bd 4010 	ldmia.w	sp!, {r4, lr}
 8004e64:	f002 be22 	b.w	8007aac <_fflush_r>
 8004e68:	bd10      	pop	{r4, pc}
 8004e6a:	bf00      	nop
 8004e6c:	20004cb8 	.word	0x20004cb8
 8004e70:	20004d20 	.word	0x20004d20
 8004e74:	20004d88 	.word	0x20004d88

08004e78 <global_stdio_init.part.0>:
 8004e78:	b510      	push	{r4, lr}
 8004e7a:	4b0b      	ldr	r3, [pc, #44]	@ (8004ea8 <global_stdio_init.part.0+0x30>)
 8004e7c:	4c0b      	ldr	r4, [pc, #44]	@ (8004eac <global_stdio_init.part.0+0x34>)
 8004e7e:	4a0c      	ldr	r2, [pc, #48]	@ (8004eb0 <global_stdio_init.part.0+0x38>)
 8004e80:	601a      	str	r2, [r3, #0]
 8004e82:	4620      	mov	r0, r4
 8004e84:	2200      	movs	r2, #0
 8004e86:	2104      	movs	r1, #4
 8004e88:	f7ff ff94 	bl	8004db4 <std>
 8004e8c:	f104 0068 	add.w	r0, r4, #104	@ 0x68
 8004e90:	2201      	movs	r2, #1
 8004e92:	2109      	movs	r1, #9
 8004e94:	f7ff ff8e 	bl	8004db4 <std>
 8004e98:	f104 00d0 	add.w	r0, r4, #208	@ 0xd0
 8004e9c:	2202      	movs	r2, #2
 8004e9e:	e8bd 4010 	ldmia.w	sp!, {r4, lr}
 8004ea2:	2112      	movs	r1, #18
 8004ea4:	f7ff bf86 	b.w	8004db4 <std>
 8004ea8:	20004df0 	.word	0x20004df0
 8004eac:	20004cb8 	.word	0x20004cb8
 8004eb0:	08004e21 	.word	0x08004e21

08004eb4 <__sfp_lock_acquire>:
 8004eb4:	4801      	ldr	r0, [pc, #4]	@ (8004ebc <__sfp_lock_acquire+0x8>)
 8004eb6:	f000 b980 	b.w	80051ba <__retarget_lock_acquire_recursive>
 8004eba:	bf00      	nop
 8004ebc:	20004df9 	.word	0x20004df9

08004ec0 <__sfp_lock_release>:
 8004ec0:	4801      	ldr	r0, [pc, #4]	@ (8004ec8 <__sfp_lock_release+0x8>)
 8004ec2:	f000 b97b 	b.w	80051bc <__retarget_lock_release_recursive>
 8004ec6:	bf00      	nop
 8004ec8:	20004df9 	.word	0x20004df9

08004ecc <__sinit>:
 8004ecc:	b510      	push	{r4, lr}
 8004ece:	4604      	mov	r4, r0
 8004ed0:	f7ff fff0 	bl	8004eb4 <__sfp_lock_acquire>
 8004ed4:	6a23      	ldr	r3, [r4, #32]
 8004ed6:	b11b      	cbz	r3, 8004ee0 <__sinit+0x14>
 8004ed8:	e8bd 4010 	ldmia.w	sp!, {r4, lr}
 8004edc:	f7ff bff0 	b.w	8004ec0 <__sfp_lock_release>
 8004ee0:	4b04      	ldr	r3, [pc, #16]	@ (8004ef4 <__sinit+0x28>)
 8004ee2:	6223      	str	r3, [r4, #32]
 8004ee4:	4b04      	ldr	r3, [pc, #16]	@ (8004ef8 <__sinit+0x2c>)
 8004ee6:	681b      	ldr	r3, [r3, #0]
 8004ee8:	2b00      	cmp	r3, #0
 8004eea:	d1f5      	bne.n	8004ed8 <__sinit+0xc>
 8004eec:	f7ff ffc4 	bl	8004e78 <global_stdio_init.part.0>
 8004ef0:	e7f2      	b.n	8004ed8 <__sinit+0xc>
 8004ef2:	bf00      	nop
 8004ef4:	08004e39 	.word	0x08004e39
 8004ef8:	20004df0 	.word	0x20004df0

08004efc <_fwalk_sglue>:
 8004efc:	e92d 43f8 	stmdb	sp!, {r3, r4, r5, r6, r7, r8, r9, lr}
 8004f00:	4607      	mov	r7, r0
 8004f02:	4688      	mov	r8, r1
 8004f04:	4614      	mov	r4, r2
 8004f06:	2600      	movs	r6, #0
 8004f08:	e9d4 9501 	ldrd	r9, r5, [r4, #4]
 8004f0c:	f1b9 0901 	subs.w	r9, r9, #1
 8004f10:	d505      	bpl.n	8004f1e <_fwalk_sglue+0x22>
 8004f12:	6824      	ldr	r4, [r4, #0]
 8004f14:	2c00      	cmp	r4, #0
 8004f16:	d1f7      	bne.n	8004f08 <_fwalk_sglue+0xc>
 8004f18:	4630      	mov	r0, r6
 8004f1a:	e8bd 83f8 	ldmia.w	sp!, {r3, r4, r5, r6, r7, r8, r9, pc}
 8004f1e:	89ab      	ldrh	r3, [r5, #12]
 8004f20:	2b01      	cmp	r3, #1
 8004f22:	d907      	bls.n	8004f34 <_fwalk_sglue+0x38>
 8004f24:	f9b5 300e 	ldrsh.w	r3, [r5, #14]
 8004f28:	3301      	adds	r3, #1
 8004f2a:	d003      	beq.n	8004f34 <_fwalk_sglue+0x38>
 8004f2c:	4629      	mov	r1, r5
 8004f2e:	4638      	mov	r0, r7
 8004f30:	47c0      	blx	r8
 8004f32:	4306      	orrs	r6, r0
 8004f34:	3568      	adds	r5, #104	@ 0x68
 8004f36:	e7e9      	b.n	8004f0c <_fwalk_sglue+0x10>

08004f38 <siprintf>:
 8004f38:	b40e      	push	{r1, r2, r3}
 8004f3a:	b510      	push	{r4, lr}
 8004f3c:	b09d      	sub	sp, #116	@ 0x74
 8004f3e:	ab1f      	add	r3, sp, #124	@ 0x7c
 8004f40:	9002      	str	r0, [sp, #8]
 8004f42:	9006      	str	r0, [sp, #24]
 8004f44:	f06f 4100 	mvn.w	r1, #2147483648	@ 0x80000000
 8004f48:	480a      	ldr	r0, [pc, #40]	@ (8004f74 <siprintf+0x3c>)
 8004f4a:	9107      	str	r1, [sp, #28]
 8004f4c:	9104      	str	r1, [sp, #16]
 8004f4e:	490a      	ldr	r1, [pc, #40]	@ (8004f78 <siprintf+0x40>)
 8004f50:	f853 2b04 	ldr.w	r2, [r3], #4
 8004f54:	9105      	str	r1, [sp, #20]
 8004f56:	2400      	movs	r4, #0
 8004f58:	a902      	add	r1, sp, #8
 8004f5a:	6800      	ldr	r0, [r0, #0]
 8004f5c:	9301      	str	r3, [sp, #4]
 8004f5e:	941b      	str	r4, [sp, #108]	@ 0x6c
 8004f60:	f002 fc24 	bl	80077ac <_svfiprintf_r>
 8004f64:	9b02      	ldr	r3, [sp, #8]
 8004f66:	701c      	strb	r4, [r3, #0]
 8004f68:	b01d      	add	sp, #116	@ 0x74
 8004f6a:	e8bd 4010 	ldmia.w	sp!, {r4, lr}
 8004f6e:	b003      	add	sp, #12
 8004f70:	4770      	bx	lr
 8004f72:	bf00      	nop
 8004f74:	2000001c 	.word	0x2000001c
 8004f78:	ffff0208 	.word	0xffff0208

08004f7c <__sread>:
 8004f7c:	b510      	push	{r4, lr}
 8004f7e:	460c      	mov	r4, r1
 8004f80:	f9b1 100e 	ldrsh.w	r1, [r1, #14]
 8004f84:	f000 f8ca 	bl	800511c <_read_r>
 8004f88:	2800      	cmp	r0, #0
 8004f8a:	bfab      	itete	ge
 8004f8c:	6d63      	ldrge	r3, [r4, #84]	@ 0x54
 8004f8e:	89a3      	ldrhlt	r3, [r4, #12]
 8004f90:	181b      	addge	r3, r3, r0
 8004f92:	f423 5380 	biclt.w	r3, r3, #4096	@ 0x1000
 8004f96:	bfac      	ite	ge
 8004f98:	6563      	strge	r3, [r4, #84]	@ 0x54
 8004f9a:	81a3      	strhlt	r3, [r4, #12]
 8004f9c:	bd10      	pop	{r4, pc}

08004f9e <__swrite>:
 8004f9e:	e92d 41f0 	stmdb	sp!, {r4, r5, r6, r7, r8, lr}
 8004fa2:	461f      	mov	r7, r3
 8004fa4:	898b      	ldrh	r3, [r1, #12]
 8004fa6:	05db      	lsls	r3, r3, #23
 8004fa8:	4605      	mov	r5, r0
 8004faa:	460c      	mov	r4, r1
 8004fac:	4616      	mov	r6, r2
 8004fae:	d505      	bpl.n	8004fbc <__swrite+0x1e>
 8004fb0:	f9b1 100e 	ldrsh.w	r1, [r1, #14]
 8004fb4:	2302      	movs	r3, #2
 8004fb6:	2200      	movs	r2, #0
 8004fb8:	f000 f89e 	bl	80050f8 <_lseek_r>
 8004fbc:	89a3      	ldrh	r3, [r4, #12]
 8004fbe:	f9b4 100e 	ldrsh.w	r1, [r4, #14]
 8004fc2:	f423 5380 	bic.w	r3, r3, #4096	@ 0x1000
 8004fc6:	81a3      	strh	r3, [r4, #12]
 8004fc8:	4632      	mov	r2, r6
 8004fca:	463b      	mov	r3, r7
 8004fcc:	4628      	mov	r0, r5
 8004fce:	e8bd 41f0 	ldmia.w	sp!, {r4, r5, r6, r7, r8, lr}
 8004fd2:	f000 b8b5 	b.w	8005140 <_write_r>

08004fd6 <__sseek>:
 8004fd6:	b510      	push	{r4, lr}
 8004fd8:	460c      	mov	r4, r1
 8004fda:	f9b1 100e 	ldrsh.w	r1, [r1, #14]
 8004fde:	f000 f88b 	bl	80050f8 <_lseek_r>
 8004fe2:	1c43      	adds	r3, r0, #1
 8004fe4:	89a3      	ldrh	r3, [r4, #12]
 8004fe6:	bf15      	itete	ne
 8004fe8:	6560      	strne	r0, [r4, #84]	@ 0x54
 8004fea:	f423 5380 	biceq.w	r3, r3, #4096	@ 0x1000
 8004fee:	f443 5380 	orrne.w	r3, r3, #4096	@ 0x1000
 8004ff2:	81a3      	strheq	r3, [r4, #12]
 8004ff4:	bf18      	it	ne
 8004ff6:	81a3      	strhne	r3, [r4, #12]
 8004ff8:	bd10      	pop	{r4, pc}

08004ffa <__sclose>:
 8004ffa:	f9b1 100e 	ldrsh.w	r1, [r1, #14]
 8004ffe:	f000 b80d 	b.w	800501c <_close_r>

08005002 <memset>:
 8005002:	4402      	add	r2, r0
 8005004:	4603      	mov	r3, r0
 8005006:	4293      	cmp	r3, r2
 8005008:	d100      	bne.n	800500c <memset+0xa>
 800500a:	4770      	bx	lr
 800500c:	f803 1b01 	strb.w	r1, [r3], #1
 8005010:	e7f9      	b.n	8005006 <memset+0x4>
	...

08005014 <_localeconv_r>:
 8005014:	4800      	ldr	r0, [pc, #0]	@ (8005018 <_localeconv_r+0x4>)
 8005016:	4770      	bx	lr
 8005018:	2000015c 	.word	0x2000015c

0800501c <_close_r>:
 800501c:	b538      	push	{r3, r4, r5, lr}
 800501e:	4d06      	ldr	r5, [pc, #24]	@ (8005038 <_close_r+0x1c>)
 8005020:	2300      	movs	r3, #0
 8005022:	4604      	mov	r4, r0
 8005024:	4608      	mov	r0, r1
 8005026:	602b      	str	r3, [r5, #0]
 8005028:	f7fc fa68 	bl	80014fc <_close>
 800502c:	1c43      	adds	r3, r0, #1
 800502e:	d102      	bne.n	8005036 <_close_r+0x1a>
 8005030:	682b      	ldr	r3, [r5, #0]
 8005032:	b103      	cbz	r3, 8005036 <_close_r+0x1a>
 8005034:	6023      	str	r3, [r4, #0]
 8005036:	bd38      	pop	{r3, r4, r5, pc}
 8005038:	20004df4 	.word	0x20004df4

0800503c <_reclaim_reent>:
 800503c:	4b2d      	ldr	r3, [pc, #180]	@ (80050f4 <_reclaim_reent+0xb8>)
 800503e:	681b      	ldr	r3, [r3, #0]
 8005040:	4283      	cmp	r3, r0
 8005042:	b570      	push	{r4, r5, r6, lr}
 8005044:	4604      	mov	r4, r0
 8005046:	d053      	beq.n	80050f0 <_reclaim_reent+0xb4>
 8005048:	69c3      	ldr	r3, [r0, #28]
 800504a:	b31b      	cbz	r3, 8005094 <_reclaim_reent+0x58>
 800504c:	68db      	ldr	r3, [r3, #12]
 800504e:	b163      	cbz	r3, 800506a <_reclaim_reent+0x2e>
 8005050:	2500      	movs	r5, #0
 8005052:	69e3      	ldr	r3, [r4, #28]
 8005054:	68db      	ldr	r3, [r3, #12]
 8005056:	5959      	ldr	r1, [r3, r5]
 8005058:	b9b1      	cbnz	r1, 8005088 <_reclaim_reent+0x4c>
 800505a:	3504      	adds	r5, #4
 800505c:	2d80      	cmp	r5, #128	@ 0x80
 800505e:	d1f8      	bne.n	8005052 <_reclaim_reent+0x16>
 8005060:	69e3      	ldr	r3, [r4, #28]
 8005062:	4620      	mov	r0, r4
 8005064:	68d9      	ldr	r1, [r3, #12]
 8005066:	f000 ff17 	bl	8005e98 <_free_r>
 800506a:	69e3      	ldr	r3, [r4, #28]
 800506c:	6819      	ldr	r1, [r3, #0]
 800506e:	b111      	cbz	r1, 8005076 <_reclaim_reent+0x3a>
 8005070:	4620      	mov	r0, r4
 8005072:	f000 ff11 	bl	8005e98 <_free_r>
 8005076:	69e3      	ldr	r3, [r4, #28]
 8005078:	689d      	ldr	r5, [r3, #8]
 800507a:	b15d      	cbz	r5, 8005094 <_reclaim_reent+0x58>
 800507c:	4629      	mov	r1, r5
 800507e:	4620      	mov	r0, r4
 8005080:	682d      	ldr	r5, [r5, #0]
 8005082:	f000 ff09 	bl	8005e98 <_free_r>
 8005086:	e7f8      	b.n	800507a <_reclaim_reent+0x3e>
 8005088:	680e      	ldr	r6, [r1, #0]
 800508a:	4620      	mov	r0, r4
 800508c:	f000 ff04 	bl	8005e98 <_free_r>
 8005090:	4631      	mov	r1, r6
 8005092:	e7e1      	b.n	8005058 <_reclaim_reent+0x1c>
 8005094:	6961      	ldr	r1, [r4, #20]
 8005096:	b111      	cbz	r1, 800509e <_reclaim_reent+0x62>
 8005098:	4620      	mov	r0, r4
 800509a:	f000 fefd 	bl	8005e98 <_free_r>
 800509e:	69e1      	ldr	r1, [r4, #28]
 80050a0:	b111      	cbz	r1, 80050a8 <_reclaim_reent+0x6c>
 80050a2:	4620      	mov	r0, r4
 80050a4:	f000 fef8 	bl	8005e98 <_free_r>
 80050a8:	6b21      	ldr	r1, [r4, #48]	@ 0x30
 80050aa:	b111      	cbz	r1, 80050b2 <_reclaim_reent+0x76>
 80050ac:	4620      	mov	r0, r4
 80050ae:	f000 fef3 	bl	8005e98 <_free_r>
 80050b2:	6b61      	ldr	r1, [r4, #52]	@ 0x34
 80050b4:	b111      	cbz	r1, 80050bc <_reclaim_reent+0x80>
 80050b6:	4620      	mov	r0, r4
 80050b8:	f000 feee 	bl	8005e98 <_free_r>
 80050bc:	6ba1      	ldr	r1, [r4, #56]	@ 0x38
 80050be:	b111      	cbz	r1, 80050c6 <_reclaim_reent+0x8a>
 80050c0:	4620      	mov	r0, r4
 80050c2:	f000 fee9 	bl	8005e98 <_free_r>
 80050c6:	6ca1      	ldr	r1, [r4, #72]	@ 0x48
 80050c8:	b111      	cbz	r1, 80050d0 <_reclaim_reent+0x94>
 80050ca:	4620      	mov	r0, r4
 80050cc:	f000 fee4 	bl	8005e98 <_free_r>
 80050d0:	6c61      	ldr	r1, [r4, #68]	@ 0x44
 80050d2:	b111      	cbz	r1, 80050da <_reclaim_reent+0x9e>
 80050d4:	4620      	mov	r0, r4
 80050d6:	f000 fedf 	bl	8005e98 <_free_r>
 80050da:	6ae1      	ldr	r1, [r4, #44]	@ 0x2c
 80050dc:	b111      	cbz	r1, 80050e4 <_reclaim_reent+0xa8>
 80050de:	4620      	mov	r0, r4
 80050e0:	f000 feda 	bl	8005e98 <_free_r>
 80050e4:	6a23      	ldr	r3, [r4, #32]
 80050e6:	b11b      	cbz	r3, 80050f0 <_reclaim_reent+0xb4>
 80050e8:	4620      	mov	r0, r4
 80050ea:	e8bd 4070 	ldmia.w	sp!, {r4, r5, r6, lr}
 80050ee:	4718      	bx	r3
 80050f0:	bd70      	pop	{r4, r5, r6, pc}
 80050f2:	bf00      	nop
 80050f4:	2000001c 	.word	0x2000001c

080050f8 <_lseek_r>:
 80050f8:	b538      	push	{r3, r4, r5, lr}
 80050fa:	4d07      	ldr	r5, [pc, #28]	@ (8005118 <_lseek_r+0x20>)
 80050fc:	4604      	mov	r4, r0
 80050fe:	4608      	mov	r0, r1
 8005100:	4611      	mov	r1, r2
 8005102:	2200      	movs	r2, #0
 8005104:	602a      	str	r2, [r5, #0]
 8005106:	461a      	mov	r2, r3
 8005108:	f7fc fa02 	bl	8001510 <_lseek>
 800510c:	1c43      	adds	r3, r0, #1
 800510e:	d102      	bne.n	8005116 <_lseek_r+0x1e>
 8005110:	682b      	ldr	r3, [r5, #0]
 8005112:	b103      	cbz	r3, 8005116 <_lseek_r+0x1e>
 8005114:	6023      	str	r3, [r4, #0]
 8005116:	bd38      	pop	{r3, r4, r5, pc}
 8005118:	20004df4 	.word	0x20004df4

0800511c <_read_r>:
 800511c:	b538      	push	{r3, r4, r5, lr}
 800511e:	4d07      	ldr	r5, [pc, #28]	@ (800513c <_read_r+0x20>)
 8005120:	4604      	mov	r4, r0
 8005122:	4608      	mov	r0, r1
 8005124:	4611      	mov	r1, r2
 8005126:	2200      	movs	r2, #0
 8005128:	602a      	str	r2, [r5, #0]
 800512a:	461a      	mov	r2, r3
 800512c:	f7fc f9ca 	bl	80014c4 <_read>
 8005130:	1c43      	adds	r3, r0, #1
 8005132:	d102      	bne.n	800513a <_read_r+0x1e>
 8005134:	682b      	ldr	r3, [r5, #0]
 8005136:	b103      	cbz	r3, 800513a <_read_r+0x1e>
 8005138:	6023      	str	r3, [r4, #0]
 800513a:	bd38      	pop	{r3, r4, r5, pc}
 800513c:	20004df4 	.word	0x20004df4

08005140 <_write_r>:
 8005140:	b538      	push	{r3, r4, r5, lr}
 8005142:	4d07      	ldr	r5, [pc, #28]	@ (8005160 <_write_r+0x20>)
 8005144:	4604      	mov	r4, r0
 8005146:	4608      	mov	r0, r1
 8005148:	4611      	mov	r1, r2
 800514a:	2200      	movs	r2, #0
 800514c:	602a      	str	r2, [r5, #0]
 800514e:	461a      	mov	r2, r3
 8005150:	f7fc f9c6 	bl	80014e0 <_write>
 8005154:	1c43      	adds	r3, r0, #1
 8005156:	d102      	bne.n	800515e <_write_r+0x1e>
 8005158:	682b      	ldr	r3, [r5, #0]
 800515a:	b103      	cbz	r3, 800515e <_write_r+0x1e>
 800515c:	6023      	str	r3, [r4, #0]
 800515e:	bd38      	pop	{r3, r4, r5, pc}
 8005160:	20004df4 	.word	0x20004df4

08005164 <__errno>:
 8005164:	4b01      	ldr	r3, [pc, #4]	@ (800516c <__errno+0x8>)
 8005166:	6818      	ldr	r0, [r3, #0]
 8005168:	4770      	bx	lr
 800516a:	bf00      	nop
 800516c:	2000001c 	.word	0x2000001c

08005170 <__libc_init_array>:
 8005170:	b570      	push	{r4, r5, r6, lr}
 8005172:	4d0d      	ldr	r5, [pc, #52]	@ (80051a8 <__libc_init_array+0x38>)
 8005174:	4c0d      	ldr	r4, [pc, #52]	@ (80051ac <__libc_init_array+0x3c>)
 8005176:	1b64      	subs	r4, r4, r5
 8005178:	10a4      	asrs	r4, r4, #2
 800517a:	2600      	movs	r6, #0
 800517c:	42a6      	cmp	r6, r4
 800517e:	d109      	bne.n	8005194 <__libc_init_array+0x24>
 8005180:	4d0b      	ldr	r5, [pc, #44]	@ (80051b0 <__libc_init_array+0x40>)
 8005182:	4c0c      	ldr	r4, [pc, #48]	@ (80051b4 <__libc_init_array+0x44>)
 8005184:	f003 fb76 	bl	8008874 <_init>
 8005188:	1b64      	subs	r4, r4, r5
 800518a:	10a4      	asrs	r4, r4, #2
 800518c:	2600      	movs	r6, #0
 800518e:	42a6      	cmp	r6, r4
 8005190:	d105      	bne.n	800519e <__libc_init_array+0x2e>
 8005192:	bd70      	pop	{r4, r5, r6, pc}
 8005194:	f855 3b04 	ldr.w	r3, [r5], #4
 8005198:	4798      	blx	r3
 800519a:	3601      	adds	r6, #1
 800519c:	e7ee      	b.n	800517c <__libc_init_array+0xc>
 800519e:	f855 3b04 	ldr.w	r3, [r5], #4
 80051a2:	4798      	blx	r3
 80051a4:	3601      	adds	r6, #1
 80051a6:	e7f2      	b.n	800518e <__libc_init_array+0x1e>
 80051a8:	08008d0c 	.word	0x08008d0c
 80051ac:	08008d0c 	.word	0x08008d0c
 80051b0:	08008d0c 	.word	0x08008d0c
 80051b4:	08008d10 	.word	0x08008d10

080051b8 <__retarget_lock_init_recursive>:
 80051b8:	4770      	bx	lr

080051ba <__retarget_lock_acquire_recursive>:
 80051ba:	4770      	bx	lr

080051bc <__retarget_lock_release_recursive>:
 80051bc:	4770      	bx	lr

080051be <memcpy>:
 80051be:	440a      	add	r2, r1
 80051c0:	4291      	cmp	r1, r2
 80051c2:	f100 33ff 	add.w	r3, r0, #4294967295
 80051c6:	d100      	bne.n	80051ca <memcpy+0xc>
 80051c8:	4770      	bx	lr
 80051ca:	b510      	push	{r4, lr}
 80051cc:	f811 4b01 	ldrb.w	r4, [r1], #1
 80051d0:	f803 4f01 	strb.w	r4, [r3, #1]!
 80051d4:	4291      	cmp	r1, r2
 80051d6:	d1f9      	bne.n	80051cc <memcpy+0xe>
 80051d8:	bd10      	pop	{r4, pc}
	...

080051dc <nanf>:
 80051dc:	ed9f 0a01 	vldr	s0, [pc, #4]	@ 80051e4 <nanf+0x8>
 80051e0:	4770      	bx	lr
 80051e2:	bf00      	nop
 80051e4:	7fc00000 	.word	0x7fc00000

080051e8 <quorem>:
 80051e8:	e92d 4ff7 	stmdb	sp!, {r0, r1, r2, r4, r5, r6, r7, r8, r9, sl, fp, lr}
 80051ec:	6903      	ldr	r3, [r0, #16]
 80051ee:	690c      	ldr	r4, [r1, #16]
 80051f0:	42a3      	cmp	r3, r4
 80051f2:	4607      	mov	r7, r0
 80051f4:	db7e      	blt.n	80052f4 <quorem+0x10c>
 80051f6:	3c01      	subs	r4, #1
 80051f8:	f101 0814 	add.w	r8, r1, #20
 80051fc:	00a3      	lsls	r3, r4, #2
 80051fe:	f100 0514 	add.w	r5, r0, #20
 8005202:	9300      	str	r3, [sp, #0]
 8005204:	eb05 0384 	add.w	r3, r5, r4, lsl #2
 8005208:	9301      	str	r3, [sp, #4]
 800520a:	f858 3024 	ldr.w	r3, [r8, r4, lsl #2]
 800520e:	f855 2024 	ldr.w	r2, [r5, r4, lsl #2]
 8005212:	3301      	adds	r3, #1
 8005214:	429a      	cmp	r2, r3
 8005216:	eb08 0984 	add.w	r9, r8, r4, lsl #2
 800521a:	fbb2 f6f3 	udiv	r6, r2, r3
 800521e:	d32e      	bcc.n	800527e <quorem+0x96>
 8005220:	f04f 0a00 	mov.w	sl, #0
 8005224:	46c4      	mov	ip, r8
 8005226:	46ae      	mov	lr, r5
 8005228:	46d3      	mov	fp, sl
 800522a:	f85c 3b04 	ldr.w	r3, [ip], #4
 800522e:	b298      	uxth	r0, r3
 8005230:	fb06 a000 	mla	r0, r6, r0, sl
 8005234:	0c02      	lsrs	r2, r0, #16
 8005236:	0c1b      	lsrs	r3, r3, #16
 8005238:	fb06 2303 	mla	r3, r6, r3, r2
 800523c:	f8de 2000 	ldr.w	r2, [lr]
 8005240:	b280      	uxth	r0, r0
 8005242:	b292      	uxth	r2, r2
 8005244:	1a12      	subs	r2, r2, r0
 8005246:	445a      	add	r2, fp
 8005248:	f8de 0000 	ldr.w	r0, [lr]
 800524c:	ea4f 4a13 	mov.w	sl, r3, lsr #16
 8005250:	b29b      	uxth	r3, r3
 8005252:	ebc3 4322 	rsb	r3, r3, r2, asr #16
 8005256:	eb03 4310 	add.w	r3, r3, r0, lsr #16
 800525a:	b292      	uxth	r2, r2
 800525c:	ea42 4203 	orr.w	r2, r2, r3, lsl #16
 8005260:	45e1      	cmp	r9, ip
 8005262:	f84e 2b04 	str.w	r2, [lr], #4
 8005266:	ea4f 4b23 	mov.w	fp, r3, asr #16
 800526a:	d2de      	bcs.n	800522a <quorem+0x42>
 800526c:	9b00      	ldr	r3, [sp, #0]
 800526e:	58eb      	ldr	r3, [r5, r3]
 8005270:	b92b      	cbnz	r3, 800527e <quorem+0x96>
 8005272:	9b01      	ldr	r3, [sp, #4]
 8005274:	3b04      	subs	r3, #4
 8005276:	429d      	cmp	r5, r3
 8005278:	461a      	mov	r2, r3
 800527a:	d32f      	bcc.n	80052dc <quorem+0xf4>
 800527c:	613c      	str	r4, [r7, #16]
 800527e:	4638      	mov	r0, r7
 8005280:	f001 f9c6 	bl	8006610 <__mcmp>
 8005284:	2800      	cmp	r0, #0
 8005286:	db25      	blt.n	80052d4 <quorem+0xec>
 8005288:	4629      	mov	r1, r5
 800528a:	2000      	movs	r0, #0
 800528c:	f858 2b04 	ldr.w	r2, [r8], #4
 8005290:	f8d1 c000 	ldr.w	ip, [r1]
 8005294:	fa1f fe82 	uxth.w	lr, r2
 8005298:	fa1f f38c 	uxth.w	r3, ip
 800529c:	eba3 030e 	sub.w	r3, r3, lr
 80052a0:	4403      	add	r3, r0
 80052a2:	0c12      	lsrs	r2, r2, #16
 80052a4:	ebc2 4223 	rsb	r2, r2, r3, asr #16
 80052a8:	eb02 421c 	add.w	r2, r2, ip, lsr #16
 80052ac:	b29b      	uxth	r3, r3
 80052ae:	ea43 4302 	orr.w	r3, r3, r2, lsl #16
 80052b2:	45c1      	cmp	r9, r8
 80052b4:	f841 3b04 	str.w	r3, [r1], #4
 80052b8:	ea4f 4022 	mov.w	r0, r2, asr #16
 80052bc:	d2e6      	bcs.n	800528c <quorem+0xa4>
 80052be:	f855 2024 	ldr.w	r2, [r5, r4, lsl #2]
 80052c2:	eb05 0384 	add.w	r3, r5, r4, lsl #2
 80052c6:	b922      	cbnz	r2, 80052d2 <quorem+0xea>
 80052c8:	3b04      	subs	r3, #4
 80052ca:	429d      	cmp	r5, r3
 80052cc:	461a      	mov	r2, r3
 80052ce:	d30b      	bcc.n	80052e8 <quorem+0x100>
 80052d0:	613c      	str	r4, [r7, #16]
 80052d2:	3601      	adds	r6, #1
 80052d4:	4630      	mov	r0, r6
 80052d6:	b003      	add	sp, #12
 80052d8:	e8bd 8ff0 	ldmia.w	sp!, {r4, r5, r6, r7, r8, r9, sl, fp, pc}
 80052dc:	6812      	ldr	r2, [r2, #0]
 80052de:	3b04      	subs	r3, #4
 80052e0:	2a00      	cmp	r2, #0
 80052e2:	d1cb      	bne.n	800527c <quorem+0x94>
 80052e4:	3c01      	subs	r4, #1
 80052e6:	e7c6      	b.n	8005276 <quorem+0x8e>
 80052e8:	6812      	ldr	r2, [r2, #0]
 80052ea:	3b04      	subs	r3, #4
 80052ec:	2a00      	cmp	r2, #0
 80052ee:	d1ef      	bne.n	80052d0 <quorem+0xe8>
 80052f0:	3c01      	subs	r4, #1
 80052f2:	e7ea      	b.n	80052ca <quorem+0xe2>
 80052f4:	2000      	movs	r0, #0
 80052f6:	e7ee      	b.n	80052d6 <quorem+0xee>

080052f8 <_dtoa_r>:
 80052f8:	e92d 4ff0 	stmdb	sp!, {r4, r5, r6, r7, r8, r9, sl, fp, lr}
 80052fc:	69c7      	ldr	r7, [r0, #28]
 80052fe:	b097      	sub	sp, #92	@ 0x5c
 8005300:	ed8d 0b04 	vstr	d0, [sp, #16]
 8005304:	ec55 4b10 	vmov	r4, r5, d0
 8005308:	9e20      	ldr	r6, [sp, #128]	@ 0x80
 800530a:	9107      	str	r1, [sp, #28]
 800530c:	4681      	mov	r9, r0
 800530e:	920c      	str	r2, [sp, #48]	@ 0x30
 8005310:	9311      	str	r3, [sp, #68]	@ 0x44
 8005312:	b97f      	cbnz	r7, 8005334 <_dtoa_r+0x3c>
 8005314:	2010      	movs	r0, #16
 8005316:	f000 fe09 	bl	8005f2c <malloc>
 800531a:	4602      	mov	r2, r0
 800531c:	f8c9 001c 	str.w	r0, [r9, #28]
 8005320:	b920      	cbnz	r0, 800532c <_dtoa_r+0x34>
 8005322:	4ba9      	ldr	r3, [pc, #676]	@ (80055c8 <_dtoa_r+0x2d0>)
 8005324:	21ef      	movs	r1, #239	@ 0xef
 8005326:	48a9      	ldr	r0, [pc, #676]	@ (80055cc <_dtoa_r+0x2d4>)
 8005328:	f002 fc2e 	bl	8007b88 <__assert_func>
 800532c:	e9c0 7701 	strd	r7, r7, [r0, #4]
 8005330:	6007      	str	r7, [r0, #0]
 8005332:	60c7      	str	r7, [r0, #12]
 8005334:	f8d9 301c 	ldr.w	r3, [r9, #28]
 8005338:	6819      	ldr	r1, [r3, #0]
 800533a:	b159      	cbz	r1, 8005354 <_dtoa_r+0x5c>
 800533c:	685a      	ldr	r2, [r3, #4]
 800533e:	604a      	str	r2, [r1, #4]
 8005340:	2301      	movs	r3, #1
 8005342:	4093      	lsls	r3, r2
 8005344:	608b      	str	r3, [r1, #8]
 8005346:	4648      	mov	r0, r9
 8005348:	f000 fee6 	bl	8006118 <_Bfree>
 800534c:	f8d9 301c 	ldr.w	r3, [r9, #28]
 8005350:	2200      	movs	r2, #0
 8005352:	601a      	str	r2, [r3, #0]
 8005354:	1e2b      	subs	r3, r5, #0
 8005356:	bfb9      	ittee	lt
 8005358:	f023 4300 	biclt.w	r3, r3, #2147483648	@ 0x80000000
 800535c:	9305      	strlt	r3, [sp, #20]
 800535e:	2300      	movge	r3, #0
 8005360:	6033      	strge	r3, [r6, #0]
 8005362:	9f05      	ldr	r7, [sp, #20]
 8005364:	4b9a      	ldr	r3, [pc, #616]	@ (80055d0 <_dtoa_r+0x2d8>)
 8005366:	bfbc      	itt	lt
 8005368:	2201      	movlt	r2, #1
 800536a:	6032      	strlt	r2, [r6, #0]
 800536c:	43bb      	bics	r3, r7
 800536e:	d112      	bne.n	8005396 <_dtoa_r+0x9e>
 8005370:	9a11      	ldr	r2, [sp, #68]	@ 0x44
 8005372:	f242 730f 	movw	r3, #9999	@ 0x270f
 8005376:	6013      	str	r3, [r2, #0]
 8005378:	f3c7 0313 	ubfx	r3, r7, #0, #20
 800537c:	4323      	orrs	r3, r4
 800537e:	f000 855a 	beq.w	8005e36 <_dtoa_r+0xb3e>
 8005382:	9b21      	ldr	r3, [sp, #132]	@ 0x84
 8005384:	f8df a25c 	ldr.w	sl, [pc, #604]	@ 80055e4 <_dtoa_r+0x2ec>
 8005388:	2b00      	cmp	r3, #0
 800538a:	f000 855c 	beq.w	8005e46 <_dtoa_r+0xb4e>
 800538e:	f10a 0303 	add.w	r3, sl, #3
 8005392:	f000 bd56 	b.w	8005e42 <_dtoa_r+0xb4a>
 8005396:	ed9d 7b04 	vldr	d7, [sp, #16]
 800539a:	2200      	movs	r2, #0
 800539c:	ec51 0b17 	vmov	r0, r1, d7
 80053a0:	2300      	movs	r3, #0
 80053a2:	ed8d 7b0a 	vstr	d7, [sp, #40]	@ 0x28
 80053a6:	f7fb fb97 	bl	8000ad8 <__aeabi_dcmpeq>
 80053aa:	4680      	mov	r8, r0
 80053ac:	b158      	cbz	r0, 80053c6 <_dtoa_r+0xce>
 80053ae:	9a11      	ldr	r2, [sp, #68]	@ 0x44
 80053b0:	2301      	movs	r3, #1
 80053b2:	6013      	str	r3, [r2, #0]
 80053b4:	9b21      	ldr	r3, [sp, #132]	@ 0x84
 80053b6:	b113      	cbz	r3, 80053be <_dtoa_r+0xc6>
 80053b8:	9a21      	ldr	r2, [sp, #132]	@ 0x84
 80053ba:	4b86      	ldr	r3, [pc, #536]	@ (80055d4 <_dtoa_r+0x2dc>)
 80053bc:	6013      	str	r3, [r2, #0]
 80053be:	f8df a228 	ldr.w	sl, [pc, #552]	@ 80055e8 <_dtoa_r+0x2f0>
 80053c2:	f000 bd40 	b.w	8005e46 <_dtoa_r+0xb4e>
 80053c6:	ed9d 0b0a 	vldr	d0, [sp, #40]	@ 0x28
 80053ca:	aa14      	add	r2, sp, #80	@ 0x50
 80053cc:	a915      	add	r1, sp, #84	@ 0x54
 80053ce:	4648      	mov	r0, r9
 80053d0:	f001 fa3e 	bl	8006850 <__d2b>
 80053d4:	f3c7 560a 	ubfx	r6, r7, #20, #11
 80053d8:	9002      	str	r0, [sp, #8]
 80053da:	2e00      	cmp	r6, #0
 80053dc:	d078      	beq.n	80054d0 <_dtoa_r+0x1d8>
 80053de:	9b0b      	ldr	r3, [sp, #44]	@ 0x2c
 80053e0:	f8cd 8048 	str.w	r8, [sp, #72]	@ 0x48
 80053e4:	f3c3 0313 	ubfx	r3, r3, #0, #20
 80053e8:	e9dd 010a 	ldrd	r0, r1, [sp, #40]	@ 0x28
 80053ec:	f043 537f 	orr.w	r3, r3, #1069547520	@ 0x3fc00000
 80053f0:	f443 1340 	orr.w	r3, r3, #3145728	@ 0x300000
 80053f4:	f2a6 36ff 	subw	r6, r6, #1023	@ 0x3ff
 80053f8:	4619      	mov	r1, r3
 80053fa:	2200      	movs	r2, #0
 80053fc:	4b76      	ldr	r3, [pc, #472]	@ (80055d8 <_dtoa_r+0x2e0>)
 80053fe:	f7fa ff4b 	bl	8000298 <__aeabi_dsub>
 8005402:	a36b      	add	r3, pc, #428	@ (adr r3, 80055b0 <_dtoa_r+0x2b8>)
 8005404:	e9d3 2300 	ldrd	r2, r3, [r3]
 8005408:	f7fb f8fe 	bl	8000608 <__aeabi_dmul>
 800540c:	a36a      	add	r3, pc, #424	@ (adr r3, 80055b8 <_dtoa_r+0x2c0>)
 800540e:	e9d3 2300 	ldrd	r2, r3, [r3]
 8005412:	f7fa ff43 	bl	800029c <__adddf3>
 8005416:	4604      	mov	r4, r0
 8005418:	4630      	mov	r0, r6
 800541a:	460d      	mov	r5, r1
 800541c:	f7fb f88a 	bl	8000534 <__aeabi_i2d>
 8005420:	a367      	add	r3, pc, #412	@ (adr r3, 80055c0 <_dtoa_r+0x2c8>)
 8005422:	e9d3 2300 	ldrd	r2, r3, [r3]
 8005426:	f7fb f8ef 	bl	8000608 <__aeabi_dmul>
 800542a:	4602      	mov	r2, r0
 800542c:	460b      	mov	r3, r1
 800542e:	4620      	mov	r0, r4
 8005430:	4629      	mov	r1, r5
 8005432:	f7fa ff33 	bl	800029c <__adddf3>
 8005436:	4604      	mov	r4, r0
 8005438:	460d      	mov	r5, r1
 800543a:	f7fb fb95 	bl	8000b68 <__aeabi_d2iz>
 800543e:	2200      	movs	r2, #0
 8005440:	4607      	mov	r7, r0
 8005442:	2300      	movs	r3, #0
 8005444:	4620      	mov	r0, r4
 8005446:	4629      	mov	r1, r5
 8005448:	f7fb fb50 	bl	8000aec <__aeabi_dcmplt>
 800544c:	b140      	cbz	r0, 8005460 <_dtoa_r+0x168>
 800544e:	4638      	mov	r0, r7
 8005450:	f7fb f870 	bl	8000534 <__aeabi_i2d>
 8005454:	4622      	mov	r2, r4
 8005456:	462b      	mov	r3, r5
 8005458:	f7fb fb3e 	bl	8000ad8 <__aeabi_dcmpeq>
 800545c:	b900      	cbnz	r0, 8005460 <_dtoa_r+0x168>
 800545e:	3f01      	subs	r7, #1
 8005460:	2f16      	cmp	r7, #22
 8005462:	d852      	bhi.n	800550a <_dtoa_r+0x212>
 8005464:	4b5d      	ldr	r3, [pc, #372]	@ (80055dc <_dtoa_r+0x2e4>)
 8005466:	eb03 03c7 	add.w	r3, r3, r7, lsl #3
 800546a:	e9d3 2300 	ldrd	r2, r3, [r3]
 800546e:	e9dd 010a 	ldrd	r0, r1, [sp, #40]	@ 0x28
 8005472:	f7fb fb3b 	bl	8000aec <__aeabi_dcmplt>
 8005476:	2800      	cmp	r0, #0
 8005478:	d049      	beq.n	800550e <_dtoa_r+0x216>
 800547a:	3f01      	subs	r7, #1
 800547c:	2300      	movs	r3, #0
 800547e:	9310      	str	r3, [sp, #64]	@ 0x40
 8005480:	9b14      	ldr	r3, [sp, #80]	@ 0x50
 8005482:	1b9b      	subs	r3, r3, r6
 8005484:	1e5a      	subs	r2, r3, #1
 8005486:	bf45      	ittet	mi
 8005488:	f1c3 0301 	rsbmi	r3, r3, #1
 800548c:	9300      	strmi	r3, [sp, #0]
 800548e:	2300      	movpl	r3, #0
 8005490:	2300      	movmi	r3, #0
 8005492:	9206      	str	r2, [sp, #24]
 8005494:	bf54      	ite	pl
 8005496:	9300      	strpl	r3, [sp, #0]
 8005498:	9306      	strmi	r3, [sp, #24]
 800549a:	2f00      	cmp	r7, #0
 800549c:	db39      	blt.n	8005512 <_dtoa_r+0x21a>
 800549e:	9b06      	ldr	r3, [sp, #24]
 80054a0:	970d      	str	r7, [sp, #52]	@ 0x34
 80054a2:	443b      	add	r3, r7
 80054a4:	9306      	str	r3, [sp, #24]
 80054a6:	2300      	movs	r3, #0
 80054a8:	9308      	str	r3, [sp, #32]
 80054aa:	9b07      	ldr	r3, [sp, #28]
 80054ac:	2b09      	cmp	r3, #9
 80054ae:	d863      	bhi.n	8005578 <_dtoa_r+0x280>
 80054b0:	2b05      	cmp	r3, #5
 80054b2:	bfc4      	itt	gt
 80054b4:	3b04      	subgt	r3, #4
 80054b6:	9307      	strgt	r3, [sp, #28]
 80054b8:	9b07      	ldr	r3, [sp, #28]
 80054ba:	f1a3 0302 	sub.w	r3, r3, #2
 80054be:	bfcc      	ite	gt
 80054c0:	2400      	movgt	r4, #0
 80054c2:	2401      	movle	r4, #1
 80054c4:	2b03      	cmp	r3, #3
 80054c6:	d863      	bhi.n	8005590 <_dtoa_r+0x298>
 80054c8:	e8df f003 	tbb	[pc, r3]
 80054cc:	2b375452 	.word	0x2b375452
 80054d0:	e9dd 6314 	ldrd	r6, r3, [sp, #80]	@ 0x50
 80054d4:	441e      	add	r6, r3
 80054d6:	f206 4332 	addw	r3, r6, #1074	@ 0x432
 80054da:	2b20      	cmp	r3, #32
 80054dc:	bfc1      	itttt	gt
 80054de:	f1c3 0340 	rsbgt	r3, r3, #64	@ 0x40
 80054e2:	409f      	lslgt	r7, r3
 80054e4:	f206 4312 	addwgt	r3, r6, #1042	@ 0x412
 80054e8:	fa24 f303 	lsrgt.w	r3, r4, r3
 80054ec:	bfd6      	itet	le
 80054ee:	f1c3 0320 	rsble	r3, r3, #32
 80054f2:	ea47 0003 	orrgt.w	r0, r7, r3
 80054f6:	fa04 f003 	lslle.w	r0, r4, r3
 80054fa:	f7fb f80b 	bl	8000514 <__aeabi_ui2d>
 80054fe:	2201      	movs	r2, #1
 8005500:	f1a1 73f8 	sub.w	r3, r1, #32505856	@ 0x1f00000
 8005504:	3e01      	subs	r6, #1
 8005506:	9212      	str	r2, [sp, #72]	@ 0x48
 8005508:	e776      	b.n	80053f8 <_dtoa_r+0x100>
 800550a:	2301      	movs	r3, #1
 800550c:	e7b7      	b.n	800547e <_dtoa_r+0x186>
 800550e:	9010      	str	r0, [sp, #64]	@ 0x40
 8005510:	e7b6      	b.n	8005480 <_dtoa_r+0x188>
 8005512:	9b00      	ldr	r3, [sp, #0]
 8005514:	1bdb      	subs	r3, r3, r7
 8005516:	9300      	str	r3, [sp, #0]
 8005518:	427b      	negs	r3, r7
 800551a:	9308      	str	r3, [sp, #32]
 800551c:	2300      	movs	r3, #0
 800551e:	930d      	str	r3, [sp, #52]	@ 0x34
 8005520:	e7c3      	b.n	80054aa <_dtoa_r+0x1b2>
 8005522:	2301      	movs	r3, #1
 8005524:	9309      	str	r3, [sp, #36]	@ 0x24
 8005526:	9b0c      	ldr	r3, [sp, #48]	@ 0x30
 8005528:	eb07 0b03 	add.w	fp, r7, r3
 800552c:	f10b 0301 	add.w	r3, fp, #1
 8005530:	2b01      	cmp	r3, #1
 8005532:	9303      	str	r3, [sp, #12]
 8005534:	bfb8      	it	lt
 8005536:	2301      	movlt	r3, #1
 8005538:	e006      	b.n	8005548 <_dtoa_r+0x250>
 800553a:	2301      	movs	r3, #1
 800553c:	9309      	str	r3, [sp, #36]	@ 0x24
 800553e:	9b0c      	ldr	r3, [sp, #48]	@ 0x30
 8005540:	2b00      	cmp	r3, #0
 8005542:	dd28      	ble.n	8005596 <_dtoa_r+0x29e>
 8005544:	469b      	mov	fp, r3
 8005546:	9303      	str	r3, [sp, #12]
 8005548:	f8d9 001c 	ldr.w	r0, [r9, #28]
 800554c:	2100      	movs	r1, #0
 800554e:	2204      	movs	r2, #4
 8005550:	f102 0514 	add.w	r5, r2, #20
 8005554:	429d      	cmp	r5, r3
 8005556:	d926      	bls.n	80055a6 <_dtoa_r+0x2ae>
 8005558:	6041      	str	r1, [r0, #4]
 800555a:	4648      	mov	r0, r9
 800555c:	f000 fd9c 	bl	8006098 <_Balloc>
 8005560:	4682      	mov	sl, r0
 8005562:	2800      	cmp	r0, #0
 8005564:	d142      	bne.n	80055ec <_dtoa_r+0x2f4>
 8005566:	4b1e      	ldr	r3, [pc, #120]	@ (80055e0 <_dtoa_r+0x2e8>)
 8005568:	4602      	mov	r2, r0
 800556a:	f240 11af 	movw	r1, #431	@ 0x1af
 800556e:	e6da      	b.n	8005326 <_dtoa_r+0x2e>
 8005570:	2300      	movs	r3, #0
 8005572:	e7e3      	b.n	800553c <_dtoa_r+0x244>
 8005574:	2300      	movs	r3, #0
 8005576:	e7d5      	b.n	8005524 <_dtoa_r+0x22c>
 8005578:	2401      	movs	r4, #1
 800557a:	2300      	movs	r3, #0
 800557c:	9307      	str	r3, [sp, #28]
 800557e:	9409      	str	r4, [sp, #36]	@ 0x24
 8005580:	f04f 3bff 	mov.w	fp, #4294967295
 8005584:	2200      	movs	r2, #0
 8005586:	f8cd b00c 	str.w	fp, [sp, #12]
 800558a:	2312      	movs	r3, #18
 800558c:	920c      	str	r2, [sp, #48]	@ 0x30
 800558e:	e7db      	b.n	8005548 <_dtoa_r+0x250>
 8005590:	2301      	movs	r3, #1
 8005592:	9309      	str	r3, [sp, #36]	@ 0x24
 8005594:	e7f4      	b.n	8005580 <_dtoa_r+0x288>
 8005596:	f04f 0b01 	mov.w	fp, #1
 800559a:	f8cd b00c 	str.w	fp, [sp, #12]
 800559e:	465b      	mov	r3, fp
 80055a0:	f8cd b030 	str.w	fp, [sp, #48]	@ 0x30
 80055a4:	e7d0      	b.n	8005548 <_dtoa_r+0x250>
 80055a6:	3101      	adds	r1, #1
 80055a8:	0052      	lsls	r2, r2, #1
 80055aa:	e7d1      	b.n	8005550 <_dtoa_r+0x258>
 80055ac:	f3af 8000 	nop.w
 80055b0:	636f4361 	.word	0x636f4361
 80055b4:	3fd287a7 	.word	0x3fd287a7
 80055b8:	8b60c8b3 	.word	0x8b60c8b3
 80055bc:	3fc68a28 	.word	0x3fc68a28
 80055c0:	509f79fb 	.word	0x509f79fb
 80055c4:	3fd34413 	.word	0x3fd34413
 80055c8:	0800890a 	.word	0x0800890a
 80055cc:	08008921 	.word	0x08008921
 80055d0:	7ff00000 	.word	0x7ff00000
 80055d4:	080088d5 	.word	0x080088d5
 80055d8:	3ff80000 	.word	0x3ff80000
 80055dc:	08008ae8 	.word	0x08008ae8
 80055e0:	08008979 	.word	0x08008979
 80055e4:	08008906 	.word	0x08008906
 80055e8:	080088d4 	.word	0x080088d4
 80055ec:	f8d9 301c 	ldr.w	r3, [r9, #28]
 80055f0:	6018      	str	r0, [r3, #0]
 80055f2:	9b03      	ldr	r3, [sp, #12]
 80055f4:	2b0e      	cmp	r3, #14
 80055f6:	f200 80a1 	bhi.w	800573c <_dtoa_r+0x444>
 80055fa:	2c00      	cmp	r4, #0
 80055fc:	f000 809e 	beq.w	800573c <_dtoa_r+0x444>
 8005600:	2f00      	cmp	r7, #0
 8005602:	dd33      	ble.n	800566c <_dtoa_r+0x374>
 8005604:	4b9c      	ldr	r3, [pc, #624]	@ (8005878 <_dtoa_r+0x580>)
 8005606:	f007 020f 	and.w	r2, r7, #15
 800560a:	eb03 03c2 	add.w	r3, r3, r2, lsl #3
 800560e:	ed93 7b00 	vldr	d7, [r3]
 8005612:	05f8      	lsls	r0, r7, #23
 8005614:	ed8d 7b0e 	vstr	d7, [sp, #56]	@ 0x38
 8005618:	ea4f 1427 	mov.w	r4, r7, asr #4
 800561c:	d516      	bpl.n	800564c <_dtoa_r+0x354>
 800561e:	4b97      	ldr	r3, [pc, #604]	@ (800587c <_dtoa_r+0x584>)
 8005620:	e9dd 010a 	ldrd	r0, r1, [sp, #40]	@ 0x28
 8005624:	e9d3 2308 	ldrd	r2, r3, [r3, #32]
 8005628:	f7fb f918 	bl	800085c <__aeabi_ddiv>
 800562c:	e9cd 0104 	strd	r0, r1, [sp, #16]
 8005630:	f004 040f 	and.w	r4, r4, #15
 8005634:	2603      	movs	r6, #3
 8005636:	4d91      	ldr	r5, [pc, #580]	@ (800587c <_dtoa_r+0x584>)
 8005638:	b954      	cbnz	r4, 8005650 <_dtoa_r+0x358>
 800563a:	e9dd 230e 	ldrd	r2, r3, [sp, #56]	@ 0x38
 800563e:	e9dd 0104 	ldrd	r0, r1, [sp, #16]
 8005642:	f7fb f90b 	bl	800085c <__aeabi_ddiv>
 8005646:	e9cd 0104 	strd	r0, r1, [sp, #16]
 800564a:	e028      	b.n	800569e <_dtoa_r+0x3a6>
 800564c:	2602      	movs	r6, #2
 800564e:	e7f2      	b.n	8005636 <_dtoa_r+0x33e>
 8005650:	07e1      	lsls	r1, r4, #31
 8005652:	d508      	bpl.n	8005666 <_dtoa_r+0x36e>
 8005654:	e9dd 010e 	ldrd	r0, r1, [sp, #56]	@ 0x38
 8005658:	e9d5 2300 	ldrd	r2, r3, [r5]
 800565c:	f7fa ffd4 	bl	8000608 <__aeabi_dmul>
 8005660:	e9cd 010e 	strd	r0, r1, [sp, #56]	@ 0x38
 8005664:	3601      	adds	r6, #1
 8005666:	1064      	asrs	r4, r4, #1
 8005668:	3508      	adds	r5, #8
 800566a:	e7e5      	b.n	8005638 <_dtoa_r+0x340>
 800566c:	f000 80af 	beq.w	80057ce <_dtoa_r+0x4d6>
 8005670:	427c      	negs	r4, r7
 8005672:	4b81      	ldr	r3, [pc, #516]	@ (8005878 <_dtoa_r+0x580>)
 8005674:	4d81      	ldr	r5, [pc, #516]	@ (800587c <_dtoa_r+0x584>)
 8005676:	f004 020f 	and.w	r2, r4, #15
 800567a:	eb03 03c2 	add.w	r3, r3, r2, lsl #3
 800567e:	e9d3 2300 	ldrd	r2, r3, [r3]
 8005682:	e9dd 010a 	ldrd	r0, r1, [sp, #40]	@ 0x28
 8005686:	f7fa ffbf 	bl	8000608 <__aeabi_dmul>
 800568a:	e9cd 0104 	strd	r0, r1, [sp, #16]
 800568e:	1124      	asrs	r4, r4, #4
 8005690:	2300      	movs	r3, #0
 8005692:	2602      	movs	r6, #2
 8005694:	2c00      	cmp	r4, #0
 8005696:	f040 808f 	bne.w	80057b8 <_dtoa_r+0x4c0>
 800569a:	2b00      	cmp	r3, #0
 800569c:	d1d3      	bne.n	8005646 <_dtoa_r+0x34e>
 800569e:	9b10      	ldr	r3, [sp, #64]	@ 0x40
 80056a0:	e9dd 4504 	ldrd	r4, r5, [sp, #16]
 80056a4:	2b00      	cmp	r3, #0
 80056a6:	f000 8094 	beq.w	80057d2 <_dtoa_r+0x4da>
 80056aa:	4b75      	ldr	r3, [pc, #468]	@ (8005880 <_dtoa_r+0x588>)
 80056ac:	2200      	movs	r2, #0
 80056ae:	4620      	mov	r0, r4
 80056b0:	4629      	mov	r1, r5
 80056b2:	f7fb fa1b 	bl	8000aec <__aeabi_dcmplt>
 80056b6:	2800      	cmp	r0, #0
 80056b8:	f000 808b 	beq.w	80057d2 <_dtoa_r+0x4da>
 80056bc:	9b03      	ldr	r3, [sp, #12]
 80056be:	2b00      	cmp	r3, #0
 80056c0:	f000 8087 	beq.w	80057d2 <_dtoa_r+0x4da>
 80056c4:	f1bb 0f00 	cmp.w	fp, #0
 80056c8:	dd34      	ble.n	8005734 <_dtoa_r+0x43c>
 80056ca:	4620      	mov	r0, r4
 80056cc:	4b6d      	ldr	r3, [pc, #436]	@ (8005884 <_dtoa_r+0x58c>)
 80056ce:	2200      	movs	r2, #0
 80056d0:	4629      	mov	r1, r5
 80056d2:	f7fa ff99 	bl	8000608 <__aeabi_dmul>
 80056d6:	e9cd 0104 	strd	r0, r1, [sp, #16]
 80056da:	f107 38ff 	add.w	r8, r7, #4294967295
 80056de:	3601      	adds	r6, #1
 80056e0:	465c      	mov	r4, fp
 80056e2:	4630      	mov	r0, r6
 80056e4:	f7fa ff26 	bl	8000534 <__aeabi_i2d>
 80056e8:	e9dd 2304 	ldrd	r2, r3, [sp, #16]
 80056ec:	f7fa ff8c 	bl	8000608 <__aeabi_dmul>
 80056f0:	4b65      	ldr	r3, [pc, #404]	@ (8005888 <_dtoa_r+0x590>)
 80056f2:	2200      	movs	r2, #0
 80056f4:	f7fa fdd2 	bl	800029c <__adddf3>
 80056f8:	4605      	mov	r5, r0
 80056fa:	f1a1 7650 	sub.w	r6, r1, #54525952	@ 0x3400000
 80056fe:	2c00      	cmp	r4, #0
 8005700:	d16a      	bne.n	80057d8 <_dtoa_r+0x4e0>
 8005702:	e9dd 0104 	ldrd	r0, r1, [sp, #16]
 8005706:	4b61      	ldr	r3, [pc, #388]	@ (800588c <_dtoa_r+0x594>)
 8005708:	2200      	movs	r2, #0
 800570a:	f7fa fdc5 	bl	8000298 <__aeabi_dsub>
 800570e:	4602      	mov	r2, r0
 8005710:	460b      	mov	r3, r1
 8005712:	e9cd 2304 	strd	r2, r3, [sp, #16]
 8005716:	462a      	mov	r2, r5
 8005718:	4633      	mov	r3, r6
 800571a:	f7fb fa05 	bl	8000b28 <__aeabi_dcmpgt>
 800571e:	2800      	cmp	r0, #0
 8005720:	f040 8298 	bne.w	8005c54 <_dtoa_r+0x95c>
 8005724:	e9dd 0104 	ldrd	r0, r1, [sp, #16]
 8005728:	462a      	mov	r2, r5
 800572a:	f106 4300 	add.w	r3, r6, #2147483648	@ 0x80000000
 800572e:	f7fb f9dd 	bl	8000aec <__aeabi_dcmplt>
 8005732:	bb38      	cbnz	r0, 8005784 <_dtoa_r+0x48c>
 8005734:	e9dd 340a 	ldrd	r3, r4, [sp, #40]	@ 0x28
 8005738:	e9cd 3404 	strd	r3, r4, [sp, #16]
 800573c:	9b15      	ldr	r3, [sp, #84]	@ 0x54
 800573e:	2b00      	cmp	r3, #0
 8005740:	f2c0 8157 	blt.w	80059f2 <_dtoa_r+0x6fa>
 8005744:	2f0e      	cmp	r7, #14
 8005746:	f300 8154 	bgt.w	80059f2 <_dtoa_r+0x6fa>
 800574a:	4b4b      	ldr	r3, [pc, #300]	@ (8005878 <_dtoa_r+0x580>)
 800574c:	eb03 03c7 	add.w	r3, r3, r7, lsl #3
 8005750:	ed93 7b00 	vldr	d7, [r3]
 8005754:	9b0c      	ldr	r3, [sp, #48]	@ 0x30
 8005756:	2b00      	cmp	r3, #0
 8005758:	ed8d 7b00 	vstr	d7, [sp]
 800575c:	f280 80e5 	bge.w	800592a <_dtoa_r+0x632>
 8005760:	9b03      	ldr	r3, [sp, #12]
 8005762:	2b00      	cmp	r3, #0
 8005764:	f300 80e1 	bgt.w	800592a <_dtoa_r+0x632>
 8005768:	d10c      	bne.n	8005784 <_dtoa_r+0x48c>
 800576a:	4b48      	ldr	r3, [pc, #288]	@ (800588c <_dtoa_r+0x594>)
 800576c:	2200      	movs	r2, #0
 800576e:	ec51 0b17 	vmov	r0, r1, d7
 8005772:	f7fa ff49 	bl	8000608 <__aeabi_dmul>
 8005776:	e9dd 2304 	ldrd	r2, r3, [sp, #16]
 800577a:	f7fb f9cb 	bl	8000b14 <__aeabi_dcmpge>
 800577e:	2800      	cmp	r0, #0
 8005780:	f000 8266 	beq.w	8005c50 <_dtoa_r+0x958>
 8005784:	2400      	movs	r4, #0
 8005786:	4625      	mov	r5, r4
 8005788:	9b0c      	ldr	r3, [sp, #48]	@ 0x30
 800578a:	4656      	mov	r6, sl
 800578c:	ea6f 0803 	mvn.w	r8, r3
 8005790:	2700      	movs	r7, #0
 8005792:	4621      	mov	r1, r4
 8005794:	4648      	mov	r0, r9
 8005796:	f000 fcbf 	bl	8006118 <_Bfree>
 800579a:	2d00      	cmp	r5, #0
 800579c:	f000 80bd 	beq.w	800591a <_dtoa_r+0x622>
 80057a0:	b12f      	cbz	r7, 80057ae <_dtoa_r+0x4b6>
 80057a2:	42af      	cmp	r7, r5
 80057a4:	d003      	beq.n	80057ae <_dtoa_r+0x4b6>
 80057a6:	4639      	mov	r1, r7
 80057a8:	4648      	mov	r0, r9
 80057aa:	f000 fcb5 	bl	8006118 <_Bfree>
 80057ae:	4629      	mov	r1, r5
 80057b0:	4648      	mov	r0, r9
 80057b2:	f000 fcb1 	bl	8006118 <_Bfree>
 80057b6:	e0b0      	b.n	800591a <_dtoa_r+0x622>
 80057b8:	07e2      	lsls	r2, r4, #31
 80057ba:	d505      	bpl.n	80057c8 <_dtoa_r+0x4d0>
 80057bc:	e9d5 2300 	ldrd	r2, r3, [r5]
 80057c0:	f7fa ff22 	bl	8000608 <__aeabi_dmul>
 80057c4:	3601      	adds	r6, #1
 80057c6:	2301      	movs	r3, #1
 80057c8:	1064      	asrs	r4, r4, #1
 80057ca:	3508      	adds	r5, #8
 80057cc:	e762      	b.n	8005694 <_dtoa_r+0x39c>
 80057ce:	2602      	movs	r6, #2
 80057d0:	e765      	b.n	800569e <_dtoa_r+0x3a6>
 80057d2:	9c03      	ldr	r4, [sp, #12]
 80057d4:	46b8      	mov	r8, r7
 80057d6:	e784      	b.n	80056e2 <_dtoa_r+0x3ea>
 80057d8:	4b27      	ldr	r3, [pc, #156]	@ (8005878 <_dtoa_r+0x580>)
 80057da:	9909      	ldr	r1, [sp, #36]	@ 0x24
 80057dc:	eb03 03c4 	add.w	r3, r3, r4, lsl #3
 80057e0:	e953 2302 	ldrd	r2, r3, [r3, #-8]
 80057e4:	4454      	add	r4, sl
 80057e6:	2900      	cmp	r1, #0
 80057e8:	d054      	beq.n	8005894 <_dtoa_r+0x59c>
 80057ea:	4929      	ldr	r1, [pc, #164]	@ (8005890 <_dtoa_r+0x598>)
 80057ec:	2000      	movs	r0, #0
 80057ee:	f7fb f835 	bl	800085c <__aeabi_ddiv>
 80057f2:	4633      	mov	r3, r6
 80057f4:	462a      	mov	r2, r5
 80057f6:	f7fa fd4f 	bl	8000298 <__aeabi_dsub>
 80057fa:	e9cd 010e 	strd	r0, r1, [sp, #56]	@ 0x38
 80057fe:	4656      	mov	r6, sl
 8005800:	e9dd 0104 	ldrd	r0, r1, [sp, #16]
 8005804:	f7fb f9b0 	bl	8000b68 <__aeabi_d2iz>
 8005808:	4605      	mov	r5, r0
 800580a:	f7fa fe93 	bl	8000534 <__aeabi_i2d>
 800580e:	4602      	mov	r2, r0
 8005810:	460b      	mov	r3, r1
 8005812:	e9dd 0104 	ldrd	r0, r1, [sp, #16]
 8005816:	f7fa fd3f 	bl	8000298 <__aeabi_dsub>
 800581a:	3530      	adds	r5, #48	@ 0x30
 800581c:	4602      	mov	r2, r0
 800581e:	460b      	mov	r3, r1
 8005820:	e9cd 2304 	strd	r2, r3, [sp, #16]
 8005824:	f806 5b01 	strb.w	r5, [r6], #1
 8005828:	e9dd 230e 	ldrd	r2, r3, [sp, #56]	@ 0x38
 800582c:	f7fb f95e 	bl	8000aec <__aeabi_dcmplt>
 8005830:	2800      	cmp	r0, #0
 8005832:	d172      	bne.n	800591a <_dtoa_r+0x622>
 8005834:	e9dd 2304 	ldrd	r2, r3, [sp, #16]
 8005838:	4911      	ldr	r1, [pc, #68]	@ (8005880 <_dtoa_r+0x588>)
 800583a:	2000      	movs	r0, #0
 800583c:	f7fa fd2c 	bl	8000298 <__aeabi_dsub>
 8005840:	e9dd 230e 	ldrd	r2, r3, [sp, #56]	@ 0x38
 8005844:	f7fb f952 	bl	8000aec <__aeabi_dcmplt>
 8005848:	2800      	cmp	r0, #0
 800584a:	f040 80b4 	bne.w	80059b6 <_dtoa_r+0x6be>
 800584e:	42a6      	cmp	r6, r4
 8005850:	f43f af70 	beq.w	8005734 <_dtoa_r+0x43c>
 8005854:	e9dd 010e 	ldrd	r0, r1, [sp, #56]	@ 0x38
 8005858:	4b0a      	ldr	r3, [pc, #40]	@ (8005884 <_dtoa_r+0x58c>)
 800585a:	2200      	movs	r2, #0
 800585c:	f7fa fed4 	bl	8000608 <__aeabi_dmul>
 8005860:	4b08      	ldr	r3, [pc, #32]	@ (8005884 <_dtoa_r+0x58c>)
 8005862:	e9cd 010e 	strd	r0, r1, [sp, #56]	@ 0x38
 8005866:	2200      	movs	r2, #0
 8005868:	e9dd 0104 	ldrd	r0, r1, [sp, #16]
 800586c:	f7fa fecc 	bl	8000608 <__aeabi_dmul>
 8005870:	e9cd 0104 	strd	r0, r1, [sp, #16]
 8005874:	e7c4      	b.n	8005800 <_dtoa_r+0x508>
 8005876:	bf00      	nop
 8005878:	08008ae8 	.word	0x08008ae8
 800587c:	08008ac0 	.word	0x08008ac0
 8005880:	3ff00000 	.word	0x3ff00000
 8005884:	40240000 	.word	0x40240000
 8005888:	401c0000 	.word	0x401c0000
 800588c:	40140000 	.word	0x40140000
 8005890:	3fe00000 	.word	0x3fe00000
 8005894:	4631      	mov	r1, r6
 8005896:	4628      	mov	r0, r5
 8005898:	f7fa feb6 	bl	8000608 <__aeabi_dmul>
 800589c:	e9cd 010e 	strd	r0, r1, [sp, #56]	@ 0x38
 80058a0:	9413      	str	r4, [sp, #76]	@ 0x4c
 80058a2:	4656      	mov	r6, sl
 80058a4:	e9dd 0104 	ldrd	r0, r1, [sp, #16]
 80058a8:	f7fb f95e 	bl	8000b68 <__aeabi_d2iz>
 80058ac:	4605      	mov	r5, r0
 80058ae:	f7fa fe41 	bl	8000534 <__aeabi_i2d>
 80058b2:	4602      	mov	r2, r0
 80058b4:	460b      	mov	r3, r1
 80058b6:	e9dd 0104 	ldrd	r0, r1, [sp, #16]
 80058ba:	f7fa fced 	bl	8000298 <__aeabi_dsub>
 80058be:	3530      	adds	r5, #48	@ 0x30
 80058c0:	f806 5b01 	strb.w	r5, [r6], #1
 80058c4:	4602      	mov	r2, r0
 80058c6:	460b      	mov	r3, r1
 80058c8:	42a6      	cmp	r6, r4
 80058ca:	e9cd 2304 	strd	r2, r3, [sp, #16]
 80058ce:	f04f 0200 	mov.w	r2, #0
 80058d2:	d124      	bne.n	800591e <_dtoa_r+0x626>
 80058d4:	4baf      	ldr	r3, [pc, #700]	@ (8005b94 <_dtoa_r+0x89c>)
 80058d6:	e9dd 010e 	ldrd	r0, r1, [sp, #56]	@ 0x38
 80058da:	f7fa fcdf 	bl	800029c <__adddf3>
 80058de:	4602      	mov	r2, r0
 80058e0:	460b      	mov	r3, r1
 80058e2:	e9dd 0104 	ldrd	r0, r1, [sp, #16]
 80058e6:	f7fb f91f 	bl	8000b28 <__aeabi_dcmpgt>
 80058ea:	2800      	cmp	r0, #0
 80058ec:	d163      	bne.n	80059b6 <_dtoa_r+0x6be>
 80058ee:	e9dd 230e 	ldrd	r2, r3, [sp, #56]	@ 0x38
 80058f2:	49a8      	ldr	r1, [pc, #672]	@ (8005b94 <_dtoa_r+0x89c>)
 80058f4:	2000      	movs	r0, #0
 80058f6:	f7fa fccf 	bl	8000298 <__aeabi_dsub>
 80058fa:	4602      	mov	r2, r0
 80058fc:	460b      	mov	r3, r1
 80058fe:	e9dd 0104 	ldrd	r0, r1, [sp, #16]
 8005902:	f7fb f8f3 	bl	8000aec <__aeabi_dcmplt>
 8005906:	2800      	cmp	r0, #0
 8005908:	f43f af14 	beq.w	8005734 <_dtoa_r+0x43c>
 800590c:	9e13      	ldr	r6, [sp, #76]	@ 0x4c
 800590e:	1e73      	subs	r3, r6, #1
 8005910:	9313      	str	r3, [sp, #76]	@ 0x4c
 8005912:	f816 3c01 	ldrb.w	r3, [r6, #-1]
 8005916:	2b30      	cmp	r3, #48	@ 0x30
 8005918:	d0f8      	beq.n	800590c <_dtoa_r+0x614>
 800591a:	4647      	mov	r7, r8
 800591c:	e03b      	b.n	8005996 <_dtoa_r+0x69e>
 800591e:	4b9e      	ldr	r3, [pc, #632]	@ (8005b98 <_dtoa_r+0x8a0>)
 8005920:	f7fa fe72 	bl	8000608 <__aeabi_dmul>
 8005924:	e9cd 0104 	strd	r0, r1, [sp, #16]
 8005928:	e7bc      	b.n	80058a4 <_dtoa_r+0x5ac>
 800592a:	e9dd 4504 	ldrd	r4, r5, [sp, #16]
 800592e:	4656      	mov	r6, sl
 8005930:	e9dd 2300 	ldrd	r2, r3, [sp]
 8005934:	4620      	mov	r0, r4
 8005936:	4629      	mov	r1, r5
 8005938:	f7fa ff90 	bl	800085c <__aeabi_ddiv>
 800593c:	f7fb f914 	bl	8000b68 <__aeabi_d2iz>
 8005940:	4680      	mov	r8, r0
 8005942:	f7fa fdf7 	bl	8000534 <__aeabi_i2d>
 8005946:	e9dd 2300 	ldrd	r2, r3, [sp]
 800594a:	f7fa fe5d 	bl	8000608 <__aeabi_dmul>
 800594e:	4602      	mov	r2, r0
 8005950:	460b      	mov	r3, r1
 8005952:	4620      	mov	r0, r4
 8005954:	4629      	mov	r1, r5
 8005956:	f108 0430 	add.w	r4, r8, #48	@ 0x30
 800595a:	f7fa fc9d 	bl	8000298 <__aeabi_dsub>
 800595e:	f806 4b01 	strb.w	r4, [r6], #1
 8005962:	9d03      	ldr	r5, [sp, #12]
 8005964:	eba6 040a 	sub.w	r4, r6, sl
 8005968:	42a5      	cmp	r5, r4
 800596a:	4602      	mov	r2, r0
 800596c:	460b      	mov	r3, r1
 800596e:	d133      	bne.n	80059d8 <_dtoa_r+0x6e0>
 8005970:	f7fa fc94 	bl	800029c <__adddf3>
 8005974:	e9dd 2300 	ldrd	r2, r3, [sp]
 8005978:	4604      	mov	r4, r0
 800597a:	460d      	mov	r5, r1
 800597c:	f7fb f8d4 	bl	8000b28 <__aeabi_dcmpgt>
 8005980:	b9c0      	cbnz	r0, 80059b4 <_dtoa_r+0x6bc>
 8005982:	e9dd 2300 	ldrd	r2, r3, [sp]
 8005986:	4620      	mov	r0, r4
 8005988:	4629      	mov	r1, r5
 800598a:	f7fb f8a5 	bl	8000ad8 <__aeabi_dcmpeq>
 800598e:	b110      	cbz	r0, 8005996 <_dtoa_r+0x69e>
 8005990:	f018 0f01 	tst.w	r8, #1
 8005994:	d10e      	bne.n	80059b4 <_dtoa_r+0x6bc>
 8005996:	9902      	ldr	r1, [sp, #8]
 8005998:	4648      	mov	r0, r9
 800599a:	f000 fbbd 	bl	8006118 <_Bfree>
 800599e:	2300      	movs	r3, #0
 80059a0:	7033      	strb	r3, [r6, #0]
 80059a2:	9b11      	ldr	r3, [sp, #68]	@ 0x44
 80059a4:	3701      	adds	r7, #1
 80059a6:	601f      	str	r7, [r3, #0]
 80059a8:	9b21      	ldr	r3, [sp, #132]	@ 0x84
 80059aa:	2b00      	cmp	r3, #0
 80059ac:	f000 824b 	beq.w	8005e46 <_dtoa_r+0xb4e>
 80059b0:	601e      	str	r6, [r3, #0]
 80059b2:	e248      	b.n	8005e46 <_dtoa_r+0xb4e>
 80059b4:	46b8      	mov	r8, r7
 80059b6:	4633      	mov	r3, r6
 80059b8:	461e      	mov	r6, r3
 80059ba:	f813 2d01 	ldrb.w	r2, [r3, #-1]!
 80059be:	2a39      	cmp	r2, #57	@ 0x39
 80059c0:	d106      	bne.n	80059d0 <_dtoa_r+0x6d8>
 80059c2:	459a      	cmp	sl, r3
 80059c4:	d1f8      	bne.n	80059b8 <_dtoa_r+0x6c0>
 80059c6:	2230      	movs	r2, #48	@ 0x30
 80059c8:	f108 0801 	add.w	r8, r8, #1
 80059cc:	f88a 2000 	strb.w	r2, [sl]
 80059d0:	781a      	ldrb	r2, [r3, #0]
 80059d2:	3201      	adds	r2, #1
 80059d4:	701a      	strb	r2, [r3, #0]
 80059d6:	e7a0      	b.n	800591a <_dtoa_r+0x622>
 80059d8:	4b6f      	ldr	r3, [pc, #444]	@ (8005b98 <_dtoa_r+0x8a0>)
 80059da:	2200      	movs	r2, #0
 80059dc:	f7fa fe14 	bl	8000608 <__aeabi_dmul>
 80059e0:	2200      	movs	r2, #0
 80059e2:	2300      	movs	r3, #0
 80059e4:	4604      	mov	r4, r0
 80059e6:	460d      	mov	r5, r1
 80059e8:	f7fb f876 	bl	8000ad8 <__aeabi_dcmpeq>
 80059ec:	2800      	cmp	r0, #0
 80059ee:	d09f      	beq.n	8005930 <_dtoa_r+0x638>
 80059f0:	e7d1      	b.n	8005996 <_dtoa_r+0x69e>
 80059f2:	9a09      	ldr	r2, [sp, #36]	@ 0x24
 80059f4:	2a00      	cmp	r2, #0
 80059f6:	f000 80ea 	beq.w	8005bce <_dtoa_r+0x8d6>
 80059fa:	9a07      	ldr	r2, [sp, #28]
 80059fc:	2a01      	cmp	r2, #1
 80059fe:	f300 80cd 	bgt.w	8005b9c <_dtoa_r+0x8a4>
 8005a02:	9a12      	ldr	r2, [sp, #72]	@ 0x48
 8005a04:	2a00      	cmp	r2, #0
 8005a06:	f000 80c1 	beq.w	8005b8c <_dtoa_r+0x894>
 8005a0a:	f203 4333 	addw	r3, r3, #1075	@ 0x433
 8005a0e:	9c08      	ldr	r4, [sp, #32]
 8005a10:	9e00      	ldr	r6, [sp, #0]
 8005a12:	9a00      	ldr	r2, [sp, #0]
 8005a14:	441a      	add	r2, r3
 8005a16:	9200      	str	r2, [sp, #0]
 8005a18:	9a06      	ldr	r2, [sp, #24]
 8005a1a:	2101      	movs	r1, #1
 8005a1c:	441a      	add	r2, r3
 8005a1e:	4648      	mov	r0, r9
 8005a20:	9206      	str	r2, [sp, #24]
 8005a22:	f000 fc77 	bl	8006314 <__i2b>
 8005a26:	4605      	mov	r5, r0
 8005a28:	b166      	cbz	r6, 8005a44 <_dtoa_r+0x74c>
 8005a2a:	9b06      	ldr	r3, [sp, #24]
 8005a2c:	2b00      	cmp	r3, #0
 8005a2e:	dd09      	ble.n	8005a44 <_dtoa_r+0x74c>
 8005a30:	42b3      	cmp	r3, r6
 8005a32:	9a00      	ldr	r2, [sp, #0]
 8005a34:	bfa8      	it	ge
 8005a36:	4633      	movge	r3, r6
 8005a38:	1ad2      	subs	r2, r2, r3
 8005a3a:	9200      	str	r2, [sp, #0]
 8005a3c:	9a06      	ldr	r2, [sp, #24]
 8005a3e:	1af6      	subs	r6, r6, r3
 8005a40:	1ad3      	subs	r3, r2, r3
 8005a42:	9306      	str	r3, [sp, #24]
 8005a44:	9b08      	ldr	r3, [sp, #32]
 8005a46:	b30b      	cbz	r3, 8005a8c <_dtoa_r+0x794>
 8005a48:	9b09      	ldr	r3, [sp, #36]	@ 0x24
 8005a4a:	2b00      	cmp	r3, #0
 8005a4c:	f000 80c6 	beq.w	8005bdc <_dtoa_r+0x8e4>
 8005a50:	2c00      	cmp	r4, #0
 8005a52:	f000 80c0 	beq.w	8005bd6 <_dtoa_r+0x8de>
 8005a56:	4629      	mov	r1, r5
 8005a58:	4622      	mov	r2, r4
 8005a5a:	4648      	mov	r0, r9
 8005a5c:	f000 fd12 	bl	8006484 <__pow5mult>
 8005a60:	9a02      	ldr	r2, [sp, #8]
 8005a62:	4601      	mov	r1, r0
 8005a64:	4605      	mov	r5, r0
 8005a66:	4648      	mov	r0, r9
 8005a68:	f000 fc6a 	bl	8006340 <__multiply>
 8005a6c:	9902      	ldr	r1, [sp, #8]
 8005a6e:	4680      	mov	r8, r0
 8005a70:	4648      	mov	r0, r9
 8005a72:	f000 fb51 	bl	8006118 <_Bfree>
 8005a76:	9b08      	ldr	r3, [sp, #32]
 8005a78:	1b1b      	subs	r3, r3, r4
 8005a7a:	9308      	str	r3, [sp, #32]
 8005a7c:	f000 80b1 	beq.w	8005be2 <_dtoa_r+0x8ea>
 8005a80:	9a08      	ldr	r2, [sp, #32]
 8005a82:	4641      	mov	r1, r8
 8005a84:	4648      	mov	r0, r9
 8005a86:	f000 fcfd 	bl	8006484 <__pow5mult>
 8005a8a:	9002      	str	r0, [sp, #8]
 8005a8c:	2101      	movs	r1, #1
 8005a8e:	4648      	mov	r0, r9
 8005a90:	f000 fc40 	bl	8006314 <__i2b>
 8005a94:	9b0d      	ldr	r3, [sp, #52]	@ 0x34
 8005a96:	4604      	mov	r4, r0
 8005a98:	2b00      	cmp	r3, #0
 8005a9a:	f000 81d8 	beq.w	8005e4e <_dtoa_r+0xb56>
 8005a9e:	461a      	mov	r2, r3
 8005aa0:	4601      	mov	r1, r0
 8005aa2:	4648      	mov	r0, r9
 8005aa4:	f000 fcee 	bl	8006484 <__pow5mult>
 8005aa8:	9b07      	ldr	r3, [sp, #28]
 8005aaa:	2b01      	cmp	r3, #1
 8005aac:	4604      	mov	r4, r0
 8005aae:	f300 809f 	bgt.w	8005bf0 <_dtoa_r+0x8f8>
 8005ab2:	9b04      	ldr	r3, [sp, #16]
 8005ab4:	2b00      	cmp	r3, #0
 8005ab6:	f040 8097 	bne.w	8005be8 <_dtoa_r+0x8f0>
 8005aba:	9b05      	ldr	r3, [sp, #20]
 8005abc:	f3c3 0313 	ubfx	r3, r3, #0, #20
 8005ac0:	2b00      	cmp	r3, #0
 8005ac2:	f040 8093 	bne.w	8005bec <_dtoa_r+0x8f4>
 8005ac6:	9b05      	ldr	r3, [sp, #20]
 8005ac8:	f023 4300 	bic.w	r3, r3, #2147483648	@ 0x80000000
 8005acc:	0d1b      	lsrs	r3, r3, #20
 8005ace:	051b      	lsls	r3, r3, #20
 8005ad0:	b133      	cbz	r3, 8005ae0 <_dtoa_r+0x7e8>
 8005ad2:	9b00      	ldr	r3, [sp, #0]
 8005ad4:	3301      	adds	r3, #1
 8005ad6:	9300      	str	r3, [sp, #0]
 8005ad8:	9b06      	ldr	r3, [sp, #24]
 8005ada:	3301      	adds	r3, #1
 8005adc:	9306      	str	r3, [sp, #24]
 8005ade:	2301      	movs	r3, #1
 8005ae0:	9308      	str	r3, [sp, #32]
 8005ae2:	9b0d      	ldr	r3, [sp, #52]	@ 0x34
 8005ae4:	2b00      	cmp	r3, #0
 8005ae6:	f000 81b8 	beq.w	8005e5a <_dtoa_r+0xb62>
 8005aea:	6923      	ldr	r3, [r4, #16]
 8005aec:	eb04 0383 	add.w	r3, r4, r3, lsl #2
 8005af0:	6918      	ldr	r0, [r3, #16]
 8005af2:	f000 fbc3 	bl	800627c <__hi0bits>
 8005af6:	f1c0 0020 	rsb	r0, r0, #32
 8005afa:	9b06      	ldr	r3, [sp, #24]
 8005afc:	4418      	add	r0, r3
 8005afe:	f010 001f 	ands.w	r0, r0, #31
 8005b02:	f000 8082 	beq.w	8005c0a <_dtoa_r+0x912>
 8005b06:	f1c0 0320 	rsb	r3, r0, #32
 8005b0a:	2b04      	cmp	r3, #4
 8005b0c:	dd73      	ble.n	8005bf6 <_dtoa_r+0x8fe>
 8005b0e:	9b00      	ldr	r3, [sp, #0]
 8005b10:	f1c0 001c 	rsb	r0, r0, #28
 8005b14:	4403      	add	r3, r0
 8005b16:	9300      	str	r3, [sp, #0]
 8005b18:	9b06      	ldr	r3, [sp, #24]
 8005b1a:	4403      	add	r3, r0
 8005b1c:	4406      	add	r6, r0
 8005b1e:	9306      	str	r3, [sp, #24]
 8005b20:	9b00      	ldr	r3, [sp, #0]
 8005b22:	2b00      	cmp	r3, #0
 8005b24:	dd05      	ble.n	8005b32 <_dtoa_r+0x83a>
 8005b26:	9902      	ldr	r1, [sp, #8]
 8005b28:	461a      	mov	r2, r3
 8005b2a:	4648      	mov	r0, r9
 8005b2c:	f000 fd04 	bl	8006538 <__lshift>
 8005b30:	9002      	str	r0, [sp, #8]
 8005b32:	9b06      	ldr	r3, [sp, #24]
 8005b34:	2b00      	cmp	r3, #0
 8005b36:	dd05      	ble.n	8005b44 <_dtoa_r+0x84c>
 8005b38:	4621      	mov	r1, r4
 8005b3a:	461a      	mov	r2, r3
 8005b3c:	4648      	mov	r0, r9
 8005b3e:	f000 fcfb 	bl	8006538 <__lshift>
 8005b42:	4604      	mov	r4, r0
 8005b44:	9b10      	ldr	r3, [sp, #64]	@ 0x40
 8005b46:	2b00      	cmp	r3, #0
 8005b48:	d061      	beq.n	8005c0e <_dtoa_r+0x916>
 8005b4a:	9802      	ldr	r0, [sp, #8]
 8005b4c:	4621      	mov	r1, r4
 8005b4e:	f000 fd5f 	bl	8006610 <__mcmp>
 8005b52:	2800      	cmp	r0, #0
 8005b54:	da5b      	bge.n	8005c0e <_dtoa_r+0x916>
 8005b56:	2300      	movs	r3, #0
 8005b58:	9902      	ldr	r1, [sp, #8]
 8005b5a:	220a      	movs	r2, #10
 8005b5c:	4648      	mov	r0, r9
 8005b5e:	f000 fafd 	bl	800615c <__multadd>
 8005b62:	9b09      	ldr	r3, [sp, #36]	@ 0x24
 8005b64:	9002      	str	r0, [sp, #8]
 8005b66:	f107 38ff 	add.w	r8, r7, #4294967295
 8005b6a:	2b00      	cmp	r3, #0
 8005b6c:	f000 8177 	beq.w	8005e5e <_dtoa_r+0xb66>
 8005b70:	4629      	mov	r1, r5
 8005b72:	2300      	movs	r3, #0
 8005b74:	220a      	movs	r2, #10
 8005b76:	4648      	mov	r0, r9
 8005b78:	f000 faf0 	bl	800615c <__multadd>
 8005b7c:	f1bb 0f00 	cmp.w	fp, #0
 8005b80:	4605      	mov	r5, r0
 8005b82:	dc6f      	bgt.n	8005c64 <_dtoa_r+0x96c>
 8005b84:	9b07      	ldr	r3, [sp, #28]
 8005b86:	2b02      	cmp	r3, #2
 8005b88:	dc49      	bgt.n	8005c1e <_dtoa_r+0x926>
 8005b8a:	e06b      	b.n	8005c64 <_dtoa_r+0x96c>
 8005b8c:	9b14      	ldr	r3, [sp, #80]	@ 0x50
 8005b8e:	f1c3 0336 	rsb	r3, r3, #54	@ 0x36
 8005b92:	e73c      	b.n	8005a0e <_dtoa_r+0x716>
 8005b94:	3fe00000 	.word	0x3fe00000
 8005b98:	40240000 	.word	0x40240000
 8005b9c:	9b03      	ldr	r3, [sp, #12]
 8005b9e:	1e5c      	subs	r4, r3, #1
 8005ba0:	9b08      	ldr	r3, [sp, #32]
 8005ba2:	42a3      	cmp	r3, r4
 8005ba4:	db09      	blt.n	8005bba <_dtoa_r+0x8c2>
 8005ba6:	1b1c      	subs	r4, r3, r4
 8005ba8:	9b03      	ldr	r3, [sp, #12]
 8005baa:	2b00      	cmp	r3, #0
 8005bac:	f6bf af30 	bge.w	8005a10 <_dtoa_r+0x718>
 8005bb0:	9b00      	ldr	r3, [sp, #0]
 8005bb2:	9a03      	ldr	r2, [sp, #12]
 8005bb4:	1a9e      	subs	r6, r3, r2
 8005bb6:	2300      	movs	r3, #0
 8005bb8:	e72b      	b.n	8005a12 <_dtoa_r+0x71a>
 8005bba:	9b08      	ldr	r3, [sp, #32]
 8005bbc:	9a0d      	ldr	r2, [sp, #52]	@ 0x34
 8005bbe:	9408      	str	r4, [sp, #32]
 8005bc0:	1ae3      	subs	r3, r4, r3
 8005bc2:	441a      	add	r2, r3
 8005bc4:	9e00      	ldr	r6, [sp, #0]
 8005bc6:	9b03      	ldr	r3, [sp, #12]
 8005bc8:	920d      	str	r2, [sp, #52]	@ 0x34
 8005bca:	2400      	movs	r4, #0
 8005bcc:	e721      	b.n	8005a12 <_dtoa_r+0x71a>
 8005bce:	9c08      	ldr	r4, [sp, #32]
 8005bd0:	9e00      	ldr	r6, [sp, #0]
 8005bd2:	9d09      	ldr	r5, [sp, #36]	@ 0x24
 8005bd4:	e728      	b.n	8005a28 <_dtoa_r+0x730>
 8005bd6:	f8dd 8008 	ldr.w	r8, [sp, #8]
 8005bda:	e751      	b.n	8005a80 <_dtoa_r+0x788>
 8005bdc:	9a08      	ldr	r2, [sp, #32]
 8005bde:	9902      	ldr	r1, [sp, #8]
 8005be0:	e750      	b.n	8005a84 <_dtoa_r+0x78c>
 8005be2:	f8cd 8008 	str.w	r8, [sp, #8]
 8005be6:	e751      	b.n	8005a8c <_dtoa_r+0x794>
 8005be8:	2300      	movs	r3, #0
 8005bea:	e779      	b.n	8005ae0 <_dtoa_r+0x7e8>
 8005bec:	9b04      	ldr	r3, [sp, #16]
 8005bee:	e777      	b.n	8005ae0 <_dtoa_r+0x7e8>
 8005bf0:	2300      	movs	r3, #0
 8005bf2:	9308      	str	r3, [sp, #32]
 8005bf4:	e779      	b.n	8005aea <_dtoa_r+0x7f2>
 8005bf6:	d093      	beq.n	8005b20 <_dtoa_r+0x828>
 8005bf8:	9a00      	ldr	r2, [sp, #0]
 8005bfa:	331c      	adds	r3, #28
 8005bfc:	441a      	add	r2, r3
 8005bfe:	9200      	str	r2, [sp, #0]
 8005c00:	9a06      	ldr	r2, [sp, #24]
 8005c02:	441a      	add	r2, r3
 8005c04:	441e      	add	r6, r3
 8005c06:	9206      	str	r2, [sp, #24]
 8005c08:	e78a      	b.n	8005b20 <_dtoa_r+0x828>
 8005c0a:	4603      	mov	r3, r0
 8005c0c:	e7f4      	b.n	8005bf8 <_dtoa_r+0x900>
 8005c0e:	9b03      	ldr	r3, [sp, #12]
 8005c10:	2b00      	cmp	r3, #0
 8005c12:	46b8      	mov	r8, r7
 8005c14:	dc20      	bgt.n	8005c58 <_dtoa_r+0x960>
 8005c16:	469b      	mov	fp, r3
 8005c18:	9b07      	ldr	r3, [sp, #28]
 8005c1a:	2b02      	cmp	r3, #2
 8005c1c:	dd1e      	ble.n	8005c5c <_dtoa_r+0x964>
 8005c1e:	f1bb 0f00 	cmp.w	fp, #0
 8005c22:	f47f adb1 	bne.w	8005788 <_dtoa_r+0x490>
 8005c26:	4621      	mov	r1, r4
 8005c28:	465b      	mov	r3, fp
 8005c2a:	2205      	movs	r2, #5
 8005c2c:	4648      	mov	r0, r9
 8005c2e:	f000 fa95 	bl	800615c <__multadd>
 8005c32:	4601      	mov	r1, r0
 8005c34:	4604      	mov	r4, r0
 8005c36:	9802      	ldr	r0, [sp, #8]
 8005c38:	f000 fcea 	bl	8006610 <__mcmp>
 8005c3c:	2800      	cmp	r0, #0
 8005c3e:	f77f ada3 	ble.w	8005788 <_dtoa_r+0x490>
 8005c42:	4656      	mov	r6, sl
 8005c44:	2331      	movs	r3, #49	@ 0x31
 8005c46:	f806 3b01 	strb.w	r3, [r6], #1
 8005c4a:	f108 0801 	add.w	r8, r8, #1
 8005c4e:	e59f      	b.n	8005790 <_dtoa_r+0x498>
 8005c50:	9c03      	ldr	r4, [sp, #12]
 8005c52:	46b8      	mov	r8, r7
 8005c54:	4625      	mov	r5, r4
 8005c56:	e7f4      	b.n	8005c42 <_dtoa_r+0x94a>
 8005c58:	f8dd b00c 	ldr.w	fp, [sp, #12]
 8005c5c:	9b09      	ldr	r3, [sp, #36]	@ 0x24
 8005c5e:	2b00      	cmp	r3, #0
 8005c60:	f000 8101 	beq.w	8005e66 <_dtoa_r+0xb6e>
 8005c64:	2e00      	cmp	r6, #0
 8005c66:	dd05      	ble.n	8005c74 <_dtoa_r+0x97c>
 8005c68:	4629      	mov	r1, r5
 8005c6a:	4632      	mov	r2, r6
 8005c6c:	4648      	mov	r0, r9
 8005c6e:	f000 fc63 	bl	8006538 <__lshift>
 8005c72:	4605      	mov	r5, r0
 8005c74:	9b08      	ldr	r3, [sp, #32]
 8005c76:	2b00      	cmp	r3, #0
 8005c78:	d05c      	beq.n	8005d34 <_dtoa_r+0xa3c>
 8005c7a:	6869      	ldr	r1, [r5, #4]
 8005c7c:	4648      	mov	r0, r9
 8005c7e:	f000 fa0b 	bl	8006098 <_Balloc>
 8005c82:	4606      	mov	r6, r0
 8005c84:	b928      	cbnz	r0, 8005c92 <_dtoa_r+0x99a>
 8005c86:	4b82      	ldr	r3, [pc, #520]	@ (8005e90 <_dtoa_r+0xb98>)
 8005c88:	4602      	mov	r2, r0
 8005c8a:	f240 21ef 	movw	r1, #751	@ 0x2ef
 8005c8e:	f7ff bb4a 	b.w	8005326 <_dtoa_r+0x2e>
 8005c92:	692a      	ldr	r2, [r5, #16]
 8005c94:	3202      	adds	r2, #2
 8005c96:	0092      	lsls	r2, r2, #2
 8005c98:	f105 010c 	add.w	r1, r5, #12
 8005c9c:	300c      	adds	r0, #12
 8005c9e:	f7ff fa8e 	bl	80051be <memcpy>
 8005ca2:	2201      	movs	r2, #1
 8005ca4:	4631      	mov	r1, r6
 8005ca6:	4648      	mov	r0, r9
 8005ca8:	f000 fc46 	bl	8006538 <__lshift>
 8005cac:	f10a 0301 	add.w	r3, sl, #1
 8005cb0:	9300      	str	r3, [sp, #0]
 8005cb2:	eb0a 030b 	add.w	r3, sl, fp
 8005cb6:	9308      	str	r3, [sp, #32]
 8005cb8:	9b04      	ldr	r3, [sp, #16]
 8005cba:	f003 0301 	and.w	r3, r3, #1
 8005cbe:	462f      	mov	r7, r5
 8005cc0:	9306      	str	r3, [sp, #24]
 8005cc2:	4605      	mov	r5, r0
 8005cc4:	9b00      	ldr	r3, [sp, #0]
 8005cc6:	9802      	ldr	r0, [sp, #8]
 8005cc8:	4621      	mov	r1, r4
 8005cca:	f103 3bff 	add.w	fp, r3, #4294967295
 8005cce:	f7ff fa8b 	bl	80051e8 <quorem>
 8005cd2:	4603      	mov	r3, r0
 8005cd4:	3330      	adds	r3, #48	@ 0x30
 8005cd6:	9003      	str	r0, [sp, #12]
 8005cd8:	4639      	mov	r1, r7
 8005cda:	9802      	ldr	r0, [sp, #8]
 8005cdc:	9309      	str	r3, [sp, #36]	@ 0x24
 8005cde:	f000 fc97 	bl	8006610 <__mcmp>
 8005ce2:	462a      	mov	r2, r5
 8005ce4:	9004      	str	r0, [sp, #16]
 8005ce6:	4621      	mov	r1, r4
 8005ce8:	4648      	mov	r0, r9
 8005cea:	f000 fcad 	bl	8006648 <__mdiff>
 8005cee:	68c2      	ldr	r2, [r0, #12]
 8005cf0:	9b09      	ldr	r3, [sp, #36]	@ 0x24
 8005cf2:	4606      	mov	r6, r0
 8005cf4:	bb02      	cbnz	r2, 8005d38 <_dtoa_r+0xa40>
 8005cf6:	4601      	mov	r1, r0
 8005cf8:	9802      	ldr	r0, [sp, #8]
 8005cfa:	f000 fc89 	bl	8006610 <__mcmp>
 8005cfe:	9b09      	ldr	r3, [sp, #36]	@ 0x24
 8005d00:	4602      	mov	r2, r0
 8005d02:	4631      	mov	r1, r6
 8005d04:	4648      	mov	r0, r9
 8005d06:	920c      	str	r2, [sp, #48]	@ 0x30
 8005d08:	9309      	str	r3, [sp, #36]	@ 0x24
 8005d0a:	f000 fa05 	bl	8006118 <_Bfree>
 8005d0e:	9b07      	ldr	r3, [sp, #28]
 8005d10:	9a0c      	ldr	r2, [sp, #48]	@ 0x30
 8005d12:	9e00      	ldr	r6, [sp, #0]
 8005d14:	ea42 0103 	orr.w	r1, r2, r3
 8005d18:	9b06      	ldr	r3, [sp, #24]
 8005d1a:	4319      	orrs	r1, r3
 8005d1c:	9b09      	ldr	r3, [sp, #36]	@ 0x24
 8005d1e:	d10d      	bne.n	8005d3c <_dtoa_r+0xa44>
 8005d20:	2b39      	cmp	r3, #57	@ 0x39
 8005d22:	d027      	beq.n	8005d74 <_dtoa_r+0xa7c>
 8005d24:	9a04      	ldr	r2, [sp, #16]
 8005d26:	2a00      	cmp	r2, #0
 8005d28:	dd01      	ble.n	8005d2e <_dtoa_r+0xa36>
 8005d2a:	9b03      	ldr	r3, [sp, #12]
 8005d2c:	3331      	adds	r3, #49	@ 0x31
 8005d2e:	f88b 3000 	strb.w	r3, [fp]
 8005d32:	e52e      	b.n	8005792 <_dtoa_r+0x49a>
 8005d34:	4628      	mov	r0, r5
 8005d36:	e7b9      	b.n	8005cac <_dtoa_r+0x9b4>
 8005d38:	2201      	movs	r2, #1
 8005d3a:	e7e2      	b.n	8005d02 <_dtoa_r+0xa0a>
 8005d3c:	9904      	ldr	r1, [sp, #16]
 8005d3e:	2900      	cmp	r1, #0
 8005d40:	db04      	blt.n	8005d4c <_dtoa_r+0xa54>
 8005d42:	9807      	ldr	r0, [sp, #28]
 8005d44:	4301      	orrs	r1, r0
 8005d46:	9806      	ldr	r0, [sp, #24]
 8005d48:	4301      	orrs	r1, r0
 8005d4a:	d120      	bne.n	8005d8e <_dtoa_r+0xa96>
 8005d4c:	2a00      	cmp	r2, #0
 8005d4e:	ddee      	ble.n	8005d2e <_dtoa_r+0xa36>
 8005d50:	9902      	ldr	r1, [sp, #8]
 8005d52:	9300      	str	r3, [sp, #0]
 8005d54:	2201      	movs	r2, #1
 8005d56:	4648      	mov	r0, r9
 8005d58:	f000 fbee 	bl	8006538 <__lshift>
 8005d5c:	4621      	mov	r1, r4
 8005d5e:	9002      	str	r0, [sp, #8]
 8005d60:	f000 fc56 	bl	8006610 <__mcmp>
 8005d64:	2800      	cmp	r0, #0
 8005d66:	9b00      	ldr	r3, [sp, #0]
 8005d68:	dc02      	bgt.n	8005d70 <_dtoa_r+0xa78>
 8005d6a:	d1e0      	bne.n	8005d2e <_dtoa_r+0xa36>
 8005d6c:	07da      	lsls	r2, r3, #31
 8005d6e:	d5de      	bpl.n	8005d2e <_dtoa_r+0xa36>
 8005d70:	2b39      	cmp	r3, #57	@ 0x39
 8005d72:	d1da      	bne.n	8005d2a <_dtoa_r+0xa32>
 8005d74:	2339      	movs	r3, #57	@ 0x39
 8005d76:	f88b 3000 	strb.w	r3, [fp]
 8005d7a:	4633      	mov	r3, r6
 8005d7c:	461e      	mov	r6, r3
 8005d7e:	3b01      	subs	r3, #1
 8005d80:	f816 2c01 	ldrb.w	r2, [r6, #-1]
 8005d84:	2a39      	cmp	r2, #57	@ 0x39
 8005d86:	d04e      	beq.n	8005e26 <_dtoa_r+0xb2e>
 8005d88:	3201      	adds	r2, #1
 8005d8a:	701a      	strb	r2, [r3, #0]
 8005d8c:	e501      	b.n	8005792 <_dtoa_r+0x49a>
 8005d8e:	2a00      	cmp	r2, #0
 8005d90:	dd03      	ble.n	8005d9a <_dtoa_r+0xaa2>
 8005d92:	2b39      	cmp	r3, #57	@ 0x39
 8005d94:	d0ee      	beq.n	8005d74 <_dtoa_r+0xa7c>
 8005d96:	3301      	adds	r3, #1
 8005d98:	e7c9      	b.n	8005d2e <_dtoa_r+0xa36>
 8005d9a:	9a00      	ldr	r2, [sp, #0]
 8005d9c:	9908      	ldr	r1, [sp, #32]
 8005d9e:	f802 3c01 	strb.w	r3, [r2, #-1]
 8005da2:	428a      	cmp	r2, r1
 8005da4:	d028      	beq.n	8005df8 <_dtoa_r+0xb00>
 8005da6:	9902      	ldr	r1, [sp, #8]
 8005da8:	2300      	movs	r3, #0
 8005daa:	220a      	movs	r2, #10
 8005dac:	4648      	mov	r0, r9
 8005dae:	f000 f9d5 	bl	800615c <__multadd>
 8005db2:	42af      	cmp	r7, r5
 8005db4:	9002      	str	r0, [sp, #8]
 8005db6:	f04f 0300 	mov.w	r3, #0
 8005dba:	f04f 020a 	mov.w	r2, #10
 8005dbe:	4639      	mov	r1, r7
 8005dc0:	4648      	mov	r0, r9
 8005dc2:	d107      	bne.n	8005dd4 <_dtoa_r+0xadc>
 8005dc4:	f000 f9ca 	bl	800615c <__multadd>
 8005dc8:	4607      	mov	r7, r0
 8005dca:	4605      	mov	r5, r0
 8005dcc:	9b00      	ldr	r3, [sp, #0]
 8005dce:	3301      	adds	r3, #1
 8005dd0:	9300      	str	r3, [sp, #0]
 8005dd2:	e777      	b.n	8005cc4 <_dtoa_r+0x9cc>
 8005dd4:	f000 f9c2 	bl	800615c <__multadd>
 8005dd8:	4629      	mov	r1, r5
 8005dda:	4607      	mov	r7, r0
 8005ddc:	2300      	movs	r3, #0
 8005dde:	220a      	movs	r2, #10
 8005de0:	4648      	mov	r0, r9
 8005de2:	f000 f9bb 	bl	800615c <__multadd>
 8005de6:	4605      	mov	r5, r0
 8005de8:	e7f0      	b.n	8005dcc <_dtoa_r+0xad4>
 8005dea:	f1bb 0f00 	cmp.w	fp, #0
 8005dee:	bfcc      	ite	gt
 8005df0:	465e      	movgt	r6, fp
 8005df2:	2601      	movle	r6, #1
 8005df4:	4456      	add	r6, sl
 8005df6:	2700      	movs	r7, #0
 8005df8:	9902      	ldr	r1, [sp, #8]
 8005dfa:	9300      	str	r3, [sp, #0]
 8005dfc:	2201      	movs	r2, #1
 8005dfe:	4648      	mov	r0, r9
 8005e00:	f000 fb9a 	bl	8006538 <__lshift>
 8005e04:	4621      	mov	r1, r4
 8005e06:	9002      	str	r0, [sp, #8]
 8005e08:	f000 fc02 	bl	8006610 <__mcmp>
 8005e0c:	2800      	cmp	r0, #0
 8005e0e:	dcb4      	bgt.n	8005d7a <_dtoa_r+0xa82>
 8005e10:	d102      	bne.n	8005e18 <_dtoa_r+0xb20>
 8005e12:	9b00      	ldr	r3, [sp, #0]
 8005e14:	07db      	lsls	r3, r3, #31
 8005e16:	d4b0      	bmi.n	8005d7a <_dtoa_r+0xa82>
 8005e18:	4633      	mov	r3, r6
 8005e1a:	461e      	mov	r6, r3
 8005e1c:	f813 2d01 	ldrb.w	r2, [r3, #-1]!
 8005e20:	2a30      	cmp	r2, #48	@ 0x30
 8005e22:	d0fa      	beq.n	8005e1a <_dtoa_r+0xb22>
 8005e24:	e4b5      	b.n	8005792 <_dtoa_r+0x49a>
 8005e26:	459a      	cmp	sl, r3
 8005e28:	d1a8      	bne.n	8005d7c <_dtoa_r+0xa84>
 8005e2a:	2331      	movs	r3, #49	@ 0x31
 8005e2c:	f108 0801 	add.w	r8, r8, #1
 8005e30:	f88a 3000 	strb.w	r3, [sl]
 8005e34:	e4ad      	b.n	8005792 <_dtoa_r+0x49a>
 8005e36:	9b21      	ldr	r3, [sp, #132]	@ 0x84
 8005e38:	f8df a058 	ldr.w	sl, [pc, #88]	@ 8005e94 <_dtoa_r+0xb9c>
 8005e3c:	b11b      	cbz	r3, 8005e46 <_dtoa_r+0xb4e>
 8005e3e:	f10a 0308 	add.w	r3, sl, #8
 8005e42:	9a21      	ldr	r2, [sp, #132]	@ 0x84
 8005e44:	6013      	str	r3, [r2, #0]
 8005e46:	4650      	mov	r0, sl
 8005e48:	b017      	add	sp, #92	@ 0x5c
 8005e4a:	e8bd 8ff0 	ldmia.w	sp!, {r4, r5, r6, r7, r8, r9, sl, fp, pc}
 8005e4e:	9b07      	ldr	r3, [sp, #28]
 8005e50:	2b01      	cmp	r3, #1
 8005e52:	f77f ae2e 	ble.w	8005ab2 <_dtoa_r+0x7ba>
 8005e56:	9b0d      	ldr	r3, [sp, #52]	@ 0x34
 8005e58:	9308      	str	r3, [sp, #32]
 8005e5a:	2001      	movs	r0, #1
 8005e5c:	e64d      	b.n	8005afa <_dtoa_r+0x802>
 8005e5e:	f1bb 0f00 	cmp.w	fp, #0
 8005e62:	f77f aed9 	ble.w	8005c18 <_dtoa_r+0x920>
 8005e66:	4656      	mov	r6, sl
 8005e68:	9802      	ldr	r0, [sp, #8]
 8005e6a:	4621      	mov	r1, r4
 8005e6c:	f7ff f9bc 	bl	80051e8 <quorem>
 8005e70:	f100 0330 	add.w	r3, r0, #48	@ 0x30
 8005e74:	f806 3b01 	strb.w	r3, [r6], #1
 8005e78:	eba6 020a 	sub.w	r2, r6, sl
 8005e7c:	4593      	cmp	fp, r2
 8005e7e:	ddb4      	ble.n	8005dea <_dtoa_r+0xaf2>
 8005e80:	9902      	ldr	r1, [sp, #8]
 8005e82:	2300      	movs	r3, #0
 8005e84:	220a      	movs	r2, #10
 8005e86:	4648      	mov	r0, r9
 8005e88:	f000 f968 	bl	800615c <__multadd>
 8005e8c:	9002      	str	r0, [sp, #8]
 8005e8e:	e7eb      	b.n	8005e68 <_dtoa_r+0xb70>
 8005e90:	08008979 	.word	0x08008979
 8005e94:	080088fd 	.word	0x080088fd

08005e98 <_free_r>:
 8005e98:	b538      	push	{r3, r4, r5, lr}
 8005e9a:	4605      	mov	r5, r0
 8005e9c:	2900      	cmp	r1, #0
 8005e9e:	d041      	beq.n	8005f24 <_free_r+0x8c>
 8005ea0:	f851 3c04 	ldr.w	r3, [r1, #-4]
 8005ea4:	1f0c      	subs	r4, r1, #4
 8005ea6:	2b00      	cmp	r3, #0
 8005ea8:	bfb8      	it	lt
 8005eaa:	18e4      	addlt	r4, r4, r3
 8005eac:	f000 f8e8 	bl	8006080 <__malloc_lock>
 8005eb0:	4a1d      	ldr	r2, [pc, #116]	@ (8005f28 <_free_r+0x90>)
 8005eb2:	6813      	ldr	r3, [r2, #0]
 8005eb4:	b933      	cbnz	r3, 8005ec4 <_free_r+0x2c>
 8005eb6:	6063      	str	r3, [r4, #4]
 8005eb8:	6014      	str	r4, [r2, #0]
 8005eba:	4628      	mov	r0, r5
 8005ebc:	e8bd 4038 	ldmia.w	sp!, {r3, r4, r5, lr}
 8005ec0:	f000 b8e4 	b.w	800608c <__malloc_unlock>
 8005ec4:	42a3      	cmp	r3, r4
 8005ec6:	d908      	bls.n	8005eda <_free_r+0x42>
 8005ec8:	6820      	ldr	r0, [r4, #0]
 8005eca:	1821      	adds	r1, r4, r0
 8005ecc:	428b      	cmp	r3, r1
 8005ece:	bf01      	itttt	eq
 8005ed0:	6819      	ldreq	r1, [r3, #0]
 8005ed2:	685b      	ldreq	r3, [r3, #4]
 8005ed4:	1809      	addeq	r1, r1, r0
 8005ed6:	6021      	streq	r1, [r4, #0]
 8005ed8:	e7ed      	b.n	8005eb6 <_free_r+0x1e>
 8005eda:	461a      	mov	r2, r3
 8005edc:	685b      	ldr	r3, [r3, #4]
 8005ede:	b10b      	cbz	r3, 8005ee4 <_free_r+0x4c>
 8005ee0:	42a3      	cmp	r3, r4
 8005ee2:	d9fa      	bls.n	8005eda <_free_r+0x42>
 8005ee4:	6811      	ldr	r1, [r2, #0]
 8005ee6:	1850      	adds	r0, r2, r1
 8005ee8:	42a0      	cmp	r0, r4
 8005eea:	d10b      	bne.n	8005f04 <_free_r+0x6c>
 8005eec:	6820      	ldr	r0, [r4, #0]
 8005eee:	4401      	add	r1, r0
 8005ef0:	1850      	adds	r0, r2, r1
 8005ef2:	4283      	cmp	r3, r0
 8005ef4:	6011      	str	r1, [r2, #0]
 8005ef6:	d1e0      	bne.n	8005eba <_free_r+0x22>
 8005ef8:	6818      	ldr	r0, [r3, #0]
 8005efa:	685b      	ldr	r3, [r3, #4]
 8005efc:	6053      	str	r3, [r2, #4]
 8005efe:	4408      	add	r0, r1
 8005f00:	6010      	str	r0, [r2, #0]
 8005f02:	e7da      	b.n	8005eba <_free_r+0x22>
 8005f04:	d902      	bls.n	8005f0c <_free_r+0x74>
 8005f06:	230c      	movs	r3, #12
 8005f08:	602b      	str	r3, [r5, #0]
 8005f0a:	e7d6      	b.n	8005eba <_free_r+0x22>
 8005f0c:	6820      	ldr	r0, [r4, #0]
 8005f0e:	1821      	adds	r1, r4, r0
 8005f10:	428b      	cmp	r3, r1
 8005f12:	bf04      	itt	eq
 8005f14:	6819      	ldreq	r1, [r3, #0]
 8005f16:	685b      	ldreq	r3, [r3, #4]
 8005f18:	6063      	str	r3, [r4, #4]
 8005f1a:	bf04      	itt	eq
 8005f1c:	1809      	addeq	r1, r1, r0
 8005f1e:	6021      	streq	r1, [r4, #0]
 8005f20:	6054      	str	r4, [r2, #4]
 8005f22:	e7ca      	b.n	8005eba <_free_r+0x22>
 8005f24:	bd38      	pop	{r3, r4, r5, pc}
 8005f26:	bf00      	nop
 8005f28:	20004e00 	.word	0x20004e00

08005f2c <malloc>:
 8005f2c:	4b02      	ldr	r3, [pc, #8]	@ (8005f38 <malloc+0xc>)
 8005f2e:	4601      	mov	r1, r0
 8005f30:	6818      	ldr	r0, [r3, #0]
 8005f32:	f000 b825 	b.w	8005f80 <_malloc_r>
 8005f36:	bf00      	nop
 8005f38:	2000001c 	.word	0x2000001c

08005f3c <sbrk_aligned>:
 8005f3c:	b570      	push	{r4, r5, r6, lr}
 8005f3e:	4e0f      	ldr	r6, [pc, #60]	@ (8005f7c <sbrk_aligned+0x40>)
 8005f40:	460c      	mov	r4, r1
 8005f42:	6831      	ldr	r1, [r6, #0]
 8005f44:	4605      	mov	r5, r0
 8005f46:	b911      	cbnz	r1, 8005f4e <sbrk_aligned+0x12>
 8005f48:	f001 fe04 	bl	8007b54 <_sbrk_r>
 8005f4c:	6030      	str	r0, [r6, #0]
 8005f4e:	4621      	mov	r1, r4
 8005f50:	4628      	mov	r0, r5
 8005f52:	f001 fdff 	bl	8007b54 <_sbrk_r>
 8005f56:	1c43      	adds	r3, r0, #1
 8005f58:	d103      	bne.n	8005f62 <sbrk_aligned+0x26>
 8005f5a:	f04f 34ff 	mov.w	r4, #4294967295
 8005f5e:	4620      	mov	r0, r4
 8005f60:	bd70      	pop	{r4, r5, r6, pc}
 8005f62:	1cc4      	adds	r4, r0, #3
 8005f64:	f024 0403 	bic.w	r4, r4, #3
 8005f68:	42a0      	cmp	r0, r4
 8005f6a:	d0f8      	beq.n	8005f5e <sbrk_aligned+0x22>
 8005f6c:	1a21      	subs	r1, r4, r0
 8005f6e:	4628      	mov	r0, r5
 8005f70:	f001 fdf0 	bl	8007b54 <_sbrk_r>
 8005f74:	3001      	adds	r0, #1
 8005f76:	d1f2      	bne.n	8005f5e <sbrk_aligned+0x22>
 8005f78:	e7ef      	b.n	8005f5a <sbrk_aligned+0x1e>
 8005f7a:	bf00      	nop
 8005f7c:	20004dfc 	.word	0x20004dfc

08005f80 <_malloc_r>:
 8005f80:	e92d 43f8 	stmdb	sp!, {r3, r4, r5, r6, r7, r8, r9, lr}
 8005f84:	1ccd      	adds	r5, r1, #3
 8005f86:	f025 0503 	bic.w	r5, r5, #3
 8005f8a:	3508      	adds	r5, #8
 8005f8c:	2d0c      	cmp	r5, #12
 8005f8e:	bf38      	it	cc
 8005f90:	250c      	movcc	r5, #12
 8005f92:	2d00      	cmp	r5, #0
 8005f94:	4606      	mov	r6, r0
 8005f96:	db01      	blt.n	8005f9c <_malloc_r+0x1c>
 8005f98:	42a9      	cmp	r1, r5
 8005f9a:	d904      	bls.n	8005fa6 <_malloc_r+0x26>
 8005f9c:	230c      	movs	r3, #12
 8005f9e:	6033      	str	r3, [r6, #0]
 8005fa0:	2000      	movs	r0, #0
 8005fa2:	e8bd 83f8 	ldmia.w	sp!, {r3, r4, r5, r6, r7, r8, r9, pc}
 8005fa6:	f8df 80d4 	ldr.w	r8, [pc, #212]	@ 800607c <_malloc_r+0xfc>
 8005faa:	f000 f869 	bl	8006080 <__malloc_lock>
 8005fae:	f8d8 3000 	ldr.w	r3, [r8]
 8005fb2:	461c      	mov	r4, r3
 8005fb4:	bb44      	cbnz	r4, 8006008 <_malloc_r+0x88>
 8005fb6:	4629      	mov	r1, r5
 8005fb8:	4630      	mov	r0, r6
 8005fba:	f7ff ffbf 	bl	8005f3c <sbrk_aligned>
 8005fbe:	1c43      	adds	r3, r0, #1
 8005fc0:	4604      	mov	r4, r0
 8005fc2:	d158      	bne.n	8006076 <_malloc_r+0xf6>
 8005fc4:	f8d8 4000 	ldr.w	r4, [r8]
 8005fc8:	4627      	mov	r7, r4
 8005fca:	2f00      	cmp	r7, #0
 8005fcc:	d143      	bne.n	8006056 <_malloc_r+0xd6>
 8005fce:	2c00      	cmp	r4, #0
 8005fd0:	d04b      	beq.n	800606a <_malloc_r+0xea>
 8005fd2:	6823      	ldr	r3, [r4, #0]
 8005fd4:	4639      	mov	r1, r7
 8005fd6:	4630      	mov	r0, r6
 8005fd8:	eb04 0903 	add.w	r9, r4, r3
 8005fdc:	f001 fdba 	bl	8007b54 <_sbrk_r>
 8005fe0:	4581      	cmp	r9, r0
 8005fe2:	d142      	bne.n	800606a <_malloc_r+0xea>
 8005fe4:	6821      	ldr	r1, [r4, #0]
 8005fe6:	1a6d      	subs	r5, r5, r1
 8005fe8:	4629      	mov	r1, r5
 8005fea:	4630      	mov	r0, r6
 8005fec:	f7ff ffa6 	bl	8005f3c <sbrk_aligned>
 8005ff0:	3001      	adds	r0, #1
 8005ff2:	d03a      	beq.n	800606a <_malloc_r+0xea>
 8005ff4:	6823      	ldr	r3, [r4, #0]
 8005ff6:	442b      	add	r3, r5
 8005ff8:	6023      	str	r3, [r4, #0]
 8005ffa:	f8d8 3000 	ldr.w	r3, [r8]
 8005ffe:	685a      	ldr	r2, [r3, #4]
 8006000:	bb62      	cbnz	r2, 800605c <_malloc_r+0xdc>
 8006002:	f8c8 7000 	str.w	r7, [r8]
 8006006:	e00f      	b.n	8006028 <_malloc_r+0xa8>
 8006008:	6822      	ldr	r2, [r4, #0]
 800600a:	1b52      	subs	r2, r2, r5
 800600c:	d420      	bmi.n	8006050 <_malloc_r+0xd0>
 800600e:	2a0b      	cmp	r2, #11
 8006010:	d917      	bls.n	8006042 <_malloc_r+0xc2>
 8006012:	1961      	adds	r1, r4, r5
 8006014:	42a3      	cmp	r3, r4
 8006016:	6025      	str	r5, [r4, #0]
 8006018:	bf18      	it	ne
 800601a:	6059      	strne	r1, [r3, #4]
 800601c:	6863      	ldr	r3, [r4, #4]
 800601e:	bf08      	it	eq
 8006020:	f8c8 1000 	streq.w	r1, [r8]
 8006024:	5162      	str	r2, [r4, r5]
 8006026:	604b      	str	r3, [r1, #4]
 8006028:	4630      	mov	r0, r6
 800602a:	f000 f82f 	bl	800608c <__malloc_unlock>
 800602e:	f104 000b 	add.w	r0, r4, #11
 8006032:	1d23      	adds	r3, r4, #4
 8006034:	f020 0007 	bic.w	r0, r0, #7
 8006038:	1ac2      	subs	r2, r0, r3
 800603a:	bf1c      	itt	ne
 800603c:	1a1b      	subne	r3, r3, r0
 800603e:	50a3      	strne	r3, [r4, r2]
 8006040:	e7af      	b.n	8005fa2 <_malloc_r+0x22>
 8006042:	6862      	ldr	r2, [r4, #4]
 8006044:	42a3      	cmp	r3, r4
 8006046:	bf0c      	ite	eq
 8006048:	f8c8 2000 	streq.w	r2, [r8]
 800604c:	605a      	strne	r2, [r3, #4]
 800604e:	e7eb      	b.n	8006028 <_malloc_r+0xa8>
 8006050:	4623      	mov	r3, r4
 8006052:	6864      	ldr	r4, [r4, #4]
 8006054:	e7ae      	b.n	8005fb4 <_malloc_r+0x34>
 8006056:	463c      	mov	r4, r7
 8006058:	687f      	ldr	r7, [r7, #4]
 800605a:	e7b6      	b.n	8005fca <_malloc_r+0x4a>
 800605c:	461a      	mov	r2, r3
 800605e:	685b      	ldr	r3, [r3, #4]
 8006060:	42a3      	cmp	r3, r4
 8006062:	d1fb      	bne.n	800605c <_malloc_r+0xdc>
 8006064:	2300      	movs	r3, #0
 8006066:	6053      	str	r3, [r2, #4]
 8006068:	e7de      	b.n	8006028 <_malloc_r+0xa8>
 800606a:	230c      	movs	r3, #12
 800606c:	6033      	str	r3, [r6, #0]
 800606e:	4630      	mov	r0, r6
 8006070:	f000 f80c 	bl	800608c <__malloc_unlock>
 8006074:	e794      	b.n	8005fa0 <_malloc_r+0x20>
 8006076:	6005      	str	r5, [r0, #0]
 8006078:	e7d6      	b.n	8006028 <_malloc_r+0xa8>
 800607a:	bf00      	nop
 800607c:	20004e00 	.word	0x20004e00

08006080 <__malloc_lock>:
 8006080:	4801      	ldr	r0, [pc, #4]	@ (8006088 <__malloc_lock+0x8>)
 8006082:	f7ff b89a 	b.w	80051ba <__retarget_lock_acquire_recursive>
 8006086:	bf00      	nop
 8006088:	20004df8 	.word	0x20004df8

0800608c <__malloc_unlock>:
 800608c:	4801      	ldr	r0, [pc, #4]	@ (8006094 <__malloc_unlock+0x8>)
 800608e:	f7ff b895 	b.w	80051bc <__retarget_lock_release_recursive>
 8006092:	bf00      	nop
 8006094:	20004df8 	.word	0x20004df8

08006098 <_Balloc>:
 8006098:	b570      	push	{r4, r5, r6, lr}
 800609a:	69c6      	ldr	r6, [r0, #28]
 800609c:	4604      	mov	r4, r0
 800609e:	460d      	mov	r5, r1
 80060a0:	b976      	cbnz	r6, 80060c0 <_Balloc+0x28>
 80060a2:	2010      	movs	r0, #16
 80060a4:	f7ff ff42 	bl	8005f2c <malloc>
 80060a8:	4602      	mov	r2, r0
 80060aa:	61e0      	str	r0, [r4, #28]
 80060ac:	b920      	cbnz	r0, 80060b8 <_Balloc+0x20>
 80060ae:	4b18      	ldr	r3, [pc, #96]	@ (8006110 <_Balloc+0x78>)
 80060b0:	4818      	ldr	r0, [pc, #96]	@ (8006114 <_Balloc+0x7c>)
 80060b2:	216b      	movs	r1, #107	@ 0x6b
 80060b4:	f001 fd68 	bl	8007b88 <__assert_func>
 80060b8:	e9c0 6601 	strd	r6, r6, [r0, #4]
 80060bc:	6006      	str	r6, [r0, #0]
 80060be:	60c6      	str	r6, [r0, #12]
 80060c0:	69e6      	ldr	r6, [r4, #28]
 80060c2:	68f3      	ldr	r3, [r6, #12]
 80060c4:	b183      	cbz	r3, 80060e8 <_Balloc+0x50>
 80060c6:	69e3      	ldr	r3, [r4, #28]
 80060c8:	68db      	ldr	r3, [r3, #12]
 80060ca:	f853 0025 	ldr.w	r0, [r3, r5, lsl #2]
 80060ce:	b9b8      	cbnz	r0, 8006100 <_Balloc+0x68>
 80060d0:	2101      	movs	r1, #1
 80060d2:	fa01 f605 	lsl.w	r6, r1, r5
 80060d6:	1d72      	adds	r2, r6, #5
 80060d8:	0092      	lsls	r2, r2, #2
 80060da:	4620      	mov	r0, r4
 80060dc:	f001 fd72 	bl	8007bc4 <_calloc_r>
 80060e0:	b160      	cbz	r0, 80060fc <_Balloc+0x64>
 80060e2:	e9c0 5601 	strd	r5, r6, [r0, #4]
 80060e6:	e00e      	b.n	8006106 <_Balloc+0x6e>
 80060e8:	2221      	movs	r2, #33	@ 0x21
 80060ea:	2104      	movs	r1, #4
 80060ec:	4620      	mov	r0, r4
 80060ee:	f001 fd69 	bl	8007bc4 <_calloc_r>
 80060f2:	69e3      	ldr	r3, [r4, #28]
 80060f4:	60f0      	str	r0, [r6, #12]
 80060f6:	68db      	ldr	r3, [r3, #12]
 80060f8:	2b00      	cmp	r3, #0
 80060fa:	d1e4      	bne.n	80060c6 <_Balloc+0x2e>
 80060fc:	2000      	movs	r0, #0
 80060fe:	bd70      	pop	{r4, r5, r6, pc}
 8006100:	6802      	ldr	r2, [r0, #0]
 8006102:	f843 2025 	str.w	r2, [r3, r5, lsl #2]
 8006106:	2300      	movs	r3, #0
 8006108:	e9c0 3303 	strd	r3, r3, [r0, #12]
 800610c:	e7f7      	b.n	80060fe <_Balloc+0x66>
 800610e:	bf00      	nop
 8006110:	0800890a 	.word	0x0800890a
 8006114:	0800898a 	.word	0x0800898a

08006118 <_Bfree>:
 8006118:	b570      	push	{r4, r5, r6, lr}
 800611a:	69c6      	ldr	r6, [r0, #28]
 800611c:	4605      	mov	r5, r0
 800611e:	460c      	mov	r4, r1
 8006120:	b976      	cbnz	r6, 8006140 <_Bfree+0x28>
 8006122:	2010      	movs	r0, #16
 8006124:	f7ff ff02 	bl	8005f2c <malloc>
 8006128:	4602      	mov	r2, r0
 800612a:	61e8      	str	r0, [r5, #28]
 800612c:	b920      	cbnz	r0, 8006138 <_Bfree+0x20>
 800612e:	4b09      	ldr	r3, [pc, #36]	@ (8006154 <_Bfree+0x3c>)
 8006130:	4809      	ldr	r0, [pc, #36]	@ (8006158 <_Bfree+0x40>)
 8006132:	218f      	movs	r1, #143	@ 0x8f
 8006134:	f001 fd28 	bl	8007b88 <__assert_func>
 8006138:	e9c0 6601 	strd	r6, r6, [r0, #4]
 800613c:	6006      	str	r6, [r0, #0]
 800613e:	60c6      	str	r6, [r0, #12]
 8006140:	b13c      	cbz	r4, 8006152 <_Bfree+0x3a>
 8006142:	69eb      	ldr	r3, [r5, #28]
 8006144:	6862      	ldr	r2, [r4, #4]
 8006146:	68db      	ldr	r3, [r3, #12]
 8006148:	f853 1022 	ldr.w	r1, [r3, r2, lsl #2]
 800614c:	6021      	str	r1, [r4, #0]
 800614e:	f843 4022 	str.w	r4, [r3, r2, lsl #2]
 8006152:	bd70      	pop	{r4, r5, r6, pc}
 8006154:	0800890a 	.word	0x0800890a
 8006158:	0800898a 	.word	0x0800898a

0800615c <__multadd>:
 800615c:	e92d 41f0 	stmdb	sp!, {r4, r5, r6, r7, r8, lr}
 8006160:	690d      	ldr	r5, [r1, #16]
 8006162:	4607      	mov	r7, r0
 8006164:	460c      	mov	r4, r1
 8006166:	461e      	mov	r6, r3
 8006168:	f101 0c14 	add.w	ip, r1, #20
 800616c:	2000      	movs	r0, #0
 800616e:	f8dc 3000 	ldr.w	r3, [ip]
 8006172:	b299      	uxth	r1, r3
 8006174:	fb02 6101 	mla	r1, r2, r1, r6
 8006178:	0c1e      	lsrs	r6, r3, #16
 800617a:	0c0b      	lsrs	r3, r1, #16
 800617c:	fb02 3306 	mla	r3, r2, r6, r3
 8006180:	b289      	uxth	r1, r1
 8006182:	3001      	adds	r0, #1
 8006184:	eb01 4103 	add.w	r1, r1, r3, lsl #16
 8006188:	4285      	cmp	r5, r0
 800618a:	f84c 1b04 	str.w	r1, [ip], #4
 800618e:	ea4f 4613 	mov.w	r6, r3, lsr #16
 8006192:	dcec      	bgt.n	800616e <__multadd+0x12>
 8006194:	b30e      	cbz	r6, 80061da <__multadd+0x7e>
 8006196:	68a3      	ldr	r3, [r4, #8]
 8006198:	42ab      	cmp	r3, r5
 800619a:	dc19      	bgt.n	80061d0 <__multadd+0x74>
 800619c:	6861      	ldr	r1, [r4, #4]
 800619e:	4638      	mov	r0, r7
 80061a0:	3101      	adds	r1, #1
 80061a2:	f7ff ff79 	bl	8006098 <_Balloc>
 80061a6:	4680      	mov	r8, r0
 80061a8:	b928      	cbnz	r0, 80061b6 <__multadd+0x5a>
 80061aa:	4602      	mov	r2, r0
 80061ac:	4b0c      	ldr	r3, [pc, #48]	@ (80061e0 <__multadd+0x84>)
 80061ae:	480d      	ldr	r0, [pc, #52]	@ (80061e4 <__multadd+0x88>)
 80061b0:	21ba      	movs	r1, #186	@ 0xba
 80061b2:	f001 fce9 	bl	8007b88 <__assert_func>
 80061b6:	6922      	ldr	r2, [r4, #16]
 80061b8:	3202      	adds	r2, #2
 80061ba:	f104 010c 	add.w	r1, r4, #12
 80061be:	0092      	lsls	r2, r2, #2
 80061c0:	300c      	adds	r0, #12
 80061c2:	f7fe fffc 	bl	80051be <memcpy>
 80061c6:	4621      	mov	r1, r4
 80061c8:	4638      	mov	r0, r7
 80061ca:	f7ff ffa5 	bl	8006118 <_Bfree>
 80061ce:	4644      	mov	r4, r8
 80061d0:	eb04 0385 	add.w	r3, r4, r5, lsl #2
 80061d4:	3501      	adds	r5, #1
 80061d6:	615e      	str	r6, [r3, #20]
 80061d8:	6125      	str	r5, [r4, #16]
 80061da:	4620      	mov	r0, r4
 80061dc:	e8bd 81f0 	ldmia.w	sp!, {r4, r5, r6, r7, r8, pc}
 80061e0:	08008979 	.word	0x08008979
 80061e4:	0800898a 	.word	0x0800898a

080061e8 <__s2b>:
 80061e8:	e92d 43f8 	stmdb	sp!, {r3, r4, r5, r6, r7, r8, r9, lr}
 80061ec:	460c      	mov	r4, r1
 80061ee:	4615      	mov	r5, r2
 80061f0:	461f      	mov	r7, r3
 80061f2:	2209      	movs	r2, #9
 80061f4:	3308      	adds	r3, #8
 80061f6:	4606      	mov	r6, r0
 80061f8:	fb93 f3f2 	sdiv	r3, r3, r2
 80061fc:	2100      	movs	r1, #0
 80061fe:	2201      	movs	r2, #1
 8006200:	429a      	cmp	r2, r3
 8006202:	db09      	blt.n	8006218 <__s2b+0x30>
 8006204:	4630      	mov	r0, r6
 8006206:	f7ff ff47 	bl	8006098 <_Balloc>
 800620a:	b940      	cbnz	r0, 800621e <__s2b+0x36>
 800620c:	4602      	mov	r2, r0
 800620e:	4b19      	ldr	r3, [pc, #100]	@ (8006274 <__s2b+0x8c>)
 8006210:	4819      	ldr	r0, [pc, #100]	@ (8006278 <__s2b+0x90>)
 8006212:	21d3      	movs	r1, #211	@ 0xd3
 8006214:	f001 fcb8 	bl	8007b88 <__assert_func>
 8006218:	0052      	lsls	r2, r2, #1
 800621a:	3101      	adds	r1, #1
 800621c:	e7f0      	b.n	8006200 <__s2b+0x18>
 800621e:	9b08      	ldr	r3, [sp, #32]
 8006220:	6143      	str	r3, [r0, #20]
 8006222:	2d09      	cmp	r5, #9
 8006224:	f04f 0301 	mov.w	r3, #1
 8006228:	6103      	str	r3, [r0, #16]
 800622a:	dd16      	ble.n	800625a <__s2b+0x72>
 800622c:	f104 0909 	add.w	r9, r4, #9
 8006230:	46c8      	mov	r8, r9
 8006232:	442c      	add	r4, r5
 8006234:	f818 3b01 	ldrb.w	r3, [r8], #1
 8006238:	4601      	mov	r1, r0
 800623a:	3b30      	subs	r3, #48	@ 0x30
 800623c:	220a      	movs	r2, #10
 800623e:	4630      	mov	r0, r6
 8006240:	f7ff ff8c 	bl	800615c <__multadd>
 8006244:	45a0      	cmp	r8, r4
 8006246:	d1f5      	bne.n	8006234 <__s2b+0x4c>
 8006248:	f1a5 0408 	sub.w	r4, r5, #8
 800624c:	444c      	add	r4, r9
 800624e:	1b2d      	subs	r5, r5, r4
 8006250:	1963      	adds	r3, r4, r5
 8006252:	42bb      	cmp	r3, r7
 8006254:	db04      	blt.n	8006260 <__s2b+0x78>
 8006256:	e8bd 83f8 	ldmia.w	sp!, {r3, r4, r5, r6, r7, r8, r9, pc}
 800625a:	340a      	adds	r4, #10
 800625c:	2509      	movs	r5, #9
 800625e:	e7f6      	b.n	800624e <__s2b+0x66>
 8006260:	f814 3b01 	ldrb.w	r3, [r4], #1
 8006264:	4601      	mov	r1, r0
 8006266:	3b30      	subs	r3, #48	@ 0x30
 8006268:	220a      	movs	r2, #10
 800626a:	4630      	mov	r0, r6
 800626c:	f7ff ff76 	bl	800615c <__multadd>
 8006270:	e7ee      	b.n	8006250 <__s2b+0x68>
 8006272:	bf00      	nop
 8006274:	08008979 	.word	0x08008979
 8006278:	0800898a 	.word	0x0800898a

0800627c <__hi0bits>:
 800627c:	f5b0 3f80 	cmp.w	r0, #65536	@ 0x10000
 8006280:	4603      	mov	r3, r0
 8006282:	bf36      	itet	cc
 8006284:	0403      	lslcc	r3, r0, #16
 8006286:	2000      	movcs	r0, #0
 8006288:	2010      	movcc	r0, #16
 800628a:	f1b3 7f80 	cmp.w	r3, #16777216	@ 0x1000000
 800628e:	bf3c      	itt	cc
 8006290:	021b      	lslcc	r3, r3, #8
 8006292:	3008      	addcc	r0, #8
 8006294:	f1b3 5f80 	cmp.w	r3, #268435456	@ 0x10000000
 8006298:	bf3c      	itt	cc
 800629a:	011b      	lslcc	r3, r3, #4
 800629c:	3004      	addcc	r0, #4
 800629e:	f1b3 4f80 	cmp.w	r3, #1073741824	@ 0x40000000
 80062a2:	bf3c      	itt	cc
 80062a4:	009b      	lslcc	r3, r3, #2
 80062a6:	3002      	addcc	r0, #2
 80062a8:	2b00      	cmp	r3, #0
 80062aa:	db05      	blt.n	80062b8 <__hi0bits+0x3c>
 80062ac:	f013 4f80 	tst.w	r3, #1073741824	@ 0x40000000
 80062b0:	f100 0001 	add.w	r0, r0, #1
 80062b4:	bf08      	it	eq
 80062b6:	2020      	moveq	r0, #32
 80062b8:	4770      	bx	lr

080062ba <__lo0bits>:
 80062ba:	6803      	ldr	r3, [r0, #0]
 80062bc:	4602      	mov	r2, r0
 80062be:	f013 0007 	ands.w	r0, r3, #7
 80062c2:	d00b      	beq.n	80062dc <__lo0bits+0x22>
 80062c4:	07d9      	lsls	r1, r3, #31
 80062c6:	d421      	bmi.n	800630c <__lo0bits+0x52>
 80062c8:	0798      	lsls	r0, r3, #30
 80062ca:	bf49      	itett	mi
 80062cc:	085b      	lsrmi	r3, r3, #1
 80062ce:	089b      	lsrpl	r3, r3, #2
 80062d0:	2001      	movmi	r0, #1
 80062d2:	6013      	strmi	r3, [r2, #0]
 80062d4:	bf5c      	itt	pl
 80062d6:	6013      	strpl	r3, [r2, #0]
 80062d8:	2002      	movpl	r0, #2
 80062da:	4770      	bx	lr
 80062dc:	b299      	uxth	r1, r3
 80062de:	b909      	cbnz	r1, 80062e4 <__lo0bits+0x2a>
 80062e0:	0c1b      	lsrs	r3, r3, #16
 80062e2:	2010      	movs	r0, #16
 80062e4:	b2d9      	uxtb	r1, r3
 80062e6:	b909      	cbnz	r1, 80062ec <__lo0bits+0x32>
 80062e8:	3008      	adds	r0, #8
 80062ea:	0a1b      	lsrs	r3, r3, #8
 80062ec:	0719      	lsls	r1, r3, #28
 80062ee:	bf04      	itt	eq
 80062f0:	091b      	lsreq	r3, r3, #4
 80062f2:	3004      	addeq	r0, #4
 80062f4:	0799      	lsls	r1, r3, #30
 80062f6:	bf04      	itt	eq
 80062f8:	089b      	lsreq	r3, r3, #2
 80062fa:	3002      	addeq	r0, #2
 80062fc:	07d9      	lsls	r1, r3, #31
 80062fe:	d403      	bmi.n	8006308 <__lo0bits+0x4e>
 8006300:	085b      	lsrs	r3, r3, #1
 8006302:	f100 0001 	add.w	r0, r0, #1
 8006306:	d003      	beq.n	8006310 <__lo0bits+0x56>
 8006308:	6013      	str	r3, [r2, #0]
 800630a:	4770      	bx	lr
 800630c:	2000      	movs	r0, #0
 800630e:	4770      	bx	lr
 8006310:	2020      	movs	r0, #32
 8006312:	4770      	bx	lr

08006314 <__i2b>:
 8006314:	b510      	push	{r4, lr}
 8006316:	460c      	mov	r4, r1
 8006318:	2101      	movs	r1, #1
 800631a:	f7ff febd 	bl	8006098 <_Balloc>
 800631e:	4602      	mov	r2, r0
 8006320:	b928      	cbnz	r0, 800632e <__i2b+0x1a>
 8006322:	4b05      	ldr	r3, [pc, #20]	@ (8006338 <__i2b+0x24>)
 8006324:	4805      	ldr	r0, [pc, #20]	@ (800633c <__i2b+0x28>)
 8006326:	f240 1145 	movw	r1, #325	@ 0x145
 800632a:	f001 fc2d 	bl	8007b88 <__assert_func>
 800632e:	2301      	movs	r3, #1
 8006330:	6144      	str	r4, [r0, #20]
 8006332:	6103      	str	r3, [r0, #16]
 8006334:	bd10      	pop	{r4, pc}
 8006336:	bf00      	nop
 8006338:	08008979 	.word	0x08008979
 800633c:	0800898a 	.word	0x0800898a

08006340 <__multiply>:
 8006340:	e92d 4ff0 	stmdb	sp!, {r4, r5, r6, r7, r8, r9, sl, fp, lr}
 8006344:	4617      	mov	r7, r2
 8006346:	690a      	ldr	r2, [r1, #16]
 8006348:	693b      	ldr	r3, [r7, #16]
 800634a:	429a      	cmp	r2, r3
 800634c:	bfa8      	it	ge
 800634e:	463b      	movge	r3, r7
 8006350:	4689      	mov	r9, r1
 8006352:	bfa4      	itt	ge
 8006354:	460f      	movge	r7, r1
 8006356:	4699      	movge	r9, r3
 8006358:	693d      	ldr	r5, [r7, #16]
 800635a:	f8d9 a010 	ldr.w	sl, [r9, #16]
 800635e:	68bb      	ldr	r3, [r7, #8]
 8006360:	6879      	ldr	r1, [r7, #4]
 8006362:	eb05 060a 	add.w	r6, r5, sl
 8006366:	42b3      	cmp	r3, r6
 8006368:	b085      	sub	sp, #20
 800636a:	bfb8      	it	lt
 800636c:	3101      	addlt	r1, #1
 800636e:	f7ff fe93 	bl	8006098 <_Balloc>
 8006372:	b930      	cbnz	r0, 8006382 <__multiply+0x42>
 8006374:	4602      	mov	r2, r0
 8006376:	4b41      	ldr	r3, [pc, #260]	@ (800647c <__multiply+0x13c>)
 8006378:	4841      	ldr	r0, [pc, #260]	@ (8006480 <__multiply+0x140>)
 800637a:	f44f 71b1 	mov.w	r1, #354	@ 0x162
 800637e:	f001 fc03 	bl	8007b88 <__assert_func>
 8006382:	f100 0414 	add.w	r4, r0, #20
 8006386:	eb04 0e86 	add.w	lr, r4, r6, lsl #2
 800638a:	4623      	mov	r3, r4
 800638c:	2200      	movs	r2, #0
 800638e:	4573      	cmp	r3, lr
 8006390:	d320      	bcc.n	80063d4 <__multiply+0x94>
 8006392:	f107 0814 	add.w	r8, r7, #20
 8006396:	f109 0114 	add.w	r1, r9, #20
 800639a:	eb08 0585 	add.w	r5, r8, r5, lsl #2
 800639e:	eb01 038a 	add.w	r3, r1, sl, lsl #2
 80063a2:	9302      	str	r3, [sp, #8]
 80063a4:	1beb      	subs	r3, r5, r7
 80063a6:	3b15      	subs	r3, #21
 80063a8:	f023 0303 	bic.w	r3, r3, #3
 80063ac:	3304      	adds	r3, #4
 80063ae:	3715      	adds	r7, #21
 80063b0:	42bd      	cmp	r5, r7
 80063b2:	bf38      	it	cc
 80063b4:	2304      	movcc	r3, #4
 80063b6:	9301      	str	r3, [sp, #4]
 80063b8:	9b02      	ldr	r3, [sp, #8]
 80063ba:	9103      	str	r1, [sp, #12]
 80063bc:	428b      	cmp	r3, r1
 80063be:	d80c      	bhi.n	80063da <__multiply+0x9a>
 80063c0:	2e00      	cmp	r6, #0
 80063c2:	dd03      	ble.n	80063cc <__multiply+0x8c>
 80063c4:	f85e 3d04 	ldr.w	r3, [lr, #-4]!
 80063c8:	2b00      	cmp	r3, #0
 80063ca:	d055      	beq.n	8006478 <__multiply+0x138>
 80063cc:	6106      	str	r6, [r0, #16]
 80063ce:	b005      	add	sp, #20
 80063d0:	e8bd 8ff0 	ldmia.w	sp!, {r4, r5, r6, r7, r8, r9, sl, fp, pc}
 80063d4:	f843 2b04 	str.w	r2, [r3], #4
 80063d8:	e7d9      	b.n	800638e <__multiply+0x4e>
 80063da:	f8b1 a000 	ldrh.w	sl, [r1]
 80063de:	f1ba 0f00 	cmp.w	sl, #0
 80063e2:	d01f      	beq.n	8006424 <__multiply+0xe4>
 80063e4:	46c4      	mov	ip, r8
 80063e6:	46a1      	mov	r9, r4
 80063e8:	2700      	movs	r7, #0
 80063ea:	f85c 2b04 	ldr.w	r2, [ip], #4
 80063ee:	f8d9 3000 	ldr.w	r3, [r9]
 80063f2:	fa1f fb82 	uxth.w	fp, r2
 80063f6:	b29b      	uxth	r3, r3
 80063f8:	fb0a 330b 	mla	r3, sl, fp, r3
 80063fc:	443b      	add	r3, r7
 80063fe:	f8d9 7000 	ldr.w	r7, [r9]
 8006402:	0c12      	lsrs	r2, r2, #16
 8006404:	0c3f      	lsrs	r7, r7, #16
 8006406:	fb0a 7202 	mla	r2, sl, r2, r7
 800640a:	eb02 4213 	add.w	r2, r2, r3, lsr #16
 800640e:	b29b      	uxth	r3, r3
 8006410:	ea43 4302 	orr.w	r3, r3, r2, lsl #16
 8006414:	4565      	cmp	r5, ip
 8006416:	f849 3b04 	str.w	r3, [r9], #4
 800641a:	ea4f 4712 	mov.w	r7, r2, lsr #16
 800641e:	d8e4      	bhi.n	80063ea <__multiply+0xaa>
 8006420:	9b01      	ldr	r3, [sp, #4]
 8006422:	50e7      	str	r7, [r4, r3]
 8006424:	9b03      	ldr	r3, [sp, #12]
 8006426:	f8b3 9002 	ldrh.w	r9, [r3, #2]
 800642a:	3104      	adds	r1, #4
 800642c:	f1b9 0f00 	cmp.w	r9, #0
 8006430:	d020      	beq.n	8006474 <__multiply+0x134>
 8006432:	6823      	ldr	r3, [r4, #0]
 8006434:	4647      	mov	r7, r8
 8006436:	46a4      	mov	ip, r4
 8006438:	f04f 0a00 	mov.w	sl, #0
 800643c:	f8b7 b000 	ldrh.w	fp, [r7]
 8006440:	f8bc 2002 	ldrh.w	r2, [ip, #2]
 8006444:	fb09 220b 	mla	r2, r9, fp, r2
 8006448:	4452      	add	r2, sl
 800644a:	b29b      	uxth	r3, r3
 800644c:	ea43 4302 	orr.w	r3, r3, r2, lsl #16
 8006450:	f84c 3b04 	str.w	r3, [ip], #4
 8006454:	f857 3b04 	ldr.w	r3, [r7], #4
 8006458:	ea4f 4a13 	mov.w	sl, r3, lsr #16
 800645c:	f8bc 3000 	ldrh.w	r3, [ip]
 8006460:	fb09 330a 	mla	r3, r9, sl, r3
 8006464:	eb03 4312 	add.w	r3, r3, r2, lsr #16
 8006468:	42bd      	cmp	r5, r7
 800646a:	ea4f 4a13 	mov.w	sl, r3, lsr #16
 800646e:	d8e5      	bhi.n	800643c <__multiply+0xfc>
 8006470:	9a01      	ldr	r2, [sp, #4]
 8006472:	50a3      	str	r3, [r4, r2]
 8006474:	3404      	adds	r4, #4
 8006476:	e79f      	b.n	80063b8 <__multiply+0x78>
 8006478:	3e01      	subs	r6, #1
 800647a:	e7a1      	b.n	80063c0 <__multiply+0x80>
 800647c:	08008979 	.word	0x08008979
 8006480:	0800898a 	.word	0x0800898a

08006484 <__pow5mult>:
 8006484:	e92d 43f8 	stmdb	sp!, {r3, r4, r5, r6, r7, r8, r9, lr}
 8006488:	4615      	mov	r5, r2
 800648a:	f012 0203 	ands.w	r2, r2, #3
 800648e:	4607      	mov	r7, r0
 8006490:	460e      	mov	r6, r1
 8006492:	d007      	beq.n	80064a4 <__pow5mult+0x20>
 8006494:	4c25      	ldr	r4, [pc, #148]	@ (800652c <__pow5mult+0xa8>)
 8006496:	3a01      	subs	r2, #1
 8006498:	2300      	movs	r3, #0
 800649a:	f854 2022 	ldr.w	r2, [r4, r2, lsl #2]
 800649e:	f7ff fe5d 	bl	800615c <__multadd>
 80064a2:	4606      	mov	r6, r0
 80064a4:	10ad      	asrs	r5, r5, #2
 80064a6:	d03d      	beq.n	8006524 <__pow5mult+0xa0>
 80064a8:	69fc      	ldr	r4, [r7, #28]
 80064aa:	b97c      	cbnz	r4, 80064cc <__pow5mult+0x48>
 80064ac:	2010      	movs	r0, #16
 80064ae:	f7ff fd3d 	bl	8005f2c <malloc>
 80064b2:	4602      	mov	r2, r0
 80064b4:	61f8      	str	r0, [r7, #28]
 80064b6:	b928      	cbnz	r0, 80064c4 <__pow5mult+0x40>
 80064b8:	4b1d      	ldr	r3, [pc, #116]	@ (8006530 <__pow5mult+0xac>)
 80064ba:	481e      	ldr	r0, [pc, #120]	@ (8006534 <__pow5mult+0xb0>)
 80064bc:	f240 11b3 	movw	r1, #435	@ 0x1b3
 80064c0:	f001 fb62 	bl	8007b88 <__assert_func>
 80064c4:	e9c0 4401 	strd	r4, r4, [r0, #4]
 80064c8:	6004      	str	r4, [r0, #0]
 80064ca:	60c4      	str	r4, [r0, #12]
 80064cc:	f8d7 801c 	ldr.w	r8, [r7, #28]
 80064d0:	f8d8 4008 	ldr.w	r4, [r8, #8]
 80064d4:	b94c      	cbnz	r4, 80064ea <__pow5mult+0x66>
 80064d6:	f240 2171 	movw	r1, #625	@ 0x271
 80064da:	4638      	mov	r0, r7
 80064dc:	f7ff ff1a 	bl	8006314 <__i2b>
 80064e0:	2300      	movs	r3, #0
 80064e2:	f8c8 0008 	str.w	r0, [r8, #8]
 80064e6:	4604      	mov	r4, r0
 80064e8:	6003      	str	r3, [r0, #0]
 80064ea:	f04f 0900 	mov.w	r9, #0
 80064ee:	07eb      	lsls	r3, r5, #31
 80064f0:	d50a      	bpl.n	8006508 <__pow5mult+0x84>
 80064f2:	4631      	mov	r1, r6
 80064f4:	4622      	mov	r2, r4
 80064f6:	4638      	mov	r0, r7
 80064f8:	f7ff ff22 	bl	8006340 <__multiply>
 80064fc:	4631      	mov	r1, r6
 80064fe:	4680      	mov	r8, r0
 8006500:	4638      	mov	r0, r7
 8006502:	f7ff fe09 	bl	8006118 <_Bfree>
 8006506:	4646      	mov	r6, r8
 8006508:	106d      	asrs	r5, r5, #1
 800650a:	d00b      	beq.n	8006524 <__pow5mult+0xa0>
 800650c:	6820      	ldr	r0, [r4, #0]
 800650e:	b938      	cbnz	r0, 8006520 <__pow5mult+0x9c>
 8006510:	4622      	mov	r2, r4
 8006512:	4621      	mov	r1, r4
 8006514:	4638      	mov	r0, r7
 8006516:	f7ff ff13 	bl	8006340 <__multiply>
 800651a:	6020      	str	r0, [r4, #0]
 800651c:	f8c0 9000 	str.w	r9, [r0]
 8006520:	4604      	mov	r4, r0
 8006522:	e7e4      	b.n	80064ee <__pow5mult+0x6a>
 8006524:	4630      	mov	r0, r6
 8006526:	e8bd 83f8 	ldmia.w	sp!, {r3, r4, r5, r6, r7, r8, r9, pc}
 800652a:	bf00      	nop
 800652c:	08008ab4 	.word	0x08008ab4
 8006530:	0800890a 	.word	0x0800890a
 8006534:	0800898a 	.word	0x0800898a

08006538 <__lshift>:
 8006538:	e92d 47f0 	stmdb	sp!, {r4, r5, r6, r7, r8, r9, sl, lr}
 800653c:	460c      	mov	r4, r1
 800653e:	6849      	ldr	r1, [r1, #4]
 8006540:	6923      	ldr	r3, [r4, #16]
 8006542:	eb03 1862 	add.w	r8, r3, r2, asr #5
 8006546:	68a3      	ldr	r3, [r4, #8]
 8006548:	4607      	mov	r7, r0
 800654a:	4691      	mov	r9, r2
 800654c:	ea4f 1a62 	mov.w	sl, r2, asr #5
 8006550:	f108 0601 	add.w	r6, r8, #1
 8006554:	42b3      	cmp	r3, r6
 8006556:	db0b      	blt.n	8006570 <__lshift+0x38>
 8006558:	4638      	mov	r0, r7
 800655a:	f7ff fd9d 	bl	8006098 <_Balloc>
 800655e:	4605      	mov	r5, r0
 8006560:	b948      	cbnz	r0, 8006576 <__lshift+0x3e>
 8006562:	4602      	mov	r2, r0
 8006564:	4b28      	ldr	r3, [pc, #160]	@ (8006608 <__lshift+0xd0>)
 8006566:	4829      	ldr	r0, [pc, #164]	@ (800660c <__lshift+0xd4>)
 8006568:	f44f 71ef 	mov.w	r1, #478	@ 0x1de
 800656c:	f001 fb0c 	bl	8007b88 <__assert_func>
 8006570:	3101      	adds	r1, #1
 8006572:	005b      	lsls	r3, r3, #1
 8006574:	e7ee      	b.n	8006554 <__lshift+0x1c>
 8006576:	2300      	movs	r3, #0
 8006578:	f100 0114 	add.w	r1, r0, #20
 800657c:	f100 0210 	add.w	r2, r0, #16
 8006580:	4618      	mov	r0, r3
 8006582:	4553      	cmp	r3, sl
 8006584:	db33      	blt.n	80065ee <__lshift+0xb6>
 8006586:	6920      	ldr	r0, [r4, #16]
 8006588:	ea2a 7aea 	bic.w	sl, sl, sl, asr #31
 800658c:	f104 0314 	add.w	r3, r4, #20
 8006590:	f019 091f 	ands.w	r9, r9, #31
 8006594:	eb01 018a 	add.w	r1, r1, sl, lsl #2
 8006598:	eb03 0c80 	add.w	ip, r3, r0, lsl #2
 800659c:	d02b      	beq.n	80065f6 <__lshift+0xbe>
 800659e:	f1c9 0e20 	rsb	lr, r9, #32
 80065a2:	468a      	mov	sl, r1
 80065a4:	2200      	movs	r2, #0
 80065a6:	6818      	ldr	r0, [r3, #0]
 80065a8:	fa00 f009 	lsl.w	r0, r0, r9
 80065ac:	4310      	orrs	r0, r2
 80065ae:	f84a 0b04 	str.w	r0, [sl], #4
 80065b2:	f853 2b04 	ldr.w	r2, [r3], #4
 80065b6:	459c      	cmp	ip, r3
 80065b8:	fa22 f20e 	lsr.w	r2, r2, lr
 80065bc:	d8f3      	bhi.n	80065a6 <__lshift+0x6e>
 80065be:	ebac 0304 	sub.w	r3, ip, r4
 80065c2:	3b15      	subs	r3, #21
 80065c4:	f023 0303 	bic.w	r3, r3, #3
 80065c8:	3304      	adds	r3, #4
 80065ca:	f104 0015 	add.w	r0, r4, #21
 80065ce:	4560      	cmp	r0, ip
 80065d0:	bf88      	it	hi
 80065d2:	2304      	movhi	r3, #4
 80065d4:	50ca      	str	r2, [r1, r3]
 80065d6:	b10a      	cbz	r2, 80065dc <__lshift+0xa4>
 80065d8:	f108 0602 	add.w	r6, r8, #2
 80065dc:	3e01      	subs	r6, #1
 80065de:	4638      	mov	r0, r7
 80065e0:	612e      	str	r6, [r5, #16]
 80065e2:	4621      	mov	r1, r4
 80065e4:	f7ff fd98 	bl	8006118 <_Bfree>
 80065e8:	4628      	mov	r0, r5
 80065ea:	e8bd 87f0 	ldmia.w	sp!, {r4, r5, r6, r7, r8, r9, sl, pc}
 80065ee:	f842 0f04 	str.w	r0, [r2, #4]!
 80065f2:	3301      	adds	r3, #1
 80065f4:	e7c5      	b.n	8006582 <__lshift+0x4a>
 80065f6:	3904      	subs	r1, #4
 80065f8:	f853 2b04 	ldr.w	r2, [r3], #4
 80065fc:	f841 2f04 	str.w	r2, [r1, #4]!
 8006600:	459c      	cmp	ip, r3
 8006602:	d8f9      	bhi.n	80065f8 <__lshift+0xc0>
 8006604:	e7ea      	b.n	80065dc <__lshift+0xa4>
 8006606:	bf00      	nop
 8006608:	08008979 	.word	0x08008979
 800660c:	0800898a 	.word	0x0800898a

08006610 <__mcmp>:
 8006610:	690a      	ldr	r2, [r1, #16]
 8006612:	4603      	mov	r3, r0
 8006614:	6900      	ldr	r0, [r0, #16]
 8006616:	1a80      	subs	r0, r0, r2
 8006618:	b530      	push	{r4, r5, lr}
 800661a:	d10e      	bne.n	800663a <__mcmp+0x2a>
 800661c:	3314      	adds	r3, #20
 800661e:	3114      	adds	r1, #20
 8006620:	eb03 0482 	add.w	r4, r3, r2, lsl #2
 8006624:	eb01 0182 	add.w	r1, r1, r2, lsl #2
 8006628:	f854 5d04 	ldr.w	r5, [r4, #-4]!
 800662c:	f851 2d04 	ldr.w	r2, [r1, #-4]!
 8006630:	4295      	cmp	r5, r2
 8006632:	d003      	beq.n	800663c <__mcmp+0x2c>
 8006634:	d205      	bcs.n	8006642 <__mcmp+0x32>
 8006636:	f04f 30ff 	mov.w	r0, #4294967295
 800663a:	bd30      	pop	{r4, r5, pc}
 800663c:	42a3      	cmp	r3, r4
 800663e:	d3f3      	bcc.n	8006628 <__mcmp+0x18>
 8006640:	e7fb      	b.n	800663a <__mcmp+0x2a>
 8006642:	2001      	movs	r0, #1
 8006644:	e7f9      	b.n	800663a <__mcmp+0x2a>
	...

08006648 <__mdiff>:
 8006648:	e92d 4ff7 	stmdb	sp!, {r0, r1, r2, r4, r5, r6, r7, r8, r9, sl, fp, lr}
 800664c:	4689      	mov	r9, r1
 800664e:	4606      	mov	r6, r0
 8006650:	4611      	mov	r1, r2
 8006652:	4648      	mov	r0, r9
 8006654:	4614      	mov	r4, r2
 8006656:	f7ff ffdb 	bl	8006610 <__mcmp>
 800665a:	1e05      	subs	r5, r0, #0
 800665c:	d112      	bne.n	8006684 <__mdiff+0x3c>
 800665e:	4629      	mov	r1, r5
 8006660:	4630      	mov	r0, r6
 8006662:	f7ff fd19 	bl	8006098 <_Balloc>
 8006666:	4602      	mov	r2, r0
 8006668:	b928      	cbnz	r0, 8006676 <__mdiff+0x2e>
 800666a:	4b3f      	ldr	r3, [pc, #252]	@ (8006768 <__mdiff+0x120>)
 800666c:	f240 2137 	movw	r1, #567	@ 0x237
 8006670:	483e      	ldr	r0, [pc, #248]	@ (800676c <__mdiff+0x124>)
 8006672:	f001 fa89 	bl	8007b88 <__assert_func>
 8006676:	2301      	movs	r3, #1
 8006678:	e9c0 3504 	strd	r3, r5, [r0, #16]
 800667c:	4610      	mov	r0, r2
 800667e:	b003      	add	sp, #12
 8006680:	e8bd 8ff0 	ldmia.w	sp!, {r4, r5, r6, r7, r8, r9, sl, fp, pc}
 8006684:	bfbc      	itt	lt
 8006686:	464b      	movlt	r3, r9
 8006688:	46a1      	movlt	r9, r4
 800668a:	4630      	mov	r0, r6
 800668c:	f8d9 1004 	ldr.w	r1, [r9, #4]
 8006690:	bfba      	itte	lt
 8006692:	461c      	movlt	r4, r3
 8006694:	2501      	movlt	r5, #1
 8006696:	2500      	movge	r5, #0
 8006698:	f7ff fcfe 	bl	8006098 <_Balloc>
 800669c:	4602      	mov	r2, r0
 800669e:	b918      	cbnz	r0, 80066a8 <__mdiff+0x60>
 80066a0:	4b31      	ldr	r3, [pc, #196]	@ (8006768 <__mdiff+0x120>)
 80066a2:	f240 2145 	movw	r1, #581	@ 0x245
 80066a6:	e7e3      	b.n	8006670 <__mdiff+0x28>
 80066a8:	f8d9 7010 	ldr.w	r7, [r9, #16]
 80066ac:	6926      	ldr	r6, [r4, #16]
 80066ae:	60c5      	str	r5, [r0, #12]
 80066b0:	f109 0310 	add.w	r3, r9, #16
 80066b4:	f109 0514 	add.w	r5, r9, #20
 80066b8:	f104 0e14 	add.w	lr, r4, #20
 80066bc:	f100 0b14 	add.w	fp, r0, #20
 80066c0:	eb05 0887 	add.w	r8, r5, r7, lsl #2
 80066c4:	eb0e 0686 	add.w	r6, lr, r6, lsl #2
 80066c8:	9301      	str	r3, [sp, #4]
 80066ca:	46d9      	mov	r9, fp
 80066cc:	f04f 0c00 	mov.w	ip, #0
 80066d0:	9b01      	ldr	r3, [sp, #4]
 80066d2:	f85e 0b04 	ldr.w	r0, [lr], #4
 80066d6:	f853 af04 	ldr.w	sl, [r3, #4]!
 80066da:	9301      	str	r3, [sp, #4]
 80066dc:	fa1f f38a 	uxth.w	r3, sl
 80066e0:	4619      	mov	r1, r3
 80066e2:	b283      	uxth	r3, r0
 80066e4:	1acb      	subs	r3, r1, r3
 80066e6:	0c00      	lsrs	r0, r0, #16
 80066e8:	4463      	add	r3, ip
 80066ea:	ebc0 401a 	rsb	r0, r0, sl, lsr #16
 80066ee:	eb00 4023 	add.w	r0, r0, r3, asr #16
 80066f2:	b29b      	uxth	r3, r3
 80066f4:	ea43 4300 	orr.w	r3, r3, r0, lsl #16
 80066f8:	4576      	cmp	r6, lr
 80066fa:	f849 3b04 	str.w	r3, [r9], #4
 80066fe:	ea4f 4c20 	mov.w	ip, r0, asr #16
 8006702:	d8e5      	bhi.n	80066d0 <__mdiff+0x88>
 8006704:	1b33      	subs	r3, r6, r4
 8006706:	3b15      	subs	r3, #21
 8006708:	f023 0303 	bic.w	r3, r3, #3
 800670c:	3415      	adds	r4, #21
 800670e:	3304      	adds	r3, #4
 8006710:	42a6      	cmp	r6, r4
 8006712:	bf38      	it	cc
 8006714:	2304      	movcc	r3, #4
 8006716:	441d      	add	r5, r3
 8006718:	445b      	add	r3, fp
 800671a:	461e      	mov	r6, r3
 800671c:	462c      	mov	r4, r5
 800671e:	4544      	cmp	r4, r8
 8006720:	d30e      	bcc.n	8006740 <__mdiff+0xf8>
 8006722:	f108 0103 	add.w	r1, r8, #3
 8006726:	1b49      	subs	r1, r1, r5
 8006728:	f021 0103 	bic.w	r1, r1, #3
 800672c:	3d03      	subs	r5, #3
 800672e:	45a8      	cmp	r8, r5
 8006730:	bf38      	it	cc
 8006732:	2100      	movcc	r1, #0
 8006734:	440b      	add	r3, r1
 8006736:	f853 1d04 	ldr.w	r1, [r3, #-4]!
 800673a:	b191      	cbz	r1, 8006762 <__mdiff+0x11a>
 800673c:	6117      	str	r7, [r2, #16]
 800673e:	e79d      	b.n	800667c <__mdiff+0x34>
 8006740:	f854 1b04 	ldr.w	r1, [r4], #4
 8006744:	46e6      	mov	lr, ip
 8006746:	0c08      	lsrs	r0, r1, #16
 8006748:	fa1c fc81 	uxtah	ip, ip, r1
 800674c:	4471      	add	r1, lr
 800674e:	eb00 402c 	add.w	r0, r0, ip, asr #16
 8006752:	b289      	uxth	r1, r1
 8006754:	ea41 4100 	orr.w	r1, r1, r0, lsl #16
 8006758:	f846 1b04 	str.w	r1, [r6], #4
 800675c:	ea4f 4c20 	mov.w	ip, r0, asr #16
 8006760:	e7dd      	b.n	800671e <__mdiff+0xd6>
 8006762:	3f01      	subs	r7, #1
 8006764:	e7e7      	b.n	8006736 <__mdiff+0xee>
 8006766:	bf00      	nop
 8006768:	08008979 	.word	0x08008979
 800676c:	0800898a 	.word	0x0800898a

08006770 <__ulp>:
 8006770:	b082      	sub	sp, #8
 8006772:	ed8d 0b00 	vstr	d0, [sp]
 8006776:	9a01      	ldr	r2, [sp, #4]
 8006778:	4b0f      	ldr	r3, [pc, #60]	@ (80067b8 <__ulp+0x48>)
 800677a:	4013      	ands	r3, r2
 800677c:	f1a3 7350 	sub.w	r3, r3, #54525952	@ 0x3400000
 8006780:	2b00      	cmp	r3, #0
 8006782:	dc08      	bgt.n	8006796 <__ulp+0x26>
 8006784:	425b      	negs	r3, r3
 8006786:	f1b3 7fa0 	cmp.w	r3, #20971520	@ 0x1400000
 800678a:	ea4f 5223 	mov.w	r2, r3, asr #20
 800678e:	da04      	bge.n	800679a <__ulp+0x2a>
 8006790:	f44f 2300 	mov.w	r3, #524288	@ 0x80000
 8006794:	4113      	asrs	r3, r2
 8006796:	2200      	movs	r2, #0
 8006798:	e008      	b.n	80067ac <__ulp+0x3c>
 800679a:	f1a2 0314 	sub.w	r3, r2, #20
 800679e:	2b1e      	cmp	r3, #30
 80067a0:	bfda      	itte	le
 80067a2:	f04f 4200 	movle.w	r2, #2147483648	@ 0x80000000
 80067a6:	40da      	lsrle	r2, r3
 80067a8:	2201      	movgt	r2, #1
 80067aa:	2300      	movs	r3, #0
 80067ac:	4619      	mov	r1, r3
 80067ae:	4610      	mov	r0, r2
 80067b0:	ec41 0b10 	vmov	d0, r0, r1
 80067b4:	b002      	add	sp, #8
 80067b6:	4770      	bx	lr
 80067b8:	7ff00000 	.word	0x7ff00000

080067bc <__b2d>:
 80067bc:	e92d 41f0 	stmdb	sp!, {r4, r5, r6, r7, r8, lr}
 80067c0:	6906      	ldr	r6, [r0, #16]
 80067c2:	f100 0814 	add.w	r8, r0, #20
 80067c6:	eb08 0686 	add.w	r6, r8, r6, lsl #2
 80067ca:	1f37      	subs	r7, r6, #4
 80067cc:	f856 2c04 	ldr.w	r2, [r6, #-4]
 80067d0:	4610      	mov	r0, r2
 80067d2:	f7ff fd53 	bl	800627c <__hi0bits>
 80067d6:	f1c0 0320 	rsb	r3, r0, #32
 80067da:	280a      	cmp	r0, #10
 80067dc:	600b      	str	r3, [r1, #0]
 80067de:	491b      	ldr	r1, [pc, #108]	@ (800684c <__b2d+0x90>)
 80067e0:	dc15      	bgt.n	800680e <__b2d+0x52>
 80067e2:	f1c0 0c0b 	rsb	ip, r0, #11
 80067e6:	fa22 f30c 	lsr.w	r3, r2, ip
 80067ea:	45b8      	cmp	r8, r7
 80067ec:	ea43 0501 	orr.w	r5, r3, r1
 80067f0:	bf34      	ite	cc
 80067f2:	f856 3c08 	ldrcc.w	r3, [r6, #-8]
 80067f6:	2300      	movcs	r3, #0
 80067f8:	3015      	adds	r0, #21
 80067fa:	fa02 f000 	lsl.w	r0, r2, r0
 80067fe:	fa23 f30c 	lsr.w	r3, r3, ip
 8006802:	4303      	orrs	r3, r0
 8006804:	461c      	mov	r4, r3
 8006806:	ec45 4b10 	vmov	d0, r4, r5
 800680a:	e8bd 81f0 	ldmia.w	sp!, {r4, r5, r6, r7, r8, pc}
 800680e:	45b8      	cmp	r8, r7
 8006810:	bf3a      	itte	cc
 8006812:	f856 3c08 	ldrcc.w	r3, [r6, #-8]
 8006816:	f1a6 0708 	subcc.w	r7, r6, #8
 800681a:	2300      	movcs	r3, #0
 800681c:	380b      	subs	r0, #11
 800681e:	d012      	beq.n	8006846 <__b2d+0x8a>
 8006820:	f1c0 0120 	rsb	r1, r0, #32
 8006824:	fa23 f401 	lsr.w	r4, r3, r1
 8006828:	4082      	lsls	r2, r0
 800682a:	4322      	orrs	r2, r4
 800682c:	4547      	cmp	r7, r8
 800682e:	f042 557f 	orr.w	r5, r2, #1069547520	@ 0x3fc00000
 8006832:	bf8c      	ite	hi
 8006834:	f857 2c04 	ldrhi.w	r2, [r7, #-4]
 8006838:	2200      	movls	r2, #0
 800683a:	4083      	lsls	r3, r0
 800683c:	40ca      	lsrs	r2, r1
 800683e:	f445 1540 	orr.w	r5, r5, #3145728	@ 0x300000
 8006842:	4313      	orrs	r3, r2
 8006844:	e7de      	b.n	8006804 <__b2d+0x48>
 8006846:	ea42 0501 	orr.w	r5, r2, r1
 800684a:	e7db      	b.n	8006804 <__b2d+0x48>
 800684c:	3ff00000 	.word	0x3ff00000

08006850 <__d2b>:
 8006850:	e92d 43f7 	stmdb	sp!, {r0, r1, r2, r4, r5, r6, r7, r8, r9, lr}
 8006854:	460f      	mov	r7, r1
 8006856:	2101      	movs	r1, #1
 8006858:	ec59 8b10 	vmov	r8, r9, d0
 800685c:	4616      	mov	r6, r2
 800685e:	f7ff fc1b 	bl	8006098 <_Balloc>
 8006862:	4604      	mov	r4, r0
 8006864:	b930      	cbnz	r0, 8006874 <__d2b+0x24>
 8006866:	4602      	mov	r2, r0
 8006868:	4b23      	ldr	r3, [pc, #140]	@ (80068f8 <__d2b+0xa8>)
 800686a:	4824      	ldr	r0, [pc, #144]	@ (80068fc <__d2b+0xac>)
 800686c:	f240 310f 	movw	r1, #783	@ 0x30f
 8006870:	f001 f98a 	bl	8007b88 <__assert_func>
 8006874:	f3c9 550a 	ubfx	r5, r9, #20, #11
 8006878:	f3c9 0313 	ubfx	r3, r9, #0, #20
 800687c:	b10d      	cbz	r5, 8006882 <__d2b+0x32>
 800687e:	f443 1380 	orr.w	r3, r3, #1048576	@ 0x100000
 8006882:	9301      	str	r3, [sp, #4]
 8006884:	f1b8 0300 	subs.w	r3, r8, #0
 8006888:	d023      	beq.n	80068d2 <__d2b+0x82>
 800688a:	4668      	mov	r0, sp
 800688c:	9300      	str	r3, [sp, #0]
 800688e:	f7ff fd14 	bl	80062ba <__lo0bits>
 8006892:	e9dd 1200 	ldrd	r1, r2, [sp]
 8006896:	b1d0      	cbz	r0, 80068ce <__d2b+0x7e>
 8006898:	f1c0 0320 	rsb	r3, r0, #32
 800689c:	fa02 f303 	lsl.w	r3, r2, r3
 80068a0:	430b      	orrs	r3, r1
 80068a2:	40c2      	lsrs	r2, r0
 80068a4:	6163      	str	r3, [r4, #20]
 80068a6:	9201      	str	r2, [sp, #4]
 80068a8:	9b01      	ldr	r3, [sp, #4]
 80068aa:	61a3      	str	r3, [r4, #24]
 80068ac:	2b00      	cmp	r3, #0
 80068ae:	bf0c      	ite	eq
 80068b0:	2201      	moveq	r2, #1
 80068b2:	2202      	movne	r2, #2
 80068b4:	6122      	str	r2, [r4, #16]
 80068b6:	b1a5      	cbz	r5, 80068e2 <__d2b+0x92>
 80068b8:	f2a5 4533 	subw	r5, r5, #1075	@ 0x433
 80068bc:	4405      	add	r5, r0
 80068be:	603d      	str	r5, [r7, #0]
 80068c0:	f1c0 0035 	rsb	r0, r0, #53	@ 0x35
 80068c4:	6030      	str	r0, [r6, #0]
 80068c6:	4620      	mov	r0, r4
 80068c8:	b003      	add	sp, #12
 80068ca:	e8bd 83f0 	ldmia.w	sp!, {r4, r5, r6, r7, r8, r9, pc}
 80068ce:	6161      	str	r1, [r4, #20]
 80068d0:	e7ea      	b.n	80068a8 <__d2b+0x58>
 80068d2:	a801      	add	r0, sp, #4
 80068d4:	f7ff fcf1 	bl	80062ba <__lo0bits>
 80068d8:	9b01      	ldr	r3, [sp, #4]
 80068da:	6163      	str	r3, [r4, #20]
 80068dc:	3020      	adds	r0, #32
 80068de:	2201      	movs	r2, #1
 80068e0:	e7e8      	b.n	80068b4 <__d2b+0x64>
 80068e2:	eb04 0382 	add.w	r3, r4, r2, lsl #2
 80068e6:	f2a0 4032 	subw	r0, r0, #1074	@ 0x432
 80068ea:	6038      	str	r0, [r7, #0]
 80068ec:	6918      	ldr	r0, [r3, #16]
 80068ee:	f7ff fcc5 	bl	800627c <__hi0bits>
 80068f2:	ebc0 1042 	rsb	r0, r0, r2, lsl #5
 80068f6:	e7e5      	b.n	80068c4 <__d2b+0x74>
 80068f8:	08008979 	.word	0x08008979
 80068fc:	0800898a 	.word	0x0800898a

08006900 <__ratio>:
 8006900:	e92d 4ff0 	stmdb	sp!, {r4, r5, r6, r7, r8, r9, sl, fp, lr}
 8006904:	b085      	sub	sp, #20
 8006906:	e9cd 1000 	strd	r1, r0, [sp]
 800690a:	a902      	add	r1, sp, #8
 800690c:	f7ff ff56 	bl	80067bc <__b2d>
 8006910:	9800      	ldr	r0, [sp, #0]
 8006912:	a903      	add	r1, sp, #12
 8006914:	ec55 4b10 	vmov	r4, r5, d0
 8006918:	f7ff ff50 	bl	80067bc <__b2d>
 800691c:	9b01      	ldr	r3, [sp, #4]
 800691e:	6919      	ldr	r1, [r3, #16]
 8006920:	9b00      	ldr	r3, [sp, #0]
 8006922:	691b      	ldr	r3, [r3, #16]
 8006924:	1ac9      	subs	r1, r1, r3
 8006926:	e9dd 3202 	ldrd	r3, r2, [sp, #8]
 800692a:	1a9b      	subs	r3, r3, r2
 800692c:	ec5b ab10 	vmov	sl, fp, d0
 8006930:	eb03 1341 	add.w	r3, r3, r1, lsl #5
 8006934:	2b00      	cmp	r3, #0
 8006936:	bfce      	itee	gt
 8006938:	462a      	movgt	r2, r5
 800693a:	ebc3 3303 	rsble	r3, r3, r3, lsl #12
 800693e:	465a      	movle	r2, fp
 8006940:	462f      	mov	r7, r5
 8006942:	46d9      	mov	r9, fp
 8006944:	bfcc      	ite	gt
 8006946:	eb02 5703 	addgt.w	r7, r2, r3, lsl #20
 800694a:	eb02 5903 	addle.w	r9, r2, r3, lsl #20
 800694e:	464b      	mov	r3, r9
 8006950:	4652      	mov	r2, sl
 8006952:	4620      	mov	r0, r4
 8006954:	4639      	mov	r1, r7
 8006956:	f7f9 ff81 	bl	800085c <__aeabi_ddiv>
 800695a:	ec41 0b10 	vmov	d0, r0, r1
 800695e:	b005      	add	sp, #20
 8006960:	e8bd 8ff0 	ldmia.w	sp!, {r4, r5, r6, r7, r8, r9, sl, fp, pc}

08006964 <__copybits>:
 8006964:	3901      	subs	r1, #1
 8006966:	b570      	push	{r4, r5, r6, lr}
 8006968:	1149      	asrs	r1, r1, #5
 800696a:	6914      	ldr	r4, [r2, #16]
 800696c:	3101      	adds	r1, #1
 800696e:	f102 0314 	add.w	r3, r2, #20
 8006972:	eb00 0181 	add.w	r1, r0, r1, lsl #2
 8006976:	eb03 0484 	add.w	r4, r3, r4, lsl #2
 800697a:	1f05      	subs	r5, r0, #4
 800697c:	42a3      	cmp	r3, r4
 800697e:	d30c      	bcc.n	800699a <__copybits+0x36>
 8006980:	1aa3      	subs	r3, r4, r2
 8006982:	3b11      	subs	r3, #17
 8006984:	f023 0303 	bic.w	r3, r3, #3
 8006988:	3211      	adds	r2, #17
 800698a:	42a2      	cmp	r2, r4
 800698c:	bf88      	it	hi
 800698e:	2300      	movhi	r3, #0
 8006990:	4418      	add	r0, r3
 8006992:	2300      	movs	r3, #0
 8006994:	4288      	cmp	r0, r1
 8006996:	d305      	bcc.n	80069a4 <__copybits+0x40>
 8006998:	bd70      	pop	{r4, r5, r6, pc}
 800699a:	f853 6b04 	ldr.w	r6, [r3], #4
 800699e:	f845 6f04 	str.w	r6, [r5, #4]!
 80069a2:	e7eb      	b.n	800697c <__copybits+0x18>
 80069a4:	f840 3b04 	str.w	r3, [r0], #4
 80069a8:	e7f4      	b.n	8006994 <__copybits+0x30>

080069aa <__any_on>:
 80069aa:	f100 0214 	add.w	r2, r0, #20
 80069ae:	6900      	ldr	r0, [r0, #16]
 80069b0:	114b      	asrs	r3, r1, #5
 80069b2:	4298      	cmp	r0, r3
 80069b4:	b510      	push	{r4, lr}
 80069b6:	db11      	blt.n	80069dc <__any_on+0x32>
 80069b8:	dd0a      	ble.n	80069d0 <__any_on+0x26>
 80069ba:	f011 011f 	ands.w	r1, r1, #31
 80069be:	d007      	beq.n	80069d0 <__any_on+0x26>
 80069c0:	f852 4023 	ldr.w	r4, [r2, r3, lsl #2]
 80069c4:	fa24 f001 	lsr.w	r0, r4, r1
 80069c8:	fa00 f101 	lsl.w	r1, r0, r1
 80069cc:	428c      	cmp	r4, r1
 80069ce:	d10b      	bne.n	80069e8 <__any_on+0x3e>
 80069d0:	eb02 0383 	add.w	r3, r2, r3, lsl #2
 80069d4:	4293      	cmp	r3, r2
 80069d6:	d803      	bhi.n	80069e0 <__any_on+0x36>
 80069d8:	2000      	movs	r0, #0
 80069da:	bd10      	pop	{r4, pc}
 80069dc:	4603      	mov	r3, r0
 80069de:	e7f7      	b.n	80069d0 <__any_on+0x26>
 80069e0:	f853 1d04 	ldr.w	r1, [r3, #-4]!
 80069e4:	2900      	cmp	r1, #0
 80069e6:	d0f5      	beq.n	80069d4 <__any_on+0x2a>
 80069e8:	2001      	movs	r0, #1
 80069ea:	e7f6      	b.n	80069da <__any_on+0x30>

080069ec <sulp>:
 80069ec:	b570      	push	{r4, r5, r6, lr}
 80069ee:	4604      	mov	r4, r0
 80069f0:	460d      	mov	r5, r1
 80069f2:	ec45 4b10 	vmov	d0, r4, r5
 80069f6:	4616      	mov	r6, r2
 80069f8:	f7ff feba 	bl	8006770 <__ulp>
 80069fc:	ec51 0b10 	vmov	r0, r1, d0
 8006a00:	b17e      	cbz	r6, 8006a22 <sulp+0x36>
 8006a02:	f3c5 530a 	ubfx	r3, r5, #20, #11
 8006a06:	f1c3 036b 	rsb	r3, r3, #107	@ 0x6b
 8006a0a:	2b00      	cmp	r3, #0
 8006a0c:	dd09      	ble.n	8006a22 <sulp+0x36>
 8006a0e:	051b      	lsls	r3, r3, #20
 8006a10:	f103 557f 	add.w	r5, r3, #1069547520	@ 0x3fc00000
 8006a14:	2400      	movs	r4, #0
 8006a16:	f505 1540 	add.w	r5, r5, #3145728	@ 0x300000
 8006a1a:	4622      	mov	r2, r4
 8006a1c:	462b      	mov	r3, r5
 8006a1e:	f7f9 fdf3 	bl	8000608 <__aeabi_dmul>
 8006a22:	ec41 0b10 	vmov	d0, r0, r1
 8006a26:	bd70      	pop	{r4, r5, r6, pc}

08006a28 <_strtod_l>:
 8006a28:	e92d 4ff0 	stmdb	sp!, {r4, r5, r6, r7, r8, r9, sl, fp, lr}
 8006a2c:	b09f      	sub	sp, #124	@ 0x7c
 8006a2e:	460c      	mov	r4, r1
 8006a30:	9217      	str	r2, [sp, #92]	@ 0x5c
 8006a32:	2200      	movs	r2, #0
 8006a34:	921a      	str	r2, [sp, #104]	@ 0x68
 8006a36:	9005      	str	r0, [sp, #20]
 8006a38:	f04f 0a00 	mov.w	sl, #0
 8006a3c:	f04f 0b00 	mov.w	fp, #0
 8006a40:	460a      	mov	r2, r1
 8006a42:	9219      	str	r2, [sp, #100]	@ 0x64
 8006a44:	7811      	ldrb	r1, [r2, #0]
 8006a46:	292b      	cmp	r1, #43	@ 0x2b
 8006a48:	d04a      	beq.n	8006ae0 <_strtod_l+0xb8>
 8006a4a:	d838      	bhi.n	8006abe <_strtod_l+0x96>
 8006a4c:	290d      	cmp	r1, #13
 8006a4e:	d832      	bhi.n	8006ab6 <_strtod_l+0x8e>
 8006a50:	2908      	cmp	r1, #8
 8006a52:	d832      	bhi.n	8006aba <_strtod_l+0x92>
 8006a54:	2900      	cmp	r1, #0
 8006a56:	d03b      	beq.n	8006ad0 <_strtod_l+0xa8>
 8006a58:	2200      	movs	r2, #0
 8006a5a:	920e      	str	r2, [sp, #56]	@ 0x38
 8006a5c:	9d19      	ldr	r5, [sp, #100]	@ 0x64
 8006a5e:	782a      	ldrb	r2, [r5, #0]
 8006a60:	2a30      	cmp	r2, #48	@ 0x30
 8006a62:	f040 80b2 	bne.w	8006bca <_strtod_l+0x1a2>
 8006a66:	786a      	ldrb	r2, [r5, #1]
 8006a68:	f002 02df 	and.w	r2, r2, #223	@ 0xdf
 8006a6c:	2a58      	cmp	r2, #88	@ 0x58
 8006a6e:	d16e      	bne.n	8006b4e <_strtod_l+0x126>
 8006a70:	9302      	str	r3, [sp, #8]
 8006a72:	9b0e      	ldr	r3, [sp, #56]	@ 0x38
 8006a74:	9301      	str	r3, [sp, #4]
 8006a76:	ab1a      	add	r3, sp, #104	@ 0x68
 8006a78:	9300      	str	r3, [sp, #0]
 8006a7a:	4a8f      	ldr	r2, [pc, #572]	@ (8006cb8 <_strtod_l+0x290>)
 8006a7c:	9805      	ldr	r0, [sp, #20]
 8006a7e:	ab1b      	add	r3, sp, #108	@ 0x6c
 8006a80:	a919      	add	r1, sp, #100	@ 0x64
 8006a82:	f001 f91b 	bl	8007cbc <__gethex>
 8006a86:	f010 060f 	ands.w	r6, r0, #15
 8006a8a:	4604      	mov	r4, r0
 8006a8c:	d005      	beq.n	8006a9a <_strtod_l+0x72>
 8006a8e:	2e06      	cmp	r6, #6
 8006a90:	d128      	bne.n	8006ae4 <_strtod_l+0xbc>
 8006a92:	3501      	adds	r5, #1
 8006a94:	2300      	movs	r3, #0
 8006a96:	9519      	str	r5, [sp, #100]	@ 0x64
 8006a98:	930e      	str	r3, [sp, #56]	@ 0x38
 8006a9a:	9b17      	ldr	r3, [sp, #92]	@ 0x5c
 8006a9c:	2b00      	cmp	r3, #0
 8006a9e:	f040 858e 	bne.w	80075be <_strtod_l+0xb96>
 8006aa2:	9b0e      	ldr	r3, [sp, #56]	@ 0x38
 8006aa4:	b1cb      	cbz	r3, 8006ada <_strtod_l+0xb2>
 8006aa6:	4652      	mov	r2, sl
 8006aa8:	f10b 4300 	add.w	r3, fp, #2147483648	@ 0x80000000
 8006aac:	ec43 2b10 	vmov	d0, r2, r3
 8006ab0:	b01f      	add	sp, #124	@ 0x7c
 8006ab2:	e8bd 8ff0 	ldmia.w	sp!, {r4, r5, r6, r7, r8, r9, sl, fp, pc}
 8006ab6:	2920      	cmp	r1, #32
 8006ab8:	d1ce      	bne.n	8006a58 <_strtod_l+0x30>
 8006aba:	3201      	adds	r2, #1
 8006abc:	e7c1      	b.n	8006a42 <_strtod_l+0x1a>
 8006abe:	292d      	cmp	r1, #45	@ 0x2d
 8006ac0:	d1ca      	bne.n	8006a58 <_strtod_l+0x30>
 8006ac2:	2101      	movs	r1, #1
 8006ac4:	910e      	str	r1, [sp, #56]	@ 0x38
 8006ac6:	1c51      	adds	r1, r2, #1
 8006ac8:	9119      	str	r1, [sp, #100]	@ 0x64
 8006aca:	7852      	ldrb	r2, [r2, #1]
 8006acc:	2a00      	cmp	r2, #0
 8006ace:	d1c5      	bne.n	8006a5c <_strtod_l+0x34>
 8006ad0:	9b17      	ldr	r3, [sp, #92]	@ 0x5c
 8006ad2:	9419      	str	r4, [sp, #100]	@ 0x64
 8006ad4:	2b00      	cmp	r3, #0
 8006ad6:	f040 8570 	bne.w	80075ba <_strtod_l+0xb92>
 8006ada:	4652      	mov	r2, sl
 8006adc:	465b      	mov	r3, fp
 8006ade:	e7e5      	b.n	8006aac <_strtod_l+0x84>
 8006ae0:	2100      	movs	r1, #0
 8006ae2:	e7ef      	b.n	8006ac4 <_strtod_l+0x9c>
 8006ae4:	9a1a      	ldr	r2, [sp, #104]	@ 0x68
 8006ae6:	b13a      	cbz	r2, 8006af8 <_strtod_l+0xd0>
 8006ae8:	2135      	movs	r1, #53	@ 0x35
 8006aea:	a81c      	add	r0, sp, #112	@ 0x70
 8006aec:	f7ff ff3a 	bl	8006964 <__copybits>
 8006af0:	991a      	ldr	r1, [sp, #104]	@ 0x68
 8006af2:	9805      	ldr	r0, [sp, #20]
 8006af4:	f7ff fb10 	bl	8006118 <_Bfree>
 8006af8:	3e01      	subs	r6, #1
 8006afa:	9a1b      	ldr	r2, [sp, #108]	@ 0x6c
 8006afc:	2e04      	cmp	r6, #4
 8006afe:	d806      	bhi.n	8006b0e <_strtod_l+0xe6>
 8006b00:	e8df f006 	tbb	[pc, r6]
 8006b04:	201d0314 	.word	0x201d0314
 8006b08:	14          	.byte	0x14
 8006b09:	00          	.byte	0x00
 8006b0a:	e9dd ab1c 	ldrd	sl, fp, [sp, #112]	@ 0x70
 8006b0e:	05e1      	lsls	r1, r4, #23
 8006b10:	bf48      	it	mi
 8006b12:	f04b 4b00 	orrmi.w	fp, fp, #2147483648	@ 0x80000000
 8006b16:	f02b 4300 	bic.w	r3, fp, #2147483648	@ 0x80000000
 8006b1a:	0d1b      	lsrs	r3, r3, #20
 8006b1c:	051b      	lsls	r3, r3, #20
 8006b1e:	2b00      	cmp	r3, #0
 8006b20:	d1bb      	bne.n	8006a9a <_strtod_l+0x72>
 8006b22:	f7fe fb1f 	bl	8005164 <__errno>
 8006b26:	2322      	movs	r3, #34	@ 0x22
 8006b28:	6003      	str	r3, [r0, #0]
 8006b2a:	e7b6      	b.n	8006a9a <_strtod_l+0x72>
 8006b2c:	e9dd a31c 	ldrd	sl, r3, [sp, #112]	@ 0x70
 8006b30:	f202 4233 	addw	r2, r2, #1075	@ 0x433
 8006b34:	f423 1380 	bic.w	r3, r3, #1048576	@ 0x100000
 8006b38:	ea43 5b02 	orr.w	fp, r3, r2, lsl #20
 8006b3c:	e7e7      	b.n	8006b0e <_strtod_l+0xe6>
 8006b3e:	f8df b180 	ldr.w	fp, [pc, #384]	@ 8006cc0 <_strtod_l+0x298>
 8006b42:	e7e4      	b.n	8006b0e <_strtod_l+0xe6>
 8006b44:	f06f 4b00 	mvn.w	fp, #2147483648	@ 0x80000000
 8006b48:	f04f 3aff 	mov.w	sl, #4294967295
 8006b4c:	e7df      	b.n	8006b0e <_strtod_l+0xe6>
 8006b4e:	9b19      	ldr	r3, [sp, #100]	@ 0x64
 8006b50:	1c5a      	adds	r2, r3, #1
 8006b52:	9219      	str	r2, [sp, #100]	@ 0x64
 8006b54:	785b      	ldrb	r3, [r3, #1]
 8006b56:	2b30      	cmp	r3, #48	@ 0x30
 8006b58:	d0f9      	beq.n	8006b4e <_strtod_l+0x126>
 8006b5a:	2b00      	cmp	r3, #0
 8006b5c:	d09d      	beq.n	8006a9a <_strtod_l+0x72>
 8006b5e:	2301      	movs	r3, #1
 8006b60:	2700      	movs	r7, #0
 8006b62:	9308      	str	r3, [sp, #32]
 8006b64:	9b19      	ldr	r3, [sp, #100]	@ 0x64
 8006b66:	930c      	str	r3, [sp, #48]	@ 0x30
 8006b68:	970b      	str	r7, [sp, #44]	@ 0x2c
 8006b6a:	46b9      	mov	r9, r7
 8006b6c:	220a      	movs	r2, #10
 8006b6e:	9819      	ldr	r0, [sp, #100]	@ 0x64
 8006b70:	7805      	ldrb	r5, [r0, #0]
 8006b72:	f1a5 0330 	sub.w	r3, r5, #48	@ 0x30
 8006b76:	b2d9      	uxtb	r1, r3
 8006b78:	2909      	cmp	r1, #9
 8006b7a:	d928      	bls.n	8006bce <_strtod_l+0x1a6>
 8006b7c:	494f      	ldr	r1, [pc, #316]	@ (8006cbc <_strtod_l+0x294>)
 8006b7e:	2201      	movs	r2, #1
 8006b80:	f000 ffd6 	bl	8007b30 <strncmp>
 8006b84:	2800      	cmp	r0, #0
 8006b86:	d032      	beq.n	8006bee <_strtod_l+0x1c6>
 8006b88:	2000      	movs	r0, #0
 8006b8a:	462a      	mov	r2, r5
 8006b8c:	900a      	str	r0, [sp, #40]	@ 0x28
 8006b8e:	464d      	mov	r5, r9
 8006b90:	4603      	mov	r3, r0
 8006b92:	2a65      	cmp	r2, #101	@ 0x65
 8006b94:	d001      	beq.n	8006b9a <_strtod_l+0x172>
 8006b96:	2a45      	cmp	r2, #69	@ 0x45
 8006b98:	d114      	bne.n	8006bc4 <_strtod_l+0x19c>
 8006b9a:	b91d      	cbnz	r5, 8006ba4 <_strtod_l+0x17c>
 8006b9c:	9a08      	ldr	r2, [sp, #32]
 8006b9e:	4302      	orrs	r2, r0
 8006ba0:	d096      	beq.n	8006ad0 <_strtod_l+0xa8>
 8006ba2:	2500      	movs	r5, #0
 8006ba4:	9c19      	ldr	r4, [sp, #100]	@ 0x64
 8006ba6:	1c62      	adds	r2, r4, #1
 8006ba8:	9219      	str	r2, [sp, #100]	@ 0x64
 8006baa:	7862      	ldrb	r2, [r4, #1]
 8006bac:	2a2b      	cmp	r2, #43	@ 0x2b
 8006bae:	d07a      	beq.n	8006ca6 <_strtod_l+0x27e>
 8006bb0:	2a2d      	cmp	r2, #45	@ 0x2d
 8006bb2:	d07e      	beq.n	8006cb2 <_strtod_l+0x28a>
 8006bb4:	f04f 0c00 	mov.w	ip, #0
 8006bb8:	f1a2 0130 	sub.w	r1, r2, #48	@ 0x30
 8006bbc:	2909      	cmp	r1, #9
 8006bbe:	f240 8085 	bls.w	8006ccc <_strtod_l+0x2a4>
 8006bc2:	9419      	str	r4, [sp, #100]	@ 0x64
 8006bc4:	f04f 0800 	mov.w	r8, #0
 8006bc8:	e0a5      	b.n	8006d16 <_strtod_l+0x2ee>
 8006bca:	2300      	movs	r3, #0
 8006bcc:	e7c8      	b.n	8006b60 <_strtod_l+0x138>
 8006bce:	f1b9 0f08 	cmp.w	r9, #8
 8006bd2:	bfd8      	it	le
 8006bd4:	990b      	ldrle	r1, [sp, #44]	@ 0x2c
 8006bd6:	f100 0001 	add.w	r0, r0, #1
 8006bda:	bfda      	itte	le
 8006bdc:	fb02 3301 	mlale	r3, r2, r1, r3
 8006be0:	930b      	strle	r3, [sp, #44]	@ 0x2c
 8006be2:	fb02 3707 	mlagt	r7, r2, r7, r3
 8006be6:	f109 0901 	add.w	r9, r9, #1
 8006bea:	9019      	str	r0, [sp, #100]	@ 0x64
 8006bec:	e7bf      	b.n	8006b6e <_strtod_l+0x146>
 8006bee:	9b19      	ldr	r3, [sp, #100]	@ 0x64
 8006bf0:	1c5a      	adds	r2, r3, #1
 8006bf2:	9219      	str	r2, [sp, #100]	@ 0x64
 8006bf4:	785a      	ldrb	r2, [r3, #1]
 8006bf6:	f1b9 0f00 	cmp.w	r9, #0
 8006bfa:	d03b      	beq.n	8006c74 <_strtod_l+0x24c>
 8006bfc:	900a      	str	r0, [sp, #40]	@ 0x28
 8006bfe:	464d      	mov	r5, r9
 8006c00:	f1a2 0330 	sub.w	r3, r2, #48	@ 0x30
 8006c04:	2b09      	cmp	r3, #9
 8006c06:	d912      	bls.n	8006c2e <_strtod_l+0x206>
 8006c08:	2301      	movs	r3, #1
 8006c0a:	e7c2      	b.n	8006b92 <_strtod_l+0x16a>
 8006c0c:	9b19      	ldr	r3, [sp, #100]	@ 0x64
 8006c0e:	1c5a      	adds	r2, r3, #1
 8006c10:	9219      	str	r2, [sp, #100]	@ 0x64
 8006c12:	785a      	ldrb	r2, [r3, #1]
 8006c14:	3001      	adds	r0, #1
 8006c16:	2a30      	cmp	r2, #48	@ 0x30
 8006c18:	d0f8      	beq.n	8006c0c <_strtod_l+0x1e4>
 8006c1a:	f1a2 0331 	sub.w	r3, r2, #49	@ 0x31
 8006c1e:	2b08      	cmp	r3, #8
 8006c20:	f200 84d2 	bhi.w	80075c8 <_strtod_l+0xba0>
 8006c24:	9b19      	ldr	r3, [sp, #100]	@ 0x64
 8006c26:	900a      	str	r0, [sp, #40]	@ 0x28
 8006c28:	2000      	movs	r0, #0
 8006c2a:	930c      	str	r3, [sp, #48]	@ 0x30
 8006c2c:	4605      	mov	r5, r0
 8006c2e:	3a30      	subs	r2, #48	@ 0x30
 8006c30:	f100 0301 	add.w	r3, r0, #1
 8006c34:	d018      	beq.n	8006c68 <_strtod_l+0x240>
 8006c36:	990a      	ldr	r1, [sp, #40]	@ 0x28
 8006c38:	4419      	add	r1, r3
 8006c3a:	910a      	str	r1, [sp, #40]	@ 0x28
 8006c3c:	462e      	mov	r6, r5
 8006c3e:	f04f 0e0a 	mov.w	lr, #10
 8006c42:	1c71      	adds	r1, r6, #1
 8006c44:	eba1 0c05 	sub.w	ip, r1, r5
 8006c48:	4563      	cmp	r3, ip
 8006c4a:	dc15      	bgt.n	8006c78 <_strtod_l+0x250>
 8006c4c:	ea20 70e0 	bic.w	r0, r0, r0, asr #31
 8006c50:	182b      	adds	r3, r5, r0
 8006c52:	2b08      	cmp	r3, #8
 8006c54:	f105 0501 	add.w	r5, r5, #1
 8006c58:	4405      	add	r5, r0
 8006c5a:	dc1a      	bgt.n	8006c92 <_strtod_l+0x26a>
 8006c5c:	990b      	ldr	r1, [sp, #44]	@ 0x2c
 8006c5e:	230a      	movs	r3, #10
 8006c60:	fb03 2301 	mla	r3, r3, r1, r2
 8006c64:	930b      	str	r3, [sp, #44]	@ 0x2c
 8006c66:	2300      	movs	r3, #0
 8006c68:	9a19      	ldr	r2, [sp, #100]	@ 0x64
 8006c6a:	1c51      	adds	r1, r2, #1
 8006c6c:	9119      	str	r1, [sp, #100]	@ 0x64
 8006c6e:	7852      	ldrb	r2, [r2, #1]
 8006c70:	4618      	mov	r0, r3
 8006c72:	e7c5      	b.n	8006c00 <_strtod_l+0x1d8>
 8006c74:	4648      	mov	r0, r9
 8006c76:	e7ce      	b.n	8006c16 <_strtod_l+0x1ee>
 8006c78:	2e08      	cmp	r6, #8
 8006c7a:	dc05      	bgt.n	8006c88 <_strtod_l+0x260>
 8006c7c:	9e0b      	ldr	r6, [sp, #44]	@ 0x2c
 8006c7e:	fb0e f606 	mul.w	r6, lr, r6
 8006c82:	960b      	str	r6, [sp, #44]	@ 0x2c
 8006c84:	460e      	mov	r6, r1
 8006c86:	e7dc      	b.n	8006c42 <_strtod_l+0x21a>
 8006c88:	2910      	cmp	r1, #16
 8006c8a:	bfd8      	it	le
 8006c8c:	fb0e f707 	mulle.w	r7, lr, r7
 8006c90:	e7f8      	b.n	8006c84 <_strtod_l+0x25c>
 8006c92:	2b0f      	cmp	r3, #15
 8006c94:	bfdc      	itt	le
 8006c96:	230a      	movle	r3, #10
 8006c98:	fb03 2707 	mlale	r7, r3, r7, r2
 8006c9c:	e7e3      	b.n	8006c66 <_strtod_l+0x23e>
 8006c9e:	2300      	movs	r3, #0
 8006ca0:	930a      	str	r3, [sp, #40]	@ 0x28
 8006ca2:	2301      	movs	r3, #1
 8006ca4:	e77a      	b.n	8006b9c <_strtod_l+0x174>
 8006ca6:	f04f 0c00 	mov.w	ip, #0
 8006caa:	1ca2      	adds	r2, r4, #2
 8006cac:	9219      	str	r2, [sp, #100]	@ 0x64
 8006cae:	78a2      	ldrb	r2, [r4, #2]
 8006cb0:	e782      	b.n	8006bb8 <_strtod_l+0x190>
 8006cb2:	f04f 0c01 	mov.w	ip, #1
 8006cb6:	e7f8      	b.n	8006caa <_strtod_l+0x282>
 8006cb8:	08008bc4 	.word	0x08008bc4
 8006cbc:	080089e3 	.word	0x080089e3
 8006cc0:	7ff00000 	.word	0x7ff00000
 8006cc4:	9a19      	ldr	r2, [sp, #100]	@ 0x64
 8006cc6:	1c51      	adds	r1, r2, #1
 8006cc8:	9119      	str	r1, [sp, #100]	@ 0x64
 8006cca:	7852      	ldrb	r2, [r2, #1]
 8006ccc:	2a30      	cmp	r2, #48	@ 0x30
 8006cce:	d0f9      	beq.n	8006cc4 <_strtod_l+0x29c>
 8006cd0:	f1a2 0131 	sub.w	r1, r2, #49	@ 0x31
 8006cd4:	2908      	cmp	r1, #8
 8006cd6:	f63f af75 	bhi.w	8006bc4 <_strtod_l+0x19c>
 8006cda:	3a30      	subs	r2, #48	@ 0x30
 8006cdc:	9209      	str	r2, [sp, #36]	@ 0x24
 8006cde:	9a19      	ldr	r2, [sp, #100]	@ 0x64
 8006ce0:	920f      	str	r2, [sp, #60]	@ 0x3c
 8006ce2:	f04f 080a 	mov.w	r8, #10
 8006ce6:	9a19      	ldr	r2, [sp, #100]	@ 0x64
 8006ce8:	1c56      	adds	r6, r2, #1
 8006cea:	9619      	str	r6, [sp, #100]	@ 0x64
 8006cec:	7852      	ldrb	r2, [r2, #1]
 8006cee:	f1a2 0e30 	sub.w	lr, r2, #48	@ 0x30
 8006cf2:	f1be 0f09 	cmp.w	lr, #9
 8006cf6:	d939      	bls.n	8006d6c <_strtod_l+0x344>
 8006cf8:	990f      	ldr	r1, [sp, #60]	@ 0x3c
 8006cfa:	1a76      	subs	r6, r6, r1
 8006cfc:	2e08      	cmp	r6, #8
 8006cfe:	f644 681f 	movw	r8, #19999	@ 0x4e1f
 8006d02:	dc03      	bgt.n	8006d0c <_strtod_l+0x2e4>
 8006d04:	9909      	ldr	r1, [sp, #36]	@ 0x24
 8006d06:	4588      	cmp	r8, r1
 8006d08:	bfa8      	it	ge
 8006d0a:	4688      	movge	r8, r1
 8006d0c:	f1bc 0f00 	cmp.w	ip, #0
 8006d10:	d001      	beq.n	8006d16 <_strtod_l+0x2ee>
 8006d12:	f1c8 0800 	rsb	r8, r8, #0
 8006d16:	2d00      	cmp	r5, #0
 8006d18:	d14e      	bne.n	8006db8 <_strtod_l+0x390>
 8006d1a:	9908      	ldr	r1, [sp, #32]
 8006d1c:	4308      	orrs	r0, r1
 8006d1e:	f47f aebc 	bne.w	8006a9a <_strtod_l+0x72>
 8006d22:	2b00      	cmp	r3, #0
 8006d24:	f47f aed4 	bne.w	8006ad0 <_strtod_l+0xa8>
 8006d28:	2a69      	cmp	r2, #105	@ 0x69
 8006d2a:	d028      	beq.n	8006d7e <_strtod_l+0x356>
 8006d2c:	dc25      	bgt.n	8006d7a <_strtod_l+0x352>
 8006d2e:	2a49      	cmp	r2, #73	@ 0x49
 8006d30:	d025      	beq.n	8006d7e <_strtod_l+0x356>
 8006d32:	2a4e      	cmp	r2, #78	@ 0x4e
 8006d34:	f47f aecc 	bne.w	8006ad0 <_strtod_l+0xa8>
 8006d38:	499a      	ldr	r1, [pc, #616]	@ (8006fa4 <_strtod_l+0x57c>)
 8006d3a:	a819      	add	r0, sp, #100	@ 0x64
 8006d3c:	f001 f9e0 	bl	8008100 <__match>
 8006d40:	2800      	cmp	r0, #0
 8006d42:	f43f aec5 	beq.w	8006ad0 <_strtod_l+0xa8>
 8006d46:	9b19      	ldr	r3, [sp, #100]	@ 0x64
 8006d48:	781b      	ldrb	r3, [r3, #0]
 8006d4a:	2b28      	cmp	r3, #40	@ 0x28
 8006d4c:	d12e      	bne.n	8006dac <_strtod_l+0x384>
 8006d4e:	4996      	ldr	r1, [pc, #600]	@ (8006fa8 <_strtod_l+0x580>)
 8006d50:	aa1c      	add	r2, sp, #112	@ 0x70
 8006d52:	a819      	add	r0, sp, #100	@ 0x64
 8006d54:	f001 f9e8 	bl	8008128 <__hexnan>
 8006d58:	2805      	cmp	r0, #5
 8006d5a:	d127      	bne.n	8006dac <_strtod_l+0x384>
 8006d5c:	9b1d      	ldr	r3, [sp, #116]	@ 0x74
 8006d5e:	f8dd a070 	ldr.w	sl, [sp, #112]	@ 0x70
 8006d62:	f043 4bff 	orr.w	fp, r3, #2139095040	@ 0x7f800000
 8006d66:	f44b 0be0 	orr.w	fp, fp, #7340032	@ 0x700000
 8006d6a:	e696      	b.n	8006a9a <_strtod_l+0x72>
 8006d6c:	9909      	ldr	r1, [sp, #36]	@ 0x24
 8006d6e:	fb08 2101 	mla	r1, r8, r1, r2
 8006d72:	f1a1 0230 	sub.w	r2, r1, #48	@ 0x30
 8006d76:	9209      	str	r2, [sp, #36]	@ 0x24
 8006d78:	e7b5      	b.n	8006ce6 <_strtod_l+0x2be>
 8006d7a:	2a6e      	cmp	r2, #110	@ 0x6e
 8006d7c:	e7da      	b.n	8006d34 <_strtod_l+0x30c>
 8006d7e:	498b      	ldr	r1, [pc, #556]	@ (8006fac <_strtod_l+0x584>)
 8006d80:	a819      	add	r0, sp, #100	@ 0x64
 8006d82:	f001 f9bd 	bl	8008100 <__match>
 8006d86:	2800      	cmp	r0, #0
 8006d88:	f43f aea2 	beq.w	8006ad0 <_strtod_l+0xa8>
 8006d8c:	9b19      	ldr	r3, [sp, #100]	@ 0x64
 8006d8e:	4988      	ldr	r1, [pc, #544]	@ (8006fb0 <_strtod_l+0x588>)
 8006d90:	3b01      	subs	r3, #1
 8006d92:	a819      	add	r0, sp, #100	@ 0x64
 8006d94:	9319      	str	r3, [sp, #100]	@ 0x64
 8006d96:	f001 f9b3 	bl	8008100 <__match>
 8006d9a:	b910      	cbnz	r0, 8006da2 <_strtod_l+0x37a>
 8006d9c:	9b19      	ldr	r3, [sp, #100]	@ 0x64
 8006d9e:	3301      	adds	r3, #1
 8006da0:	9319      	str	r3, [sp, #100]	@ 0x64
 8006da2:	f8df b21c 	ldr.w	fp, [pc, #540]	@ 8006fc0 <_strtod_l+0x598>
 8006da6:	f04f 0a00 	mov.w	sl, #0
 8006daa:	e676      	b.n	8006a9a <_strtod_l+0x72>
 8006dac:	4881      	ldr	r0, [pc, #516]	@ (8006fb4 <_strtod_l+0x58c>)
 8006dae:	f000 fee3 	bl	8007b78 <nan>
 8006db2:	ec5b ab10 	vmov	sl, fp, d0
 8006db6:	e670      	b.n	8006a9a <_strtod_l+0x72>
 8006db8:	9b0a      	ldr	r3, [sp, #40]	@ 0x28
 8006dba:	980b      	ldr	r0, [sp, #44]	@ 0x2c
 8006dbc:	eba8 0303 	sub.w	r3, r8, r3
 8006dc0:	f1b9 0f00 	cmp.w	r9, #0
 8006dc4:	bf08      	it	eq
 8006dc6:	46a9      	moveq	r9, r5
 8006dc8:	2d10      	cmp	r5, #16
 8006dca:	9309      	str	r3, [sp, #36]	@ 0x24
 8006dcc:	462c      	mov	r4, r5
 8006dce:	bfa8      	it	ge
 8006dd0:	2410      	movge	r4, #16
 8006dd2:	f7f9 fb9f 	bl	8000514 <__aeabi_ui2d>
 8006dd6:	2d09      	cmp	r5, #9
 8006dd8:	4682      	mov	sl, r0
 8006dda:	468b      	mov	fp, r1
 8006ddc:	dc13      	bgt.n	8006e06 <_strtod_l+0x3de>
 8006dde:	9b09      	ldr	r3, [sp, #36]	@ 0x24
 8006de0:	2b00      	cmp	r3, #0
 8006de2:	f43f ae5a 	beq.w	8006a9a <_strtod_l+0x72>
 8006de6:	9b09      	ldr	r3, [sp, #36]	@ 0x24
 8006de8:	dd78      	ble.n	8006edc <_strtod_l+0x4b4>
 8006dea:	2b16      	cmp	r3, #22
 8006dec:	dc5f      	bgt.n	8006eae <_strtod_l+0x486>
 8006dee:	4972      	ldr	r1, [pc, #456]	@ (8006fb8 <_strtod_l+0x590>)
 8006df0:	eb01 01c3 	add.w	r1, r1, r3, lsl #3
 8006df4:	e9d1 0100 	ldrd	r0, r1, [r1]
 8006df8:	4652      	mov	r2, sl
 8006dfa:	465b      	mov	r3, fp
 8006dfc:	f7f9 fc04 	bl	8000608 <__aeabi_dmul>
 8006e00:	4682      	mov	sl, r0
 8006e02:	468b      	mov	fp, r1
 8006e04:	e649      	b.n	8006a9a <_strtod_l+0x72>
 8006e06:	4b6c      	ldr	r3, [pc, #432]	@ (8006fb8 <_strtod_l+0x590>)
 8006e08:	eb03 03c4 	add.w	r3, r3, r4, lsl #3
 8006e0c:	e953 2312 	ldrd	r2, r3, [r3, #-72]	@ 0x48
 8006e10:	f7f9 fbfa 	bl	8000608 <__aeabi_dmul>
 8006e14:	4682      	mov	sl, r0
 8006e16:	4638      	mov	r0, r7
 8006e18:	468b      	mov	fp, r1
 8006e1a:	f7f9 fb7b 	bl	8000514 <__aeabi_ui2d>
 8006e1e:	4602      	mov	r2, r0
 8006e20:	460b      	mov	r3, r1
 8006e22:	4650      	mov	r0, sl
 8006e24:	4659      	mov	r1, fp
 8006e26:	f7f9 fa39 	bl	800029c <__adddf3>
 8006e2a:	2d0f      	cmp	r5, #15
 8006e2c:	4682      	mov	sl, r0
 8006e2e:	468b      	mov	fp, r1
 8006e30:	ddd5      	ble.n	8006dde <_strtod_l+0x3b6>
 8006e32:	9b09      	ldr	r3, [sp, #36]	@ 0x24
 8006e34:	1b2c      	subs	r4, r5, r4
 8006e36:	441c      	add	r4, r3
 8006e38:	2c00      	cmp	r4, #0
 8006e3a:	f340 8093 	ble.w	8006f64 <_strtod_l+0x53c>
 8006e3e:	f014 030f 	ands.w	r3, r4, #15
 8006e42:	d00a      	beq.n	8006e5a <_strtod_l+0x432>
 8006e44:	495c      	ldr	r1, [pc, #368]	@ (8006fb8 <_strtod_l+0x590>)
 8006e46:	eb01 01c3 	add.w	r1, r1, r3, lsl #3
 8006e4a:	4652      	mov	r2, sl
 8006e4c:	465b      	mov	r3, fp
 8006e4e:	e9d1 0100 	ldrd	r0, r1, [r1]
 8006e52:	f7f9 fbd9 	bl	8000608 <__aeabi_dmul>
 8006e56:	4682      	mov	sl, r0
 8006e58:	468b      	mov	fp, r1
 8006e5a:	f034 040f 	bics.w	r4, r4, #15
 8006e5e:	d073      	beq.n	8006f48 <_strtod_l+0x520>
 8006e60:	f5b4 7f9a 	cmp.w	r4, #308	@ 0x134
 8006e64:	dd49      	ble.n	8006efa <_strtod_l+0x4d2>
 8006e66:	2400      	movs	r4, #0
 8006e68:	46a0      	mov	r8, r4
 8006e6a:	940b      	str	r4, [sp, #44]	@ 0x2c
 8006e6c:	46a1      	mov	r9, r4
 8006e6e:	9a05      	ldr	r2, [sp, #20]
 8006e70:	f8df b14c 	ldr.w	fp, [pc, #332]	@ 8006fc0 <_strtod_l+0x598>
 8006e74:	2322      	movs	r3, #34	@ 0x22
 8006e76:	6013      	str	r3, [r2, #0]
 8006e78:	f04f 0a00 	mov.w	sl, #0
 8006e7c:	9b0b      	ldr	r3, [sp, #44]	@ 0x2c
 8006e7e:	2b00      	cmp	r3, #0
 8006e80:	f43f ae0b 	beq.w	8006a9a <_strtod_l+0x72>
 8006e84:	991a      	ldr	r1, [sp, #104]	@ 0x68
 8006e86:	9805      	ldr	r0, [sp, #20]
 8006e88:	f7ff f946 	bl	8006118 <_Bfree>
 8006e8c:	9805      	ldr	r0, [sp, #20]
 8006e8e:	4649      	mov	r1, r9
 8006e90:	f7ff f942 	bl	8006118 <_Bfree>
 8006e94:	9805      	ldr	r0, [sp, #20]
 8006e96:	4641      	mov	r1, r8
 8006e98:	f7ff f93e 	bl	8006118 <_Bfree>
 8006e9c:	990b      	ldr	r1, [sp, #44]	@ 0x2c
 8006e9e:	9805      	ldr	r0, [sp, #20]
 8006ea0:	f7ff f93a 	bl	8006118 <_Bfree>
 8006ea4:	9805      	ldr	r0, [sp, #20]
 8006ea6:	4621      	mov	r1, r4
 8006ea8:	f7ff f936 	bl	8006118 <_Bfree>
 8006eac:	e5f5      	b.n	8006a9a <_strtod_l+0x72>
 8006eae:	9a09      	ldr	r2, [sp, #36]	@ 0x24
 8006eb0:	f1c5 0325 	rsb	r3, r5, #37	@ 0x25
 8006eb4:	4293      	cmp	r3, r2
 8006eb6:	dbbc      	blt.n	8006e32 <_strtod_l+0x40a>
 8006eb8:	4c3f      	ldr	r4, [pc, #252]	@ (8006fb8 <_strtod_l+0x590>)
 8006eba:	f1c5 050f 	rsb	r5, r5, #15
 8006ebe:	eb04 01c5 	add.w	r1, r4, r5, lsl #3
 8006ec2:	4652      	mov	r2, sl
 8006ec4:	465b      	mov	r3, fp
 8006ec6:	e9d1 0100 	ldrd	r0, r1, [r1]
 8006eca:	f7f9 fb9d 	bl	8000608 <__aeabi_dmul>
 8006ece:	9b09      	ldr	r3, [sp, #36]	@ 0x24
 8006ed0:	1b5d      	subs	r5, r3, r5
 8006ed2:	eb04 04c5 	add.w	r4, r4, r5, lsl #3
 8006ed6:	e9d4 2300 	ldrd	r2, r3, [r4]
 8006eda:	e78f      	b.n	8006dfc <_strtod_l+0x3d4>
 8006edc:	3316      	adds	r3, #22
 8006ede:	dba8      	blt.n	8006e32 <_strtod_l+0x40a>
 8006ee0:	9b0a      	ldr	r3, [sp, #40]	@ 0x28
 8006ee2:	eba3 0808 	sub.w	r8, r3, r8
 8006ee6:	4b34      	ldr	r3, [pc, #208]	@ (8006fb8 <_strtod_l+0x590>)
 8006ee8:	eb03 08c8 	add.w	r8, r3, r8, lsl #3
 8006eec:	e9d8 2300 	ldrd	r2, r3, [r8]
 8006ef0:	4650      	mov	r0, sl
 8006ef2:	4659      	mov	r1, fp
 8006ef4:	f7f9 fcb2 	bl	800085c <__aeabi_ddiv>
 8006ef8:	e782      	b.n	8006e00 <_strtod_l+0x3d8>
 8006efa:	2300      	movs	r3, #0
 8006efc:	4f2f      	ldr	r7, [pc, #188]	@ (8006fbc <_strtod_l+0x594>)
 8006efe:	1124      	asrs	r4, r4, #4
 8006f00:	4650      	mov	r0, sl
 8006f02:	4659      	mov	r1, fp
 8006f04:	461e      	mov	r6, r3
 8006f06:	2c01      	cmp	r4, #1
 8006f08:	dc21      	bgt.n	8006f4e <_strtod_l+0x526>
 8006f0a:	b10b      	cbz	r3, 8006f10 <_strtod_l+0x4e8>
 8006f0c:	4682      	mov	sl, r0
 8006f0e:	468b      	mov	fp, r1
 8006f10:	492a      	ldr	r1, [pc, #168]	@ (8006fbc <_strtod_l+0x594>)
 8006f12:	f1ab 7b54 	sub.w	fp, fp, #55574528	@ 0x3500000
 8006f16:	eb01 01c6 	add.w	r1, r1, r6, lsl #3
 8006f1a:	4652      	mov	r2, sl
 8006f1c:	465b      	mov	r3, fp
 8006f1e:	e9d1 0100 	ldrd	r0, r1, [r1]
 8006f22:	f7f9 fb71 	bl	8000608 <__aeabi_dmul>
 8006f26:	4b26      	ldr	r3, [pc, #152]	@ (8006fc0 <_strtod_l+0x598>)
 8006f28:	460a      	mov	r2, r1
 8006f2a:	400b      	ands	r3, r1
 8006f2c:	4925      	ldr	r1, [pc, #148]	@ (8006fc4 <_strtod_l+0x59c>)
 8006f2e:	428b      	cmp	r3, r1
 8006f30:	4682      	mov	sl, r0
 8006f32:	d898      	bhi.n	8006e66 <_strtod_l+0x43e>
 8006f34:	f5a1 1180 	sub.w	r1, r1, #1048576	@ 0x100000
 8006f38:	428b      	cmp	r3, r1
 8006f3a:	bf86      	itte	hi
 8006f3c:	f8df b088 	ldrhi.w	fp, [pc, #136]	@ 8006fc8 <_strtod_l+0x5a0>
 8006f40:	f04f 3aff 	movhi.w	sl, #4294967295
 8006f44:	f102 7b54 	addls.w	fp, r2, #55574528	@ 0x3500000
 8006f48:	2300      	movs	r3, #0
 8006f4a:	9308      	str	r3, [sp, #32]
 8006f4c:	e076      	b.n	800703c <_strtod_l+0x614>
 8006f4e:	07e2      	lsls	r2, r4, #31
 8006f50:	d504      	bpl.n	8006f5c <_strtod_l+0x534>
 8006f52:	e9d7 2300 	ldrd	r2, r3, [r7]
 8006f56:	f7f9 fb57 	bl	8000608 <__aeabi_dmul>
 8006f5a:	2301      	movs	r3, #1
 8006f5c:	3601      	adds	r6, #1
 8006f5e:	1064      	asrs	r4, r4, #1
 8006f60:	3708      	adds	r7, #8
 8006f62:	e7d0      	b.n	8006f06 <_strtod_l+0x4de>
 8006f64:	d0f0      	beq.n	8006f48 <_strtod_l+0x520>
 8006f66:	4264      	negs	r4, r4
 8006f68:	f014 020f 	ands.w	r2, r4, #15
 8006f6c:	d00a      	beq.n	8006f84 <_strtod_l+0x55c>
 8006f6e:	4b12      	ldr	r3, [pc, #72]	@ (8006fb8 <_strtod_l+0x590>)
 8006f70:	eb03 03c2 	add.w	r3, r3, r2, lsl #3
 8006f74:	4650      	mov	r0, sl
 8006f76:	4659      	mov	r1, fp
 8006f78:	e9d3 2300 	ldrd	r2, r3, [r3]
 8006f7c:	f7f9 fc6e 	bl	800085c <__aeabi_ddiv>
 8006f80:	4682      	mov	sl, r0
 8006f82:	468b      	mov	fp, r1
 8006f84:	1124      	asrs	r4, r4, #4
 8006f86:	d0df      	beq.n	8006f48 <_strtod_l+0x520>
 8006f88:	2c1f      	cmp	r4, #31
 8006f8a:	dd1f      	ble.n	8006fcc <_strtod_l+0x5a4>
 8006f8c:	2400      	movs	r4, #0
 8006f8e:	46a0      	mov	r8, r4
 8006f90:	940b      	str	r4, [sp, #44]	@ 0x2c
 8006f92:	46a1      	mov	r9, r4
 8006f94:	9a05      	ldr	r2, [sp, #20]
 8006f96:	2322      	movs	r3, #34	@ 0x22
 8006f98:	f04f 0a00 	mov.w	sl, #0
 8006f9c:	f04f 0b00 	mov.w	fp, #0
 8006fa0:	6013      	str	r3, [r2, #0]
 8006fa2:	e76b      	b.n	8006e7c <_strtod_l+0x454>
 8006fa4:	080088d1 	.word	0x080088d1
 8006fa8:	08008bb0 	.word	0x08008bb0
 8006fac:	080088c9 	.word	0x080088c9
 8006fb0:	08008900 	.word	0x08008900
 8006fb4:	0800889a 	.word	0x0800889a
 8006fb8:	08008ae8 	.word	0x08008ae8
 8006fbc:	08008ac0 	.word	0x08008ac0
 8006fc0:	7ff00000 	.word	0x7ff00000
 8006fc4:	7ca00000 	.word	0x7ca00000
 8006fc8:	7fefffff 	.word	0x7fefffff
 8006fcc:	f014 0310 	ands.w	r3, r4, #16
 8006fd0:	bf18      	it	ne
 8006fd2:	236a      	movne	r3, #106	@ 0x6a
 8006fd4:	4ea9      	ldr	r6, [pc, #676]	@ (800727c <_strtod_l+0x854>)
 8006fd6:	9308      	str	r3, [sp, #32]
 8006fd8:	4650      	mov	r0, sl
 8006fda:	4659      	mov	r1, fp
 8006fdc:	2300      	movs	r3, #0
 8006fde:	07e7      	lsls	r7, r4, #31
 8006fe0:	d504      	bpl.n	8006fec <_strtod_l+0x5c4>
 8006fe2:	e9d6 2300 	ldrd	r2, r3, [r6]
 8006fe6:	f7f9 fb0f 	bl	8000608 <__aeabi_dmul>
 8006fea:	2301      	movs	r3, #1
 8006fec:	1064      	asrs	r4, r4, #1
 8006fee:	f106 0608 	add.w	r6, r6, #8
 8006ff2:	d1f4      	bne.n	8006fde <_strtod_l+0x5b6>
 8006ff4:	b10b      	cbz	r3, 8006ffa <_strtod_l+0x5d2>
 8006ff6:	4682      	mov	sl, r0
 8006ff8:	468b      	mov	fp, r1
 8006ffa:	9b08      	ldr	r3, [sp, #32]
 8006ffc:	b1b3      	cbz	r3, 800702c <_strtod_l+0x604>
 8006ffe:	f3cb 520a 	ubfx	r2, fp, #20, #11
 8007002:	f1c2 036b 	rsb	r3, r2, #107	@ 0x6b
 8007006:	2b00      	cmp	r3, #0
 8007008:	4659      	mov	r1, fp
 800700a:	dd0f      	ble.n	800702c <_strtod_l+0x604>
 800700c:	2b1f      	cmp	r3, #31
 800700e:	dd56      	ble.n	80070be <_strtod_l+0x696>
 8007010:	2b34      	cmp	r3, #52	@ 0x34
 8007012:	bfde      	ittt	le
 8007014:	f04f 33ff 	movle.w	r3, #4294967295
 8007018:	f1c2 024b 	rsble	r2, r2, #75	@ 0x4b
 800701c:	4093      	lslle	r3, r2
 800701e:	f04f 0a00 	mov.w	sl, #0
 8007022:	bfcc      	ite	gt
 8007024:	f04f 7b5c 	movgt.w	fp, #57671680	@ 0x3700000
 8007028:	ea03 0b01 	andle.w	fp, r3, r1
 800702c:	2200      	movs	r2, #0
 800702e:	2300      	movs	r3, #0
 8007030:	4650      	mov	r0, sl
 8007032:	4659      	mov	r1, fp
 8007034:	f7f9 fd50 	bl	8000ad8 <__aeabi_dcmpeq>
 8007038:	2800      	cmp	r0, #0
 800703a:	d1a7      	bne.n	8006f8c <_strtod_l+0x564>
 800703c:	9b0b      	ldr	r3, [sp, #44]	@ 0x2c
 800703e:	9300      	str	r3, [sp, #0]
 8007040:	990c      	ldr	r1, [sp, #48]	@ 0x30
 8007042:	9805      	ldr	r0, [sp, #20]
 8007044:	462b      	mov	r3, r5
 8007046:	464a      	mov	r2, r9
 8007048:	f7ff f8ce 	bl	80061e8 <__s2b>
 800704c:	900b      	str	r0, [sp, #44]	@ 0x2c
 800704e:	2800      	cmp	r0, #0
 8007050:	f43f af09 	beq.w	8006e66 <_strtod_l+0x43e>
 8007054:	9a09      	ldr	r2, [sp, #36]	@ 0x24
 8007056:	9b0a      	ldr	r3, [sp, #40]	@ 0x28
 8007058:	2a00      	cmp	r2, #0
 800705a:	eba3 0308 	sub.w	r3, r3, r8
 800705e:	bfa8      	it	ge
 8007060:	2300      	movge	r3, #0
 8007062:	9312      	str	r3, [sp, #72]	@ 0x48
 8007064:	2400      	movs	r4, #0
 8007066:	ea22 73e2 	bic.w	r3, r2, r2, asr #31
 800706a:	9316      	str	r3, [sp, #88]	@ 0x58
 800706c:	46a0      	mov	r8, r4
 800706e:	9b0b      	ldr	r3, [sp, #44]	@ 0x2c
 8007070:	9805      	ldr	r0, [sp, #20]
 8007072:	6859      	ldr	r1, [r3, #4]
 8007074:	f7ff f810 	bl	8006098 <_Balloc>
 8007078:	4681      	mov	r9, r0
 800707a:	2800      	cmp	r0, #0
 800707c:	f43f aef7 	beq.w	8006e6e <_strtod_l+0x446>
 8007080:	9b0b      	ldr	r3, [sp, #44]	@ 0x2c
 8007082:	691a      	ldr	r2, [r3, #16]
 8007084:	3202      	adds	r2, #2
 8007086:	f103 010c 	add.w	r1, r3, #12
 800708a:	0092      	lsls	r2, r2, #2
 800708c:	300c      	adds	r0, #12
 800708e:	f7fe f896 	bl	80051be <memcpy>
 8007092:	ec4b ab10 	vmov	d0, sl, fp
 8007096:	9805      	ldr	r0, [sp, #20]
 8007098:	aa1c      	add	r2, sp, #112	@ 0x70
 800709a:	a91b      	add	r1, sp, #108	@ 0x6c
 800709c:	e9cd ab0c 	strd	sl, fp, [sp, #48]	@ 0x30
 80070a0:	f7ff fbd6 	bl	8006850 <__d2b>
 80070a4:	901a      	str	r0, [sp, #104]	@ 0x68
 80070a6:	2800      	cmp	r0, #0
 80070a8:	f43f aee1 	beq.w	8006e6e <_strtod_l+0x446>
 80070ac:	9805      	ldr	r0, [sp, #20]
 80070ae:	2101      	movs	r1, #1
 80070b0:	f7ff f930 	bl	8006314 <__i2b>
 80070b4:	4680      	mov	r8, r0
 80070b6:	b948      	cbnz	r0, 80070cc <_strtod_l+0x6a4>
 80070b8:	f04f 0800 	mov.w	r8, #0
 80070bc:	e6d7      	b.n	8006e6e <_strtod_l+0x446>
 80070be:	f04f 32ff 	mov.w	r2, #4294967295
 80070c2:	fa02 f303 	lsl.w	r3, r2, r3
 80070c6:	ea03 0a0a 	and.w	sl, r3, sl
 80070ca:	e7af      	b.n	800702c <_strtod_l+0x604>
 80070cc:	9d1b      	ldr	r5, [sp, #108]	@ 0x6c
 80070ce:	9a1c      	ldr	r2, [sp, #112]	@ 0x70
 80070d0:	2d00      	cmp	r5, #0
 80070d2:	bfab      	itete	ge
 80070d4:	9b12      	ldrge	r3, [sp, #72]	@ 0x48
 80070d6:	9b16      	ldrlt	r3, [sp, #88]	@ 0x58
 80070d8:	9e16      	ldrge	r6, [sp, #88]	@ 0x58
 80070da:	9f12      	ldrlt	r7, [sp, #72]	@ 0x48
 80070dc:	bfac      	ite	ge
 80070de:	18ef      	addge	r7, r5, r3
 80070e0:	1b5e      	sublt	r6, r3, r5
 80070e2:	9b08      	ldr	r3, [sp, #32]
 80070e4:	1aed      	subs	r5, r5, r3
 80070e6:	4415      	add	r5, r2
 80070e8:	4b65      	ldr	r3, [pc, #404]	@ (8007280 <_strtod_l+0x858>)
 80070ea:	3d01      	subs	r5, #1
 80070ec:	429d      	cmp	r5, r3
 80070ee:	f1c2 0236 	rsb	r2, r2, #54	@ 0x36
 80070f2:	da50      	bge.n	8007196 <_strtod_l+0x76e>
 80070f4:	1b5b      	subs	r3, r3, r5
 80070f6:	2b1f      	cmp	r3, #31
 80070f8:	eba2 0203 	sub.w	r2, r2, r3
 80070fc:	f04f 0101 	mov.w	r1, #1
 8007100:	dc3d      	bgt.n	800717e <_strtod_l+0x756>
 8007102:	fa01 f303 	lsl.w	r3, r1, r3
 8007106:	9313      	str	r3, [sp, #76]	@ 0x4c
 8007108:	2300      	movs	r3, #0
 800710a:	9310      	str	r3, [sp, #64]	@ 0x40
 800710c:	18bd      	adds	r5, r7, r2
 800710e:	9b08      	ldr	r3, [sp, #32]
 8007110:	42af      	cmp	r7, r5
 8007112:	4416      	add	r6, r2
 8007114:	441e      	add	r6, r3
 8007116:	463b      	mov	r3, r7
 8007118:	bfa8      	it	ge
 800711a:	462b      	movge	r3, r5
 800711c:	42b3      	cmp	r3, r6
 800711e:	bfa8      	it	ge
 8007120:	4633      	movge	r3, r6
 8007122:	2b00      	cmp	r3, #0
 8007124:	bfc2      	ittt	gt
 8007126:	1aed      	subgt	r5, r5, r3
 8007128:	1af6      	subgt	r6, r6, r3
 800712a:	1aff      	subgt	r7, r7, r3
 800712c:	9b12      	ldr	r3, [sp, #72]	@ 0x48
 800712e:	2b00      	cmp	r3, #0
 8007130:	dd16      	ble.n	8007160 <_strtod_l+0x738>
 8007132:	4641      	mov	r1, r8
 8007134:	9805      	ldr	r0, [sp, #20]
 8007136:	461a      	mov	r2, r3
 8007138:	f7ff f9a4 	bl	8006484 <__pow5mult>
 800713c:	4680      	mov	r8, r0
 800713e:	2800      	cmp	r0, #0
 8007140:	d0ba      	beq.n	80070b8 <_strtod_l+0x690>
 8007142:	4601      	mov	r1, r0
 8007144:	9a1a      	ldr	r2, [sp, #104]	@ 0x68
 8007146:	9805      	ldr	r0, [sp, #20]
 8007148:	f7ff f8fa 	bl	8006340 <__multiply>
 800714c:	900a      	str	r0, [sp, #40]	@ 0x28
 800714e:	2800      	cmp	r0, #0
 8007150:	f43f ae8d 	beq.w	8006e6e <_strtod_l+0x446>
 8007154:	991a      	ldr	r1, [sp, #104]	@ 0x68
 8007156:	9805      	ldr	r0, [sp, #20]
 8007158:	f7fe ffde 	bl	8006118 <_Bfree>
 800715c:	9b0a      	ldr	r3, [sp, #40]	@ 0x28
 800715e:	931a      	str	r3, [sp, #104]	@ 0x68
 8007160:	2d00      	cmp	r5, #0
 8007162:	dc1d      	bgt.n	80071a0 <_strtod_l+0x778>
 8007164:	9b09      	ldr	r3, [sp, #36]	@ 0x24
 8007166:	2b00      	cmp	r3, #0
 8007168:	dd23      	ble.n	80071b2 <_strtod_l+0x78a>
 800716a:	4649      	mov	r1, r9
 800716c:	9a16      	ldr	r2, [sp, #88]	@ 0x58
 800716e:	9805      	ldr	r0, [sp, #20]
 8007170:	f7ff f988 	bl	8006484 <__pow5mult>
 8007174:	4681      	mov	r9, r0
 8007176:	b9e0      	cbnz	r0, 80071b2 <_strtod_l+0x78a>
 8007178:	f04f 0900 	mov.w	r9, #0
 800717c:	e677      	b.n	8006e6e <_strtod_l+0x446>
 800717e:	f1c5 457f 	rsb	r5, r5, #4278190080	@ 0xff000000
 8007182:	f505 057f 	add.w	r5, r5, #16711680	@ 0xff0000
 8007186:	f505 457b 	add.w	r5, r5, #64256	@ 0xfb00
 800718a:	35e2      	adds	r5, #226	@ 0xe2
 800718c:	fa01 f305 	lsl.w	r3, r1, r5
 8007190:	9310      	str	r3, [sp, #64]	@ 0x40
 8007192:	9113      	str	r1, [sp, #76]	@ 0x4c
 8007194:	e7ba      	b.n	800710c <_strtod_l+0x6e4>
 8007196:	2300      	movs	r3, #0
 8007198:	9310      	str	r3, [sp, #64]	@ 0x40
 800719a:	2301      	movs	r3, #1
 800719c:	9313      	str	r3, [sp, #76]	@ 0x4c
 800719e:	e7b5      	b.n	800710c <_strtod_l+0x6e4>
 80071a0:	991a      	ldr	r1, [sp, #104]	@ 0x68
 80071a2:	9805      	ldr	r0, [sp, #20]
 80071a4:	462a      	mov	r2, r5
 80071a6:	f7ff f9c7 	bl	8006538 <__lshift>
 80071aa:	901a      	str	r0, [sp, #104]	@ 0x68
 80071ac:	2800      	cmp	r0, #0
 80071ae:	d1d9      	bne.n	8007164 <_strtod_l+0x73c>
 80071b0:	e65d      	b.n	8006e6e <_strtod_l+0x446>
 80071b2:	2e00      	cmp	r6, #0
 80071b4:	dd07      	ble.n	80071c6 <_strtod_l+0x79e>
 80071b6:	4649      	mov	r1, r9
 80071b8:	9805      	ldr	r0, [sp, #20]
 80071ba:	4632      	mov	r2, r6
 80071bc:	f7ff f9bc 	bl	8006538 <__lshift>
 80071c0:	4681      	mov	r9, r0
 80071c2:	2800      	cmp	r0, #0
 80071c4:	d0d8      	beq.n	8007178 <_strtod_l+0x750>
 80071c6:	2f00      	cmp	r7, #0
 80071c8:	dd08      	ble.n	80071dc <_strtod_l+0x7b4>
 80071ca:	4641      	mov	r1, r8
 80071cc:	9805      	ldr	r0, [sp, #20]
 80071ce:	463a      	mov	r2, r7
 80071d0:	f7ff f9b2 	bl	8006538 <__lshift>
 80071d4:	4680      	mov	r8, r0
 80071d6:	2800      	cmp	r0, #0
 80071d8:	f43f ae49 	beq.w	8006e6e <_strtod_l+0x446>
 80071dc:	991a      	ldr	r1, [sp, #104]	@ 0x68
 80071de:	9805      	ldr	r0, [sp, #20]
 80071e0:	464a      	mov	r2, r9
 80071e2:	f7ff fa31 	bl	8006648 <__mdiff>
 80071e6:	4604      	mov	r4, r0
 80071e8:	2800      	cmp	r0, #0
 80071ea:	f43f ae40 	beq.w	8006e6e <_strtod_l+0x446>
 80071ee:	68c3      	ldr	r3, [r0, #12]
 80071f0:	930f      	str	r3, [sp, #60]	@ 0x3c
 80071f2:	2300      	movs	r3, #0
 80071f4:	60c3      	str	r3, [r0, #12]
 80071f6:	4641      	mov	r1, r8
 80071f8:	f7ff fa0a 	bl	8006610 <__mcmp>
 80071fc:	2800      	cmp	r0, #0
 80071fe:	da45      	bge.n	800728c <_strtod_l+0x864>
 8007200:	9b0f      	ldr	r3, [sp, #60]	@ 0x3c
 8007202:	ea53 030a 	orrs.w	r3, r3, sl
 8007206:	d16b      	bne.n	80072e0 <_strtod_l+0x8b8>
 8007208:	f3cb 0313 	ubfx	r3, fp, #0, #20
 800720c:	2b00      	cmp	r3, #0
 800720e:	d167      	bne.n	80072e0 <_strtod_l+0x8b8>
 8007210:	f02b 4300 	bic.w	r3, fp, #2147483648	@ 0x80000000
 8007214:	0d1b      	lsrs	r3, r3, #20
 8007216:	051b      	lsls	r3, r3, #20
 8007218:	f1b3 6fd6 	cmp.w	r3, #112197632	@ 0x6b00000
 800721c:	d960      	bls.n	80072e0 <_strtod_l+0x8b8>
 800721e:	6963      	ldr	r3, [r4, #20]
 8007220:	b913      	cbnz	r3, 8007228 <_strtod_l+0x800>
 8007222:	6923      	ldr	r3, [r4, #16]
 8007224:	2b01      	cmp	r3, #1
 8007226:	dd5b      	ble.n	80072e0 <_strtod_l+0x8b8>
 8007228:	4621      	mov	r1, r4
 800722a:	2201      	movs	r2, #1
 800722c:	9805      	ldr	r0, [sp, #20]
 800722e:	f7ff f983 	bl	8006538 <__lshift>
 8007232:	4641      	mov	r1, r8
 8007234:	4604      	mov	r4, r0
 8007236:	f7ff f9eb 	bl	8006610 <__mcmp>
 800723a:	2800      	cmp	r0, #0
 800723c:	dd50      	ble.n	80072e0 <_strtod_l+0x8b8>
 800723e:	f02b 4300 	bic.w	r3, fp, #2147483648	@ 0x80000000
 8007242:	9a08      	ldr	r2, [sp, #32]
 8007244:	0d1b      	lsrs	r3, r3, #20
 8007246:	051b      	lsls	r3, r3, #20
 8007248:	2a00      	cmp	r2, #0
 800724a:	d06a      	beq.n	8007322 <_strtod_l+0x8fa>
 800724c:	f1b3 6fd6 	cmp.w	r3, #112197632	@ 0x6b00000
 8007250:	d867      	bhi.n	8007322 <_strtod_l+0x8fa>
 8007252:	f1b3 7f5c 	cmp.w	r3, #57671680	@ 0x3700000
 8007256:	f67f ae9d 	bls.w	8006f94 <_strtod_l+0x56c>
 800725a:	4b0a      	ldr	r3, [pc, #40]	@ (8007284 <_strtod_l+0x85c>)
 800725c:	4650      	mov	r0, sl
 800725e:	4659      	mov	r1, fp
 8007260:	2200      	movs	r2, #0
 8007262:	f7f9 f9d1 	bl	8000608 <__aeabi_dmul>
 8007266:	4b08      	ldr	r3, [pc, #32]	@ (8007288 <_strtod_l+0x860>)
 8007268:	400b      	ands	r3, r1
 800726a:	4682      	mov	sl, r0
 800726c:	468b      	mov	fp, r1
 800726e:	2b00      	cmp	r3, #0
 8007270:	f47f ae08 	bne.w	8006e84 <_strtod_l+0x45c>
 8007274:	9a05      	ldr	r2, [sp, #20]
 8007276:	2322      	movs	r3, #34	@ 0x22
 8007278:	6013      	str	r3, [r2, #0]
 800727a:	e603      	b.n	8006e84 <_strtod_l+0x45c>
 800727c:	08008bd8 	.word	0x08008bd8
 8007280:	fffffc02 	.word	0xfffffc02
 8007284:	39500000 	.word	0x39500000
 8007288:	7ff00000 	.word	0x7ff00000
 800728c:	f8cd b028 	str.w	fp, [sp, #40]	@ 0x28
 8007290:	d165      	bne.n	800735e <_strtod_l+0x936>
 8007292:	9a0f      	ldr	r2, [sp, #60]	@ 0x3c
 8007294:	f3cb 0313 	ubfx	r3, fp, #0, #20
 8007298:	b35a      	cbz	r2, 80072f2 <_strtod_l+0x8ca>
 800729a:	4a9f      	ldr	r2, [pc, #636]	@ (8007518 <_strtod_l+0xaf0>)
 800729c:	4293      	cmp	r3, r2
 800729e:	d12b      	bne.n	80072f8 <_strtod_l+0x8d0>
 80072a0:	9b08      	ldr	r3, [sp, #32]
 80072a2:	4651      	mov	r1, sl
 80072a4:	b303      	cbz	r3, 80072e8 <_strtod_l+0x8c0>
 80072a6:	4b9d      	ldr	r3, [pc, #628]	@ (800751c <_strtod_l+0xaf4>)
 80072a8:	465a      	mov	r2, fp
 80072aa:	4013      	ands	r3, r2
 80072ac:	f1b3 6fd4 	cmp.w	r3, #111149056	@ 0x6a00000
 80072b0:	f04f 32ff 	mov.w	r2, #4294967295
 80072b4:	d81b      	bhi.n	80072ee <_strtod_l+0x8c6>
 80072b6:	0d1b      	lsrs	r3, r3, #20
 80072b8:	f1c3 036b 	rsb	r3, r3, #107	@ 0x6b
 80072bc:	fa02 f303 	lsl.w	r3, r2, r3
 80072c0:	4299      	cmp	r1, r3
 80072c2:	d119      	bne.n	80072f8 <_strtod_l+0x8d0>
 80072c4:	4b96      	ldr	r3, [pc, #600]	@ (8007520 <_strtod_l+0xaf8>)
 80072c6:	9a0a      	ldr	r2, [sp, #40]	@ 0x28
 80072c8:	429a      	cmp	r2, r3
 80072ca:	d102      	bne.n	80072d2 <_strtod_l+0x8aa>
 80072cc:	3101      	adds	r1, #1
 80072ce:	f43f adce 	beq.w	8006e6e <_strtod_l+0x446>
 80072d2:	4b92      	ldr	r3, [pc, #584]	@ (800751c <_strtod_l+0xaf4>)
 80072d4:	9a0a      	ldr	r2, [sp, #40]	@ 0x28
 80072d6:	401a      	ands	r2, r3
 80072d8:	f502 1b80 	add.w	fp, r2, #1048576	@ 0x100000
 80072dc:	f04f 0a00 	mov.w	sl, #0
 80072e0:	9b08      	ldr	r3, [sp, #32]
 80072e2:	2b00      	cmp	r3, #0
 80072e4:	d1b9      	bne.n	800725a <_strtod_l+0x832>
 80072e6:	e5cd      	b.n	8006e84 <_strtod_l+0x45c>
 80072e8:	f04f 33ff 	mov.w	r3, #4294967295
 80072ec:	e7e8      	b.n	80072c0 <_strtod_l+0x898>
 80072ee:	4613      	mov	r3, r2
 80072f0:	e7e6      	b.n	80072c0 <_strtod_l+0x898>
 80072f2:	ea53 030a 	orrs.w	r3, r3, sl
 80072f6:	d0a2      	beq.n	800723e <_strtod_l+0x816>
 80072f8:	9b10      	ldr	r3, [sp, #64]	@ 0x40
 80072fa:	b1db      	cbz	r3, 8007334 <_strtod_l+0x90c>
 80072fc:	9a0a      	ldr	r2, [sp, #40]	@ 0x28
 80072fe:	4213      	tst	r3, r2
 8007300:	d0ee      	beq.n	80072e0 <_strtod_l+0x8b8>
 8007302:	9b0f      	ldr	r3, [sp, #60]	@ 0x3c
 8007304:	9a08      	ldr	r2, [sp, #32]
 8007306:	4650      	mov	r0, sl
 8007308:	4659      	mov	r1, fp
 800730a:	b1bb      	cbz	r3, 800733c <_strtod_l+0x914>
 800730c:	f7ff fb6e 	bl	80069ec <sulp>
 8007310:	e9dd 010c 	ldrd	r0, r1, [sp, #48]	@ 0x30
 8007314:	ec53 2b10 	vmov	r2, r3, d0
 8007318:	f7f8 ffc0 	bl	800029c <__adddf3>
 800731c:	4682      	mov	sl, r0
 800731e:	468b      	mov	fp, r1
 8007320:	e7de      	b.n	80072e0 <_strtod_l+0x8b8>
 8007322:	f5a3 1380 	sub.w	r3, r3, #1048576	@ 0x100000
 8007326:	ea6f 5b13 	mvn.w	fp, r3, lsr #20
 800732a:	ea6f 5b0b 	mvn.w	fp, fp, lsl #20
 800732e:	f04f 3aff 	mov.w	sl, #4294967295
 8007332:	e7d5      	b.n	80072e0 <_strtod_l+0x8b8>
 8007334:	9b13      	ldr	r3, [sp, #76]	@ 0x4c
 8007336:	ea13 0f0a 	tst.w	r3, sl
 800733a:	e7e1      	b.n	8007300 <_strtod_l+0x8d8>
 800733c:	f7ff fb56 	bl	80069ec <sulp>
 8007340:	e9dd 010c 	ldrd	r0, r1, [sp, #48]	@ 0x30
 8007344:	ec53 2b10 	vmov	r2, r3, d0
 8007348:	f7f8 ffa6 	bl	8000298 <__aeabi_dsub>
 800734c:	2200      	movs	r2, #0
 800734e:	2300      	movs	r3, #0
 8007350:	4682      	mov	sl, r0
 8007352:	468b      	mov	fp, r1
 8007354:	f7f9 fbc0 	bl	8000ad8 <__aeabi_dcmpeq>
 8007358:	2800      	cmp	r0, #0
 800735a:	d0c1      	beq.n	80072e0 <_strtod_l+0x8b8>
 800735c:	e61a      	b.n	8006f94 <_strtod_l+0x56c>
 800735e:	4641      	mov	r1, r8
 8007360:	4620      	mov	r0, r4
 8007362:	f7ff facd 	bl	8006900 <__ratio>
 8007366:	ec57 6b10 	vmov	r6, r7, d0
 800736a:	2200      	movs	r2, #0
 800736c:	f04f 4380 	mov.w	r3, #1073741824	@ 0x40000000
 8007370:	4630      	mov	r0, r6
 8007372:	4639      	mov	r1, r7
 8007374:	f7f9 fbc4 	bl	8000b00 <__aeabi_dcmple>
 8007378:	2800      	cmp	r0, #0
 800737a:	d06f      	beq.n	800745c <_strtod_l+0xa34>
 800737c:	9b0f      	ldr	r3, [sp, #60]	@ 0x3c
 800737e:	2b00      	cmp	r3, #0
 8007380:	d17a      	bne.n	8007478 <_strtod_l+0xa50>
 8007382:	f1ba 0f00 	cmp.w	sl, #0
 8007386:	d158      	bne.n	800743a <_strtod_l+0xa12>
 8007388:	9b0a      	ldr	r3, [sp, #40]	@ 0x28
 800738a:	f3c3 0313 	ubfx	r3, r3, #0, #20
 800738e:	2b00      	cmp	r3, #0
 8007390:	d15a      	bne.n	8007448 <_strtod_l+0xa20>
 8007392:	4b64      	ldr	r3, [pc, #400]	@ (8007524 <_strtod_l+0xafc>)
 8007394:	2200      	movs	r2, #0
 8007396:	4630      	mov	r0, r6
 8007398:	4639      	mov	r1, r7
 800739a:	f7f9 fba7 	bl	8000aec <__aeabi_dcmplt>
 800739e:	2800      	cmp	r0, #0
 80073a0:	d159      	bne.n	8007456 <_strtod_l+0xa2e>
 80073a2:	4630      	mov	r0, r6
 80073a4:	4639      	mov	r1, r7
 80073a6:	4b60      	ldr	r3, [pc, #384]	@ (8007528 <_strtod_l+0xb00>)
 80073a8:	2200      	movs	r2, #0
 80073aa:	f7f9 f92d 	bl	8000608 <__aeabi_dmul>
 80073ae:	4606      	mov	r6, r0
 80073b0:	460f      	mov	r7, r1
 80073b2:	f107 4300 	add.w	r3, r7, #2147483648	@ 0x80000000
 80073b6:	9606      	str	r6, [sp, #24]
 80073b8:	9307      	str	r3, [sp, #28]
 80073ba:	e9dd 2306 	ldrd	r2, r3, [sp, #24]
 80073be:	4d57      	ldr	r5, [pc, #348]	@ (800751c <_strtod_l+0xaf4>)
 80073c0:	e9cd 2310 	strd	r2, r3, [sp, #64]	@ 0x40
 80073c4:	9b0a      	ldr	r3, [sp, #40]	@ 0x28
 80073c6:	401d      	ands	r5, r3
 80073c8:	4b58      	ldr	r3, [pc, #352]	@ (800752c <_strtod_l+0xb04>)
 80073ca:	429d      	cmp	r5, r3
 80073cc:	f040 80b2 	bne.w	8007534 <_strtod_l+0xb0c>
 80073d0:	9b0a      	ldr	r3, [sp, #40]	@ 0x28
 80073d2:	f1a3 7b54 	sub.w	fp, r3, #55574528	@ 0x3500000
 80073d6:	ec4b ab10 	vmov	d0, sl, fp
 80073da:	f7ff f9c9 	bl	8006770 <__ulp>
 80073de:	e9dd 2306 	ldrd	r2, r3, [sp, #24]
 80073e2:	ec51 0b10 	vmov	r0, r1, d0
 80073e6:	f7f9 f90f 	bl	8000608 <__aeabi_dmul>
 80073ea:	4652      	mov	r2, sl
 80073ec:	465b      	mov	r3, fp
 80073ee:	f7f8 ff55 	bl	800029c <__adddf3>
 80073f2:	460b      	mov	r3, r1
 80073f4:	4949      	ldr	r1, [pc, #292]	@ (800751c <_strtod_l+0xaf4>)
 80073f6:	4a4e      	ldr	r2, [pc, #312]	@ (8007530 <_strtod_l+0xb08>)
 80073f8:	4019      	ands	r1, r3
 80073fa:	4291      	cmp	r1, r2
 80073fc:	4682      	mov	sl, r0
 80073fe:	d942      	bls.n	8007486 <_strtod_l+0xa5e>
 8007400:	9a0d      	ldr	r2, [sp, #52]	@ 0x34
 8007402:	4b47      	ldr	r3, [pc, #284]	@ (8007520 <_strtod_l+0xaf8>)
 8007404:	429a      	cmp	r2, r3
 8007406:	d103      	bne.n	8007410 <_strtod_l+0x9e8>
 8007408:	9b0c      	ldr	r3, [sp, #48]	@ 0x30
 800740a:	3301      	adds	r3, #1
 800740c:	f43f ad2f 	beq.w	8006e6e <_strtod_l+0x446>
 8007410:	f8df b10c 	ldr.w	fp, [pc, #268]	@ 8007520 <_strtod_l+0xaf8>
 8007414:	f04f 3aff 	mov.w	sl, #4294967295
 8007418:	991a      	ldr	r1, [sp, #104]	@ 0x68
 800741a:	9805      	ldr	r0, [sp, #20]
 800741c:	f7fe fe7c 	bl	8006118 <_Bfree>
 8007420:	9805      	ldr	r0, [sp, #20]
 8007422:	4649      	mov	r1, r9
 8007424:	f7fe fe78 	bl	8006118 <_Bfree>
 8007428:	9805      	ldr	r0, [sp, #20]
 800742a:	4641      	mov	r1, r8
 800742c:	f7fe fe74 	bl	8006118 <_Bfree>
 8007430:	9805      	ldr	r0, [sp, #20]
 8007432:	4621      	mov	r1, r4
 8007434:	f7fe fe70 	bl	8006118 <_Bfree>
 8007438:	e619      	b.n	800706e <_strtod_l+0x646>
 800743a:	f1ba 0f01 	cmp.w	sl, #1
 800743e:	d103      	bne.n	8007448 <_strtod_l+0xa20>
 8007440:	9b0a      	ldr	r3, [sp, #40]	@ 0x28
 8007442:	2b00      	cmp	r3, #0
 8007444:	f43f ada6 	beq.w	8006f94 <_strtod_l+0x56c>
 8007448:	ed9f 7b2b 	vldr	d7, [pc, #172]	@ 80074f8 <_strtod_l+0xad0>
 800744c:	4f35      	ldr	r7, [pc, #212]	@ (8007524 <_strtod_l+0xafc>)
 800744e:	ed8d 7b06 	vstr	d7, [sp, #24]
 8007452:	2600      	movs	r6, #0
 8007454:	e7b1      	b.n	80073ba <_strtod_l+0x992>
 8007456:	4f34      	ldr	r7, [pc, #208]	@ (8007528 <_strtod_l+0xb00>)
 8007458:	2600      	movs	r6, #0
 800745a:	e7aa      	b.n	80073b2 <_strtod_l+0x98a>
 800745c:	4b32      	ldr	r3, [pc, #200]	@ (8007528 <_strtod_l+0xb00>)
 800745e:	4630      	mov	r0, r6
 8007460:	4639      	mov	r1, r7
 8007462:	2200      	movs	r2, #0
 8007464:	f7f9 f8d0 	bl	8000608 <__aeabi_dmul>
 8007468:	9b0f      	ldr	r3, [sp, #60]	@ 0x3c
 800746a:	4606      	mov	r6, r0
 800746c:	460f      	mov	r7, r1
 800746e:	2b00      	cmp	r3, #0
 8007470:	d09f      	beq.n	80073b2 <_strtod_l+0x98a>
 8007472:	e9cd 6706 	strd	r6, r7, [sp, #24]
 8007476:	e7a0      	b.n	80073ba <_strtod_l+0x992>
 8007478:	ed9f 7b21 	vldr	d7, [pc, #132]	@ 8007500 <_strtod_l+0xad8>
 800747c:	ed8d 7b06 	vstr	d7, [sp, #24]
 8007480:	ec57 6b17 	vmov	r6, r7, d7
 8007484:	e799      	b.n	80073ba <_strtod_l+0x992>
 8007486:	f103 7b54 	add.w	fp, r3, #55574528	@ 0x3500000
 800748a:	9b08      	ldr	r3, [sp, #32]
 800748c:	f8cd b028 	str.w	fp, [sp, #40]	@ 0x28
 8007490:	2b00      	cmp	r3, #0
 8007492:	d1c1      	bne.n	8007418 <_strtod_l+0x9f0>
 8007494:	f02b 4300 	bic.w	r3, fp, #2147483648	@ 0x80000000
 8007498:	0d1b      	lsrs	r3, r3, #20
 800749a:	051b      	lsls	r3, r3, #20
 800749c:	429d      	cmp	r5, r3
 800749e:	d1bb      	bne.n	8007418 <_strtod_l+0x9f0>
 80074a0:	4630      	mov	r0, r6
 80074a2:	4639      	mov	r1, r7
 80074a4:	f7f9 fc10 	bl	8000cc8 <__aeabi_d2lz>
 80074a8:	f7f9 f880 	bl	80005ac <__aeabi_l2d>
 80074ac:	4602      	mov	r2, r0
 80074ae:	460b      	mov	r3, r1
 80074b0:	4630      	mov	r0, r6
 80074b2:	4639      	mov	r1, r7
 80074b4:	f7f8 fef0 	bl	8000298 <__aeabi_dsub>
 80074b8:	460b      	mov	r3, r1
 80074ba:	4602      	mov	r2, r0
 80074bc:	e9cd 230c 	strd	r2, r3, [sp, #48]	@ 0x30
 80074c0:	f3cb 0613 	ubfx	r6, fp, #0, #20
 80074c4:	9b0f      	ldr	r3, [sp, #60]	@ 0x3c
 80074c6:	ea46 060a 	orr.w	r6, r6, sl
 80074ca:	431e      	orrs	r6, r3
 80074cc:	d06f      	beq.n	80075ae <_strtod_l+0xb86>
 80074ce:	a30e      	add	r3, pc, #56	@ (adr r3, 8007508 <_strtod_l+0xae0>)
 80074d0:	e9d3 2300 	ldrd	r2, r3, [r3]
 80074d4:	f7f9 fb0a 	bl	8000aec <__aeabi_dcmplt>
 80074d8:	2800      	cmp	r0, #0
 80074da:	f47f acd3 	bne.w	8006e84 <_strtod_l+0x45c>
 80074de:	a30c      	add	r3, pc, #48	@ (adr r3, 8007510 <_strtod_l+0xae8>)
 80074e0:	e9d3 2300 	ldrd	r2, r3, [r3]
 80074e4:	e9dd 010c 	ldrd	r0, r1, [sp, #48]	@ 0x30
 80074e8:	f7f9 fb1e 	bl	8000b28 <__aeabi_dcmpgt>
 80074ec:	2800      	cmp	r0, #0
 80074ee:	d093      	beq.n	8007418 <_strtod_l+0x9f0>
 80074f0:	e4c8      	b.n	8006e84 <_strtod_l+0x45c>
 80074f2:	bf00      	nop
 80074f4:	f3af 8000 	nop.w
 80074f8:	00000000 	.word	0x00000000
 80074fc:	bff00000 	.word	0xbff00000
 8007500:	00000000 	.word	0x00000000
 8007504:	3ff00000 	.word	0x3ff00000
 8007508:	94a03595 	.word	0x94a03595
 800750c:	3fdfffff 	.word	0x3fdfffff
 8007510:	35afe535 	.word	0x35afe535
 8007514:	3fe00000 	.word	0x3fe00000
 8007518:	000fffff 	.word	0x000fffff
 800751c:	7ff00000 	.word	0x7ff00000
 8007520:	7fefffff 	.word	0x7fefffff
 8007524:	3ff00000 	.word	0x3ff00000
 8007528:	3fe00000 	.word	0x3fe00000
 800752c:	7fe00000 	.word	0x7fe00000
 8007530:	7c9fffff 	.word	0x7c9fffff
 8007534:	9b08      	ldr	r3, [sp, #32]
 8007536:	b323      	cbz	r3, 8007582 <_strtod_l+0xb5a>
 8007538:	f1b5 6fd4 	cmp.w	r5, #111149056	@ 0x6a00000
 800753c:	d821      	bhi.n	8007582 <_strtod_l+0xb5a>
 800753e:	a328      	add	r3, pc, #160	@ (adr r3, 80075e0 <_strtod_l+0xbb8>)
 8007540:	e9d3 2300 	ldrd	r2, r3, [r3]
 8007544:	4630      	mov	r0, r6
 8007546:	4639      	mov	r1, r7
 8007548:	f7f9 fada 	bl	8000b00 <__aeabi_dcmple>
 800754c:	b1a0      	cbz	r0, 8007578 <_strtod_l+0xb50>
 800754e:	4639      	mov	r1, r7
 8007550:	4630      	mov	r0, r6
 8007552:	f7f9 fb31 	bl	8000bb8 <__aeabi_d2uiz>
 8007556:	2801      	cmp	r0, #1
 8007558:	bf38      	it	cc
 800755a:	2001      	movcc	r0, #1
 800755c:	f7f8 ffda 	bl	8000514 <__aeabi_ui2d>
 8007560:	9b0f      	ldr	r3, [sp, #60]	@ 0x3c
 8007562:	4606      	mov	r6, r0
 8007564:	460f      	mov	r7, r1
 8007566:	b9fb      	cbnz	r3, 80075a8 <_strtod_l+0xb80>
 8007568:	f101 4300 	add.w	r3, r1, #2147483648	@ 0x80000000
 800756c:	9014      	str	r0, [sp, #80]	@ 0x50
 800756e:	9315      	str	r3, [sp, #84]	@ 0x54
 8007570:	e9dd 2314 	ldrd	r2, r3, [sp, #80]	@ 0x50
 8007574:	e9cd 2310 	strd	r2, r3, [sp, #64]	@ 0x40
 8007578:	9b11      	ldr	r3, [sp, #68]	@ 0x44
 800757a:	f103 63d6 	add.w	r3, r3, #112197632	@ 0x6b00000
 800757e:	1b5b      	subs	r3, r3, r5
 8007580:	9311      	str	r3, [sp, #68]	@ 0x44
 8007582:	ed9d 0b0c 	vldr	d0, [sp, #48]	@ 0x30
 8007586:	e9dd ab10 	ldrd	sl, fp, [sp, #64]	@ 0x40
 800758a:	f7ff f8f1 	bl	8006770 <__ulp>
 800758e:	4650      	mov	r0, sl
 8007590:	ec53 2b10 	vmov	r2, r3, d0
 8007594:	4659      	mov	r1, fp
 8007596:	f7f9 f837 	bl	8000608 <__aeabi_dmul>
 800759a:	e9dd 230c 	ldrd	r2, r3, [sp, #48]	@ 0x30
 800759e:	f7f8 fe7d 	bl	800029c <__adddf3>
 80075a2:	4682      	mov	sl, r0
 80075a4:	468b      	mov	fp, r1
 80075a6:	e770      	b.n	800748a <_strtod_l+0xa62>
 80075a8:	e9cd 6714 	strd	r6, r7, [sp, #80]	@ 0x50
 80075ac:	e7e0      	b.n	8007570 <_strtod_l+0xb48>
 80075ae:	a30e      	add	r3, pc, #56	@ (adr r3, 80075e8 <_strtod_l+0xbc0>)
 80075b0:	e9d3 2300 	ldrd	r2, r3, [r3]
 80075b4:	f7f9 fa9a 	bl	8000aec <__aeabi_dcmplt>
 80075b8:	e798      	b.n	80074ec <_strtod_l+0xac4>
 80075ba:	2300      	movs	r3, #0
 80075bc:	930e      	str	r3, [sp, #56]	@ 0x38
 80075be:	9a17      	ldr	r2, [sp, #92]	@ 0x5c
 80075c0:	9b19      	ldr	r3, [sp, #100]	@ 0x64
 80075c2:	6013      	str	r3, [r2, #0]
 80075c4:	f7ff ba6d 	b.w	8006aa2 <_strtod_l+0x7a>
 80075c8:	2a65      	cmp	r2, #101	@ 0x65
 80075ca:	f43f ab68 	beq.w	8006c9e <_strtod_l+0x276>
 80075ce:	2a45      	cmp	r2, #69	@ 0x45
 80075d0:	f43f ab65 	beq.w	8006c9e <_strtod_l+0x276>
 80075d4:	2301      	movs	r3, #1
 80075d6:	f7ff bba0 	b.w	8006d1a <_strtod_l+0x2f2>
 80075da:	bf00      	nop
 80075dc:	f3af 8000 	nop.w
 80075e0:	ffc00000 	.word	0xffc00000
 80075e4:	41dfffff 	.word	0x41dfffff
 80075e8:	94a03595 	.word	0x94a03595
 80075ec:	3fcfffff 	.word	0x3fcfffff

080075f0 <_strtod_r>:
 80075f0:	4b01      	ldr	r3, [pc, #4]	@ (80075f8 <_strtod_r+0x8>)
 80075f2:	f7ff ba19 	b.w	8006a28 <_strtod_l>
 80075f6:	bf00      	nop
 80075f8:	2000006c 	.word	0x2000006c

080075fc <_strtol_l.isra.0>:
 80075fc:	2b24      	cmp	r3, #36	@ 0x24
 80075fe:	e92d 47f0 	stmdb	sp!, {r4, r5, r6, r7, r8, r9, sl, lr}
 8007602:	4686      	mov	lr, r0
 8007604:	4690      	mov	r8, r2
 8007606:	d801      	bhi.n	800760c <_strtol_l.isra.0+0x10>
 8007608:	2b01      	cmp	r3, #1
 800760a:	d106      	bne.n	800761a <_strtol_l.isra.0+0x1e>
 800760c:	f7fd fdaa 	bl	8005164 <__errno>
 8007610:	2316      	movs	r3, #22
 8007612:	6003      	str	r3, [r0, #0]
 8007614:	2000      	movs	r0, #0
 8007616:	e8bd 87f0 	ldmia.w	sp!, {r4, r5, r6, r7, r8, r9, sl, pc}
 800761a:	4834      	ldr	r0, [pc, #208]	@ (80076ec <_strtol_l.isra.0+0xf0>)
 800761c:	460d      	mov	r5, r1
 800761e:	462a      	mov	r2, r5
 8007620:	f815 4b01 	ldrb.w	r4, [r5], #1
 8007624:	5d06      	ldrb	r6, [r0, r4]
 8007626:	f016 0608 	ands.w	r6, r6, #8
 800762a:	d1f8      	bne.n	800761e <_strtol_l.isra.0+0x22>
 800762c:	2c2d      	cmp	r4, #45	@ 0x2d
 800762e:	d110      	bne.n	8007652 <_strtol_l.isra.0+0x56>
 8007630:	782c      	ldrb	r4, [r5, #0]
 8007632:	2601      	movs	r6, #1
 8007634:	1c95      	adds	r5, r2, #2
 8007636:	f033 0210 	bics.w	r2, r3, #16
 800763a:	d115      	bne.n	8007668 <_strtol_l.isra.0+0x6c>
 800763c:	2c30      	cmp	r4, #48	@ 0x30
 800763e:	d10d      	bne.n	800765c <_strtol_l.isra.0+0x60>
 8007640:	782a      	ldrb	r2, [r5, #0]
 8007642:	f002 02df 	and.w	r2, r2, #223	@ 0xdf
 8007646:	2a58      	cmp	r2, #88	@ 0x58
 8007648:	d108      	bne.n	800765c <_strtol_l.isra.0+0x60>
 800764a:	786c      	ldrb	r4, [r5, #1]
 800764c:	3502      	adds	r5, #2
 800764e:	2310      	movs	r3, #16
 8007650:	e00a      	b.n	8007668 <_strtol_l.isra.0+0x6c>
 8007652:	2c2b      	cmp	r4, #43	@ 0x2b
 8007654:	bf04      	itt	eq
 8007656:	782c      	ldrbeq	r4, [r5, #0]
 8007658:	1c95      	addeq	r5, r2, #2
 800765a:	e7ec      	b.n	8007636 <_strtol_l.isra.0+0x3a>
 800765c:	2b00      	cmp	r3, #0
 800765e:	d1f6      	bne.n	800764e <_strtol_l.isra.0+0x52>
 8007660:	2c30      	cmp	r4, #48	@ 0x30
 8007662:	bf14      	ite	ne
 8007664:	230a      	movne	r3, #10
 8007666:	2308      	moveq	r3, #8
 8007668:	f106 4c00 	add.w	ip, r6, #2147483648	@ 0x80000000
 800766c:	f10c 3cff 	add.w	ip, ip, #4294967295
 8007670:	2200      	movs	r2, #0
 8007672:	fbbc f9f3 	udiv	r9, ip, r3
 8007676:	4610      	mov	r0, r2
 8007678:	fb03 ca19 	mls	sl, r3, r9, ip
 800767c:	f1a4 0730 	sub.w	r7, r4, #48	@ 0x30
 8007680:	2f09      	cmp	r7, #9
 8007682:	d80f      	bhi.n	80076a4 <_strtol_l.isra.0+0xa8>
 8007684:	463c      	mov	r4, r7
 8007686:	42a3      	cmp	r3, r4
 8007688:	dd1b      	ble.n	80076c2 <_strtol_l.isra.0+0xc6>
 800768a:	1c57      	adds	r7, r2, #1
 800768c:	d007      	beq.n	800769e <_strtol_l.isra.0+0xa2>
 800768e:	4581      	cmp	r9, r0
 8007690:	d314      	bcc.n	80076bc <_strtol_l.isra.0+0xc0>
 8007692:	d101      	bne.n	8007698 <_strtol_l.isra.0+0x9c>
 8007694:	45a2      	cmp	sl, r4
 8007696:	db11      	blt.n	80076bc <_strtol_l.isra.0+0xc0>
 8007698:	fb00 4003 	mla	r0, r0, r3, r4
 800769c:	2201      	movs	r2, #1
 800769e:	f815 4b01 	ldrb.w	r4, [r5], #1
 80076a2:	e7eb      	b.n	800767c <_strtol_l.isra.0+0x80>
 80076a4:	f1a4 0741 	sub.w	r7, r4, #65	@ 0x41
 80076a8:	2f19      	cmp	r7, #25
 80076aa:	d801      	bhi.n	80076b0 <_strtol_l.isra.0+0xb4>
 80076ac:	3c37      	subs	r4, #55	@ 0x37
 80076ae:	e7ea      	b.n	8007686 <_strtol_l.isra.0+0x8a>
 80076b0:	f1a4 0761 	sub.w	r7, r4, #97	@ 0x61
 80076b4:	2f19      	cmp	r7, #25
 80076b6:	d804      	bhi.n	80076c2 <_strtol_l.isra.0+0xc6>
 80076b8:	3c57      	subs	r4, #87	@ 0x57
 80076ba:	e7e4      	b.n	8007686 <_strtol_l.isra.0+0x8a>
 80076bc:	f04f 32ff 	mov.w	r2, #4294967295
 80076c0:	e7ed      	b.n	800769e <_strtol_l.isra.0+0xa2>
 80076c2:	1c53      	adds	r3, r2, #1
 80076c4:	d108      	bne.n	80076d8 <_strtol_l.isra.0+0xdc>
 80076c6:	2322      	movs	r3, #34	@ 0x22
 80076c8:	f8ce 3000 	str.w	r3, [lr]
 80076cc:	4660      	mov	r0, ip
 80076ce:	f1b8 0f00 	cmp.w	r8, #0
 80076d2:	d0a0      	beq.n	8007616 <_strtol_l.isra.0+0x1a>
 80076d4:	1e69      	subs	r1, r5, #1
 80076d6:	e006      	b.n	80076e6 <_strtol_l.isra.0+0xea>
 80076d8:	b106      	cbz	r6, 80076dc <_strtol_l.isra.0+0xe0>
 80076da:	4240      	negs	r0, r0
 80076dc:	f1b8 0f00 	cmp.w	r8, #0
 80076e0:	d099      	beq.n	8007616 <_strtol_l.isra.0+0x1a>
 80076e2:	2a00      	cmp	r2, #0
 80076e4:	d1f6      	bne.n	80076d4 <_strtol_l.isra.0+0xd8>
 80076e6:	f8c8 1000 	str.w	r1, [r8]
 80076ea:	e794      	b.n	8007616 <_strtol_l.isra.0+0x1a>
 80076ec:	08008c01 	.word	0x08008c01

080076f0 <_strtol_r>:
 80076f0:	f7ff bf84 	b.w	80075fc <_strtol_l.isra.0>

080076f4 <__ssputs_r>:
 80076f4:	e92d 47f0 	stmdb	sp!, {r4, r5, r6, r7, r8, r9, sl, lr}
 80076f8:	688e      	ldr	r6, [r1, #8]
 80076fa:	461f      	mov	r7, r3
 80076fc:	42be      	cmp	r6, r7
 80076fe:	680b      	ldr	r3, [r1, #0]
 8007700:	4682      	mov	sl, r0
 8007702:	460c      	mov	r4, r1
 8007704:	4690      	mov	r8, r2
 8007706:	d82d      	bhi.n	8007764 <__ssputs_r+0x70>
 8007708:	f9b1 200c 	ldrsh.w	r2, [r1, #12]
 800770c:	f412 6f90 	tst.w	r2, #1152	@ 0x480
 8007710:	d026      	beq.n	8007760 <__ssputs_r+0x6c>
 8007712:	6965      	ldr	r5, [r4, #20]
 8007714:	6909      	ldr	r1, [r1, #16]
 8007716:	eb05 0545 	add.w	r5, r5, r5, lsl #1
 800771a:	eba3 0901 	sub.w	r9, r3, r1
 800771e:	eb05 75d5 	add.w	r5, r5, r5, lsr #31
 8007722:	1c7b      	adds	r3, r7, #1
 8007724:	444b      	add	r3, r9
 8007726:	106d      	asrs	r5, r5, #1
 8007728:	429d      	cmp	r5, r3
 800772a:	bf38      	it	cc
 800772c:	461d      	movcc	r5, r3
 800772e:	0553      	lsls	r3, r2, #21
 8007730:	d527      	bpl.n	8007782 <__ssputs_r+0x8e>
 8007732:	4629      	mov	r1, r5
 8007734:	f7fe fc24 	bl	8005f80 <_malloc_r>
 8007738:	4606      	mov	r6, r0
 800773a:	b360      	cbz	r0, 8007796 <__ssputs_r+0xa2>
 800773c:	6921      	ldr	r1, [r4, #16]
 800773e:	464a      	mov	r2, r9
 8007740:	f7fd fd3d 	bl	80051be <memcpy>
 8007744:	89a3      	ldrh	r3, [r4, #12]
 8007746:	f423 6390 	bic.w	r3, r3, #1152	@ 0x480
 800774a:	f043 0380 	orr.w	r3, r3, #128	@ 0x80
 800774e:	81a3      	strh	r3, [r4, #12]
 8007750:	6126      	str	r6, [r4, #16]
 8007752:	6165      	str	r5, [r4, #20]
 8007754:	444e      	add	r6, r9
 8007756:	eba5 0509 	sub.w	r5, r5, r9
 800775a:	6026      	str	r6, [r4, #0]
 800775c:	60a5      	str	r5, [r4, #8]
 800775e:	463e      	mov	r6, r7
 8007760:	42be      	cmp	r6, r7
 8007762:	d900      	bls.n	8007766 <__ssputs_r+0x72>
 8007764:	463e      	mov	r6, r7
 8007766:	6820      	ldr	r0, [r4, #0]
 8007768:	4632      	mov	r2, r6
 800776a:	4641      	mov	r1, r8
 800776c:	f000 f9c6 	bl	8007afc <memmove>
 8007770:	68a3      	ldr	r3, [r4, #8]
 8007772:	1b9b      	subs	r3, r3, r6
 8007774:	60a3      	str	r3, [r4, #8]
 8007776:	6823      	ldr	r3, [r4, #0]
 8007778:	4433      	add	r3, r6
 800777a:	6023      	str	r3, [r4, #0]
 800777c:	2000      	movs	r0, #0
 800777e:	e8bd 87f0 	ldmia.w	sp!, {r4, r5, r6, r7, r8, r9, sl, pc}
 8007782:	462a      	mov	r2, r5
 8007784:	f000 fd7d 	bl	8008282 <_realloc_r>
 8007788:	4606      	mov	r6, r0
 800778a:	2800      	cmp	r0, #0
 800778c:	d1e0      	bne.n	8007750 <__ssputs_r+0x5c>
 800778e:	6921      	ldr	r1, [r4, #16]
 8007790:	4650      	mov	r0, sl
 8007792:	f7fe fb81 	bl	8005e98 <_free_r>
 8007796:	230c      	movs	r3, #12
 8007798:	f8ca 3000 	str.w	r3, [sl]
 800779c:	89a3      	ldrh	r3, [r4, #12]
 800779e:	f043 0340 	orr.w	r3, r3, #64	@ 0x40
 80077a2:	81a3      	strh	r3, [r4, #12]
 80077a4:	f04f 30ff 	mov.w	r0, #4294967295
 80077a8:	e7e9      	b.n	800777e <__ssputs_r+0x8a>
	...

080077ac <_svfiprintf_r>:
 80077ac:	e92d 4ff0 	stmdb	sp!, {r4, r5, r6, r7, r8, r9, sl, fp, lr}
 80077b0:	4698      	mov	r8, r3
 80077b2:	898b      	ldrh	r3, [r1, #12]
 80077b4:	061b      	lsls	r3, r3, #24
 80077b6:	b09d      	sub	sp, #116	@ 0x74
 80077b8:	4607      	mov	r7, r0
 80077ba:	460d      	mov	r5, r1
 80077bc:	4614      	mov	r4, r2
 80077be:	d510      	bpl.n	80077e2 <_svfiprintf_r+0x36>
 80077c0:	690b      	ldr	r3, [r1, #16]
 80077c2:	b973      	cbnz	r3, 80077e2 <_svfiprintf_r+0x36>
 80077c4:	2140      	movs	r1, #64	@ 0x40
 80077c6:	f7fe fbdb 	bl	8005f80 <_malloc_r>
 80077ca:	6028      	str	r0, [r5, #0]
 80077cc:	6128      	str	r0, [r5, #16]
 80077ce:	b930      	cbnz	r0, 80077de <_svfiprintf_r+0x32>
 80077d0:	230c      	movs	r3, #12
 80077d2:	603b      	str	r3, [r7, #0]
 80077d4:	f04f 30ff 	mov.w	r0, #4294967295
 80077d8:	b01d      	add	sp, #116	@ 0x74
 80077da:	e8bd 8ff0 	ldmia.w	sp!, {r4, r5, r6, r7, r8, r9, sl, fp, pc}
 80077de:	2340      	movs	r3, #64	@ 0x40
 80077e0:	616b      	str	r3, [r5, #20]
 80077e2:	2300      	movs	r3, #0
 80077e4:	9309      	str	r3, [sp, #36]	@ 0x24
 80077e6:	2320      	movs	r3, #32
 80077e8:	f88d 3029 	strb.w	r3, [sp, #41]	@ 0x29
 80077ec:	f8cd 800c 	str.w	r8, [sp, #12]
 80077f0:	2330      	movs	r3, #48	@ 0x30
 80077f2:	f8df 819c 	ldr.w	r8, [pc, #412]	@ 8007990 <_svfiprintf_r+0x1e4>
 80077f6:	f88d 302a 	strb.w	r3, [sp, #42]	@ 0x2a
 80077fa:	f04f 0901 	mov.w	r9, #1
 80077fe:	4623      	mov	r3, r4
 8007800:	469a      	mov	sl, r3
 8007802:	f813 2b01 	ldrb.w	r2, [r3], #1
 8007806:	b10a      	cbz	r2, 800780c <_svfiprintf_r+0x60>
 8007808:	2a25      	cmp	r2, #37	@ 0x25
 800780a:	d1f9      	bne.n	8007800 <_svfiprintf_r+0x54>
 800780c:	ebba 0b04 	subs.w	fp, sl, r4
 8007810:	d00b      	beq.n	800782a <_svfiprintf_r+0x7e>
 8007812:	465b      	mov	r3, fp
 8007814:	4622      	mov	r2, r4
 8007816:	4629      	mov	r1, r5
 8007818:	4638      	mov	r0, r7
 800781a:	f7ff ff6b 	bl	80076f4 <__ssputs_r>
 800781e:	3001      	adds	r0, #1
 8007820:	f000 80a7 	beq.w	8007972 <_svfiprintf_r+0x1c6>
 8007824:	9a09      	ldr	r2, [sp, #36]	@ 0x24
 8007826:	445a      	add	r2, fp
 8007828:	9209      	str	r2, [sp, #36]	@ 0x24
 800782a:	f89a 3000 	ldrb.w	r3, [sl]
 800782e:	2b00      	cmp	r3, #0
 8007830:	f000 809f 	beq.w	8007972 <_svfiprintf_r+0x1c6>
 8007834:	2300      	movs	r3, #0
 8007836:	f04f 32ff 	mov.w	r2, #4294967295
 800783a:	e9cd 2305 	strd	r2, r3, [sp, #20]
 800783e:	f10a 0a01 	add.w	sl, sl, #1
 8007842:	9304      	str	r3, [sp, #16]
 8007844:	9307      	str	r3, [sp, #28]
 8007846:	f88d 3053 	strb.w	r3, [sp, #83]	@ 0x53
 800784a:	931a      	str	r3, [sp, #104]	@ 0x68
 800784c:	4654      	mov	r4, sl
 800784e:	2205      	movs	r2, #5
 8007850:	f814 1b01 	ldrb.w	r1, [r4], #1
 8007854:	484e      	ldr	r0, [pc, #312]	@ (8007990 <_svfiprintf_r+0x1e4>)
 8007856:	f7f8 fcc3 	bl	80001e0 <memchr>
 800785a:	9a04      	ldr	r2, [sp, #16]
 800785c:	b9d8      	cbnz	r0, 8007896 <_svfiprintf_r+0xea>
 800785e:	06d0      	lsls	r0, r2, #27
 8007860:	bf44      	itt	mi
 8007862:	2320      	movmi	r3, #32
 8007864:	f88d 3053 	strbmi.w	r3, [sp, #83]	@ 0x53
 8007868:	0711      	lsls	r1, r2, #28
 800786a:	bf44      	itt	mi
 800786c:	232b      	movmi	r3, #43	@ 0x2b
 800786e:	f88d 3053 	strbmi.w	r3, [sp, #83]	@ 0x53
 8007872:	f89a 3000 	ldrb.w	r3, [sl]
 8007876:	2b2a      	cmp	r3, #42	@ 0x2a
 8007878:	d015      	beq.n	80078a6 <_svfiprintf_r+0xfa>
 800787a:	9a07      	ldr	r2, [sp, #28]
 800787c:	4654      	mov	r4, sl
 800787e:	2000      	movs	r0, #0
 8007880:	f04f 0c0a 	mov.w	ip, #10
 8007884:	4621      	mov	r1, r4
 8007886:	f811 3b01 	ldrb.w	r3, [r1], #1
 800788a:	3b30      	subs	r3, #48	@ 0x30
 800788c:	2b09      	cmp	r3, #9
 800788e:	d94b      	bls.n	8007928 <_svfiprintf_r+0x17c>
 8007890:	b1b0      	cbz	r0, 80078c0 <_svfiprintf_r+0x114>
 8007892:	9207      	str	r2, [sp, #28]
 8007894:	e014      	b.n	80078c0 <_svfiprintf_r+0x114>
 8007896:	eba0 0308 	sub.w	r3, r0, r8
 800789a:	fa09 f303 	lsl.w	r3, r9, r3
 800789e:	4313      	orrs	r3, r2
 80078a0:	9304      	str	r3, [sp, #16]
 80078a2:	46a2      	mov	sl, r4
 80078a4:	e7d2      	b.n	800784c <_svfiprintf_r+0xa0>
 80078a6:	9b03      	ldr	r3, [sp, #12]
 80078a8:	1d19      	adds	r1, r3, #4
 80078aa:	681b      	ldr	r3, [r3, #0]
 80078ac:	9103      	str	r1, [sp, #12]
 80078ae:	2b00      	cmp	r3, #0
 80078b0:	bfbb      	ittet	lt
 80078b2:	425b      	neglt	r3, r3
 80078b4:	f042 0202 	orrlt.w	r2, r2, #2
 80078b8:	9307      	strge	r3, [sp, #28]
 80078ba:	9307      	strlt	r3, [sp, #28]
 80078bc:	bfb8      	it	lt
 80078be:	9204      	strlt	r2, [sp, #16]
 80078c0:	7823      	ldrb	r3, [r4, #0]
 80078c2:	2b2e      	cmp	r3, #46	@ 0x2e
 80078c4:	d10a      	bne.n	80078dc <_svfiprintf_r+0x130>
 80078c6:	7863      	ldrb	r3, [r4, #1]
 80078c8:	2b2a      	cmp	r3, #42	@ 0x2a
 80078ca:	d132      	bne.n	8007932 <_svfiprintf_r+0x186>
 80078cc:	9b03      	ldr	r3, [sp, #12]
 80078ce:	1d1a      	adds	r2, r3, #4
 80078d0:	681b      	ldr	r3, [r3, #0]
 80078d2:	9203      	str	r2, [sp, #12]
 80078d4:	ea43 73e3 	orr.w	r3, r3, r3, asr #31
 80078d8:	3402      	adds	r4, #2
 80078da:	9305      	str	r3, [sp, #20]
 80078dc:	f8df a0c0 	ldr.w	sl, [pc, #192]	@ 80079a0 <_svfiprintf_r+0x1f4>
 80078e0:	7821      	ldrb	r1, [r4, #0]
 80078e2:	2203      	movs	r2, #3
 80078e4:	4650      	mov	r0, sl
 80078e6:	f7f8 fc7b 	bl	80001e0 <memchr>
 80078ea:	b138      	cbz	r0, 80078fc <_svfiprintf_r+0x150>
 80078ec:	9b04      	ldr	r3, [sp, #16]
 80078ee:	eba0 000a 	sub.w	r0, r0, sl
 80078f2:	2240      	movs	r2, #64	@ 0x40
 80078f4:	4082      	lsls	r2, r0
 80078f6:	4313      	orrs	r3, r2
 80078f8:	3401      	adds	r4, #1
 80078fa:	9304      	str	r3, [sp, #16]
 80078fc:	f814 1b01 	ldrb.w	r1, [r4], #1
 8007900:	4824      	ldr	r0, [pc, #144]	@ (8007994 <_svfiprintf_r+0x1e8>)
 8007902:	f88d 1028 	strb.w	r1, [sp, #40]	@ 0x28
 8007906:	2206      	movs	r2, #6
 8007908:	f7f8 fc6a 	bl	80001e0 <memchr>
 800790c:	2800      	cmp	r0, #0
 800790e:	d036      	beq.n	800797e <_svfiprintf_r+0x1d2>
 8007910:	4b21      	ldr	r3, [pc, #132]	@ (8007998 <_svfiprintf_r+0x1ec>)
 8007912:	bb1b      	cbnz	r3, 800795c <_svfiprintf_r+0x1b0>
 8007914:	9b03      	ldr	r3, [sp, #12]
 8007916:	3307      	adds	r3, #7
 8007918:	f023 0307 	bic.w	r3, r3, #7
 800791c:	3308      	adds	r3, #8
 800791e:	9303      	str	r3, [sp, #12]
 8007920:	9b09      	ldr	r3, [sp, #36]	@ 0x24
 8007922:	4433      	add	r3, r6
 8007924:	9309      	str	r3, [sp, #36]	@ 0x24
 8007926:	e76a      	b.n	80077fe <_svfiprintf_r+0x52>
 8007928:	fb0c 3202 	mla	r2, ip, r2, r3
 800792c:	460c      	mov	r4, r1
 800792e:	2001      	movs	r0, #1
 8007930:	e7a8      	b.n	8007884 <_svfiprintf_r+0xd8>
 8007932:	2300      	movs	r3, #0
 8007934:	3401      	adds	r4, #1
 8007936:	9305      	str	r3, [sp, #20]
 8007938:	4619      	mov	r1, r3
 800793a:	f04f 0c0a 	mov.w	ip, #10
 800793e:	4620      	mov	r0, r4
 8007940:	f810 2b01 	ldrb.w	r2, [r0], #1
 8007944:	3a30      	subs	r2, #48	@ 0x30
 8007946:	2a09      	cmp	r2, #9
 8007948:	d903      	bls.n	8007952 <_svfiprintf_r+0x1a6>
 800794a:	2b00      	cmp	r3, #0
 800794c:	d0c6      	beq.n	80078dc <_svfiprintf_r+0x130>
 800794e:	9105      	str	r1, [sp, #20]
 8007950:	e7c4      	b.n	80078dc <_svfiprintf_r+0x130>
 8007952:	fb0c 2101 	mla	r1, ip, r1, r2
 8007956:	4604      	mov	r4, r0
 8007958:	2301      	movs	r3, #1
 800795a:	e7f0      	b.n	800793e <_svfiprintf_r+0x192>
 800795c:	ab03      	add	r3, sp, #12
 800795e:	9300      	str	r3, [sp, #0]
 8007960:	462a      	mov	r2, r5
 8007962:	4b0e      	ldr	r3, [pc, #56]	@ (800799c <_svfiprintf_r+0x1f0>)
 8007964:	a904      	add	r1, sp, #16
 8007966:	4638      	mov	r0, r7
 8007968:	f7fc fc60 	bl	800422c <_printf_float>
 800796c:	1c42      	adds	r2, r0, #1
 800796e:	4606      	mov	r6, r0
 8007970:	d1d6      	bne.n	8007920 <_svfiprintf_r+0x174>
 8007972:	89ab      	ldrh	r3, [r5, #12]
 8007974:	065b      	lsls	r3, r3, #25
 8007976:	f53f af2d 	bmi.w	80077d4 <_svfiprintf_r+0x28>
 800797a:	9809      	ldr	r0, [sp, #36]	@ 0x24
 800797c:	e72c      	b.n	80077d8 <_svfiprintf_r+0x2c>
 800797e:	ab03      	add	r3, sp, #12
 8007980:	9300      	str	r3, [sp, #0]
 8007982:	462a      	mov	r2, r5
 8007984:	4b05      	ldr	r3, [pc, #20]	@ (800799c <_svfiprintf_r+0x1f0>)
 8007986:	a904      	add	r1, sp, #16
 8007988:	4638      	mov	r0, r7
 800798a:	f7fc fee7 	bl	800475c <_printf_i>
 800798e:	e7ed      	b.n	800796c <_svfiprintf_r+0x1c0>
 8007990:	080089e5 	.word	0x080089e5
 8007994:	080089ef 	.word	0x080089ef
 8007998:	0800422d 	.word	0x0800422d
 800799c:	080076f5 	.word	0x080076f5
 80079a0:	080089eb 	.word	0x080089eb

080079a4 <__sflush_r>:
 80079a4:	f9b1 200c 	ldrsh.w	r2, [r1, #12]
 80079a8:	e92d 41f0 	stmdb	sp!, {r4, r5, r6, r7, r8, lr}
 80079ac:	0716      	lsls	r6, r2, #28
 80079ae:	4605      	mov	r5, r0
 80079b0:	460c      	mov	r4, r1
 80079b2:	d454      	bmi.n	8007a5e <__sflush_r+0xba>
 80079b4:	684b      	ldr	r3, [r1, #4]
 80079b6:	2b00      	cmp	r3, #0
 80079b8:	dc02      	bgt.n	80079c0 <__sflush_r+0x1c>
 80079ba:	6c0b      	ldr	r3, [r1, #64]	@ 0x40
 80079bc:	2b00      	cmp	r3, #0
 80079be:	dd48      	ble.n	8007a52 <__sflush_r+0xae>
 80079c0:	6ae6      	ldr	r6, [r4, #44]	@ 0x2c
 80079c2:	2e00      	cmp	r6, #0
 80079c4:	d045      	beq.n	8007a52 <__sflush_r+0xae>
 80079c6:	2300      	movs	r3, #0
 80079c8:	f412 5280 	ands.w	r2, r2, #4096	@ 0x1000
 80079cc:	682f      	ldr	r7, [r5, #0]
 80079ce:	6a21      	ldr	r1, [r4, #32]
 80079d0:	602b      	str	r3, [r5, #0]
 80079d2:	d030      	beq.n	8007a36 <__sflush_r+0x92>
 80079d4:	6d62      	ldr	r2, [r4, #84]	@ 0x54
 80079d6:	89a3      	ldrh	r3, [r4, #12]
 80079d8:	0759      	lsls	r1, r3, #29
 80079da:	d505      	bpl.n	80079e8 <__sflush_r+0x44>
 80079dc:	6863      	ldr	r3, [r4, #4]
 80079de:	1ad2      	subs	r2, r2, r3
 80079e0:	6b63      	ldr	r3, [r4, #52]	@ 0x34
 80079e2:	b10b      	cbz	r3, 80079e8 <__sflush_r+0x44>
 80079e4:	6c23      	ldr	r3, [r4, #64]	@ 0x40
 80079e6:	1ad2      	subs	r2, r2, r3
 80079e8:	2300      	movs	r3, #0
 80079ea:	6ae6      	ldr	r6, [r4, #44]	@ 0x2c
 80079ec:	6a21      	ldr	r1, [r4, #32]
 80079ee:	4628      	mov	r0, r5
 80079f0:	47b0      	blx	r6
 80079f2:	1c43      	adds	r3, r0, #1
 80079f4:	89a3      	ldrh	r3, [r4, #12]
 80079f6:	d106      	bne.n	8007a06 <__sflush_r+0x62>
 80079f8:	6829      	ldr	r1, [r5, #0]
 80079fa:	291d      	cmp	r1, #29
 80079fc:	d82b      	bhi.n	8007a56 <__sflush_r+0xb2>
 80079fe:	4a2a      	ldr	r2, [pc, #168]	@ (8007aa8 <__sflush_r+0x104>)
 8007a00:	40ca      	lsrs	r2, r1
 8007a02:	07d6      	lsls	r6, r2, #31
 8007a04:	d527      	bpl.n	8007a56 <__sflush_r+0xb2>
 8007a06:	2200      	movs	r2, #0
 8007a08:	6062      	str	r2, [r4, #4]
 8007a0a:	04d9      	lsls	r1, r3, #19
 8007a0c:	6922      	ldr	r2, [r4, #16]
 8007a0e:	6022      	str	r2, [r4, #0]
 8007a10:	d504      	bpl.n	8007a1c <__sflush_r+0x78>
 8007a12:	1c42      	adds	r2, r0, #1
 8007a14:	d101      	bne.n	8007a1a <__sflush_r+0x76>
 8007a16:	682b      	ldr	r3, [r5, #0]
 8007a18:	b903      	cbnz	r3, 8007a1c <__sflush_r+0x78>
 8007a1a:	6560      	str	r0, [r4, #84]	@ 0x54
 8007a1c:	6b61      	ldr	r1, [r4, #52]	@ 0x34
 8007a1e:	602f      	str	r7, [r5, #0]
 8007a20:	b1b9      	cbz	r1, 8007a52 <__sflush_r+0xae>
 8007a22:	f104 0344 	add.w	r3, r4, #68	@ 0x44
 8007a26:	4299      	cmp	r1, r3
 8007a28:	d002      	beq.n	8007a30 <__sflush_r+0x8c>
 8007a2a:	4628      	mov	r0, r5
 8007a2c:	f7fe fa34 	bl	8005e98 <_free_r>
 8007a30:	2300      	movs	r3, #0
 8007a32:	6363      	str	r3, [r4, #52]	@ 0x34
 8007a34:	e00d      	b.n	8007a52 <__sflush_r+0xae>
 8007a36:	2301      	movs	r3, #1
 8007a38:	4628      	mov	r0, r5
 8007a3a:	47b0      	blx	r6
 8007a3c:	4602      	mov	r2, r0
 8007a3e:	1c50      	adds	r0, r2, #1
 8007a40:	d1c9      	bne.n	80079d6 <__sflush_r+0x32>
 8007a42:	682b      	ldr	r3, [r5, #0]
 8007a44:	2b00      	cmp	r3, #0
 8007a46:	d0c6      	beq.n	80079d6 <__sflush_r+0x32>
 8007a48:	2b1d      	cmp	r3, #29
 8007a4a:	d001      	beq.n	8007a50 <__sflush_r+0xac>
 8007a4c:	2b16      	cmp	r3, #22
 8007a4e:	d11e      	bne.n	8007a8e <__sflush_r+0xea>
 8007a50:	602f      	str	r7, [r5, #0]
 8007a52:	2000      	movs	r0, #0
 8007a54:	e022      	b.n	8007a9c <__sflush_r+0xf8>
 8007a56:	f043 0340 	orr.w	r3, r3, #64	@ 0x40
 8007a5a:	b21b      	sxth	r3, r3
 8007a5c:	e01b      	b.n	8007a96 <__sflush_r+0xf2>
 8007a5e:	690f      	ldr	r7, [r1, #16]
 8007a60:	2f00      	cmp	r7, #0
 8007a62:	d0f6      	beq.n	8007a52 <__sflush_r+0xae>
 8007a64:	0793      	lsls	r3, r2, #30
 8007a66:	680e      	ldr	r6, [r1, #0]
 8007a68:	bf08      	it	eq
 8007a6a:	694b      	ldreq	r3, [r1, #20]
 8007a6c:	600f      	str	r7, [r1, #0]
 8007a6e:	bf18      	it	ne
 8007a70:	2300      	movne	r3, #0
 8007a72:	eba6 0807 	sub.w	r8, r6, r7
 8007a76:	608b      	str	r3, [r1, #8]
 8007a78:	f1b8 0f00 	cmp.w	r8, #0
 8007a7c:	dde9      	ble.n	8007a52 <__sflush_r+0xae>
 8007a7e:	6a21      	ldr	r1, [r4, #32]
 8007a80:	6aa6      	ldr	r6, [r4, #40]	@ 0x28
 8007a82:	4643      	mov	r3, r8
 8007a84:	463a      	mov	r2, r7
 8007a86:	4628      	mov	r0, r5
 8007a88:	47b0      	blx	r6
 8007a8a:	2800      	cmp	r0, #0
 8007a8c:	dc08      	bgt.n	8007aa0 <__sflush_r+0xfc>
 8007a8e:	f9b4 300c 	ldrsh.w	r3, [r4, #12]
 8007a92:	f043 0340 	orr.w	r3, r3, #64	@ 0x40
 8007a96:	81a3      	strh	r3, [r4, #12]
 8007a98:	f04f 30ff 	mov.w	r0, #4294967295
 8007a9c:	e8bd 81f0 	ldmia.w	sp!, {r4, r5, r6, r7, r8, pc}
 8007aa0:	4407      	add	r7, r0
 8007aa2:	eba8 0800 	sub.w	r8, r8, r0
 8007aa6:	e7e7      	b.n	8007a78 <__sflush_r+0xd4>
 8007aa8:	20400001 	.word	0x20400001

08007aac <_fflush_r>:
 8007aac:	b538      	push	{r3, r4, r5, lr}
 8007aae:	690b      	ldr	r3, [r1, #16]
 8007ab0:	4605      	mov	r5, r0
 8007ab2:	460c      	mov	r4, r1
 8007ab4:	b913      	cbnz	r3, 8007abc <_fflush_r+0x10>
 8007ab6:	2500      	movs	r5, #0
 8007ab8:	4628      	mov	r0, r5
 8007aba:	bd38      	pop	{r3, r4, r5, pc}
 8007abc:	b118      	cbz	r0, 8007ac6 <_fflush_r+0x1a>
 8007abe:	6a03      	ldr	r3, [r0, #32]
 8007ac0:	b90b      	cbnz	r3, 8007ac6 <_fflush_r+0x1a>
 8007ac2:	f7fd fa03 	bl	8004ecc <__sinit>
 8007ac6:	f9b4 300c 	ldrsh.w	r3, [r4, #12]
 8007aca:	2b00      	cmp	r3, #0
 8007acc:	d0f3      	beq.n	8007ab6 <_fflush_r+0xa>
 8007ace:	6e62      	ldr	r2, [r4, #100]	@ 0x64
 8007ad0:	07d0      	lsls	r0, r2, #31
 8007ad2:	d404      	bmi.n	8007ade <_fflush_r+0x32>
 8007ad4:	0599      	lsls	r1, r3, #22
 8007ad6:	d402      	bmi.n	8007ade <_fflush_r+0x32>
 8007ad8:	6da0      	ldr	r0, [r4, #88]	@ 0x58
 8007ada:	f7fd fb6e 	bl	80051ba <__retarget_lock_acquire_recursive>
 8007ade:	4628      	mov	r0, r5
 8007ae0:	4621      	mov	r1, r4
 8007ae2:	f7ff ff5f 	bl	80079a4 <__sflush_r>
 8007ae6:	6e63      	ldr	r3, [r4, #100]	@ 0x64
 8007ae8:	07da      	lsls	r2, r3, #31
 8007aea:	4605      	mov	r5, r0
 8007aec:	d4e4      	bmi.n	8007ab8 <_fflush_r+0xc>
 8007aee:	89a3      	ldrh	r3, [r4, #12]
 8007af0:	059b      	lsls	r3, r3, #22
 8007af2:	d4e1      	bmi.n	8007ab8 <_fflush_r+0xc>
 8007af4:	6da0      	ldr	r0, [r4, #88]	@ 0x58
 8007af6:	f7fd fb61 	bl	80051bc <__retarget_lock_release_recursive>
 8007afa:	e7dd      	b.n	8007ab8 <_fflush_r+0xc>

08007afc <memmove>:
 8007afc:	4288      	cmp	r0, r1
 8007afe:	b510      	push	{r4, lr}
 8007b00:	eb01 0402 	add.w	r4, r1, r2
 8007b04:	d902      	bls.n	8007b0c <memmove+0x10>
 8007b06:	4284      	cmp	r4, r0
 8007b08:	4623      	mov	r3, r4
 8007b0a:	d807      	bhi.n	8007b1c <memmove+0x20>
 8007b0c:	1e43      	subs	r3, r0, #1
 8007b0e:	42a1      	cmp	r1, r4
 8007b10:	d008      	beq.n	8007b24 <memmove+0x28>
 8007b12:	f811 2b01 	ldrb.w	r2, [r1], #1
 8007b16:	f803 2f01 	strb.w	r2, [r3, #1]!
 8007b1a:	e7f8      	b.n	8007b0e <memmove+0x12>
 8007b1c:	4402      	add	r2, r0
 8007b1e:	4601      	mov	r1, r0
 8007b20:	428a      	cmp	r2, r1
 8007b22:	d100      	bne.n	8007b26 <memmove+0x2a>
 8007b24:	bd10      	pop	{r4, pc}
 8007b26:	f813 4d01 	ldrb.w	r4, [r3, #-1]!
 8007b2a:	f802 4d01 	strb.w	r4, [r2, #-1]!
 8007b2e:	e7f7      	b.n	8007b20 <memmove+0x24>

08007b30 <strncmp>:
 8007b30:	b510      	push	{r4, lr}
 8007b32:	b16a      	cbz	r2, 8007b50 <strncmp+0x20>
 8007b34:	3901      	subs	r1, #1
 8007b36:	1884      	adds	r4, r0, r2
 8007b38:	f810 2b01 	ldrb.w	r2, [r0], #1
 8007b3c:	f811 3f01 	ldrb.w	r3, [r1, #1]!
 8007b40:	429a      	cmp	r2, r3
 8007b42:	d103      	bne.n	8007b4c <strncmp+0x1c>
 8007b44:	42a0      	cmp	r0, r4
 8007b46:	d001      	beq.n	8007b4c <strncmp+0x1c>
 8007b48:	2a00      	cmp	r2, #0
 8007b4a:	d1f5      	bne.n	8007b38 <strncmp+0x8>
 8007b4c:	1ad0      	subs	r0, r2, r3
 8007b4e:	bd10      	pop	{r4, pc}
 8007b50:	4610      	mov	r0, r2
 8007b52:	e7fc      	b.n	8007b4e <strncmp+0x1e>

08007b54 <_sbrk_r>:
 8007b54:	b538      	push	{r3, r4, r5, lr}
 8007b56:	4d06      	ldr	r5, [pc, #24]	@ (8007b70 <_sbrk_r+0x1c>)
 8007b58:	2300      	movs	r3, #0
 8007b5a:	4604      	mov	r4, r0
 8007b5c:	4608      	mov	r0, r1
 8007b5e:	602b      	str	r3, [r5, #0]
 8007b60:	f7f9 fcd8 	bl	8001514 <_sbrk>
 8007b64:	1c43      	adds	r3, r0, #1
 8007b66:	d102      	bne.n	8007b6e <_sbrk_r+0x1a>
 8007b68:	682b      	ldr	r3, [r5, #0]
 8007b6a:	b103      	cbz	r3, 8007b6e <_sbrk_r+0x1a>
 8007b6c:	6023      	str	r3, [r4, #0]
 8007b6e:	bd38      	pop	{r3, r4, r5, pc}
 8007b70:	20004df4 	.word	0x20004df4
 8007b74:	00000000 	.word	0x00000000

08007b78 <nan>:
 8007b78:	ed9f 0b01 	vldr	d0, [pc, #4]	@ 8007b80 <nan+0x8>
 8007b7c:	4770      	bx	lr
 8007b7e:	bf00      	nop
 8007b80:	00000000 	.word	0x00000000
 8007b84:	7ff80000 	.word	0x7ff80000

08007b88 <__assert_func>:
 8007b88:	b51f      	push	{r0, r1, r2, r3, r4, lr}
 8007b8a:	4614      	mov	r4, r2
 8007b8c:	461a      	mov	r2, r3
 8007b8e:	4b09      	ldr	r3, [pc, #36]	@ (8007bb4 <__assert_func+0x2c>)
 8007b90:	681b      	ldr	r3, [r3, #0]
 8007b92:	4605      	mov	r5, r0
 8007b94:	68d8      	ldr	r0, [r3, #12]
 8007b96:	b14c      	cbz	r4, 8007bac <__assert_func+0x24>
 8007b98:	4b07      	ldr	r3, [pc, #28]	@ (8007bb8 <__assert_func+0x30>)
 8007b9a:	9100      	str	r1, [sp, #0]
 8007b9c:	e9cd 3401 	strd	r3, r4, [sp, #4]
 8007ba0:	4906      	ldr	r1, [pc, #24]	@ (8007bbc <__assert_func+0x34>)
 8007ba2:	462b      	mov	r3, r5
 8007ba4:	f000 fba8 	bl	80082f8 <fiprintf>
 8007ba8:	f000 fbb8 	bl	800831c <abort>
 8007bac:	4b04      	ldr	r3, [pc, #16]	@ (8007bc0 <__assert_func+0x38>)
 8007bae:	461c      	mov	r4, r3
 8007bb0:	e7f3      	b.n	8007b9a <__assert_func+0x12>
 8007bb2:	bf00      	nop
 8007bb4:	2000001c 	.word	0x2000001c
 8007bb8:	080089fe 	.word	0x080089fe
 8007bbc:	08008a0b 	.word	0x08008a0b
 8007bc0:	0800889a 	.word	0x0800889a

08007bc4 <_calloc_r>:
 8007bc4:	b570      	push	{r4, r5, r6, lr}
 8007bc6:	fba1 5402 	umull	r5, r4, r1, r2
 8007bca:	b934      	cbnz	r4, 8007bda <_calloc_r+0x16>
 8007bcc:	4629      	mov	r1, r5
 8007bce:	f7fe f9d7 	bl	8005f80 <_malloc_r>
 8007bd2:	4606      	mov	r6, r0
 8007bd4:	b928      	cbnz	r0, 8007be2 <_calloc_r+0x1e>
 8007bd6:	4630      	mov	r0, r6
 8007bd8:	bd70      	pop	{r4, r5, r6, pc}
 8007bda:	220c      	movs	r2, #12
 8007bdc:	6002      	str	r2, [r0, #0]
 8007bde:	2600      	movs	r6, #0
 8007be0:	e7f9      	b.n	8007bd6 <_calloc_r+0x12>
 8007be2:	462a      	mov	r2, r5
 8007be4:	4621      	mov	r1, r4
 8007be6:	f7fd fa0c 	bl	8005002 <memset>
 8007bea:	e7f4      	b.n	8007bd6 <_calloc_r+0x12>

08007bec <rshift>:
 8007bec:	6903      	ldr	r3, [r0, #16]
 8007bee:	ebb3 1f61 	cmp.w	r3, r1, asr #5
 8007bf2:	e92d 43f0 	stmdb	sp!, {r4, r5, r6, r7, r8, r9, lr}
 8007bf6:	ea4f 1261 	mov.w	r2, r1, asr #5
 8007bfa:	f100 0414 	add.w	r4, r0, #20
 8007bfe:	dd45      	ble.n	8007c8c <rshift+0xa0>
 8007c00:	f011 011f 	ands.w	r1, r1, #31
 8007c04:	eb04 0683 	add.w	r6, r4, r3, lsl #2
 8007c08:	eb04 0582 	add.w	r5, r4, r2, lsl #2
 8007c0c:	d10c      	bne.n	8007c28 <rshift+0x3c>
 8007c0e:	f100 0710 	add.w	r7, r0, #16
 8007c12:	4629      	mov	r1, r5
 8007c14:	42b1      	cmp	r1, r6
 8007c16:	d334      	bcc.n	8007c82 <rshift+0x96>
 8007c18:	1a9b      	subs	r3, r3, r2
 8007c1a:	009b      	lsls	r3, r3, #2
 8007c1c:	1eea      	subs	r2, r5, #3
 8007c1e:	4296      	cmp	r6, r2
 8007c20:	bf38      	it	cc
 8007c22:	2300      	movcc	r3, #0
 8007c24:	4423      	add	r3, r4
 8007c26:	e015      	b.n	8007c54 <rshift+0x68>
 8007c28:	f854 7022 	ldr.w	r7, [r4, r2, lsl #2]
 8007c2c:	f1c1 0820 	rsb	r8, r1, #32
 8007c30:	40cf      	lsrs	r7, r1
 8007c32:	f105 0e04 	add.w	lr, r5, #4
 8007c36:	46a1      	mov	r9, r4
 8007c38:	4576      	cmp	r6, lr
 8007c3a:	46f4      	mov	ip, lr
 8007c3c:	d815      	bhi.n	8007c6a <rshift+0x7e>
 8007c3e:	1a9a      	subs	r2, r3, r2
 8007c40:	0092      	lsls	r2, r2, #2
 8007c42:	3a04      	subs	r2, #4
 8007c44:	3501      	adds	r5, #1
 8007c46:	42ae      	cmp	r6, r5
 8007c48:	bf38      	it	cc
 8007c4a:	2200      	movcc	r2, #0
 8007c4c:	18a3      	adds	r3, r4, r2
 8007c4e:	50a7      	str	r7, [r4, r2]
 8007c50:	b107      	cbz	r7, 8007c54 <rshift+0x68>
 8007c52:	3304      	adds	r3, #4
 8007c54:	1b1a      	subs	r2, r3, r4
 8007c56:	42a3      	cmp	r3, r4
 8007c58:	ea4f 02a2 	mov.w	r2, r2, asr #2
 8007c5c:	bf08      	it	eq
 8007c5e:	2300      	moveq	r3, #0
 8007c60:	6102      	str	r2, [r0, #16]
 8007c62:	bf08      	it	eq
 8007c64:	6143      	streq	r3, [r0, #20]
 8007c66:	e8bd 83f0 	ldmia.w	sp!, {r4, r5, r6, r7, r8, r9, pc}
 8007c6a:	f8dc c000 	ldr.w	ip, [ip]
 8007c6e:	fa0c fc08 	lsl.w	ip, ip, r8
 8007c72:	ea4c 0707 	orr.w	r7, ip, r7
 8007c76:	f849 7b04 	str.w	r7, [r9], #4
 8007c7a:	f85e 7b04 	ldr.w	r7, [lr], #4
 8007c7e:	40cf      	lsrs	r7, r1
 8007c80:	e7da      	b.n	8007c38 <rshift+0x4c>
 8007c82:	f851 cb04 	ldr.w	ip, [r1], #4
 8007c86:	f847 cf04 	str.w	ip, [r7, #4]!
 8007c8a:	e7c3      	b.n	8007c14 <rshift+0x28>
 8007c8c:	4623      	mov	r3, r4
 8007c8e:	e7e1      	b.n	8007c54 <rshift+0x68>

08007c90 <__hexdig_fun>:
 8007c90:	f1a0 0330 	sub.w	r3, r0, #48	@ 0x30
 8007c94:	2b09      	cmp	r3, #9
 8007c96:	d802      	bhi.n	8007c9e <__hexdig_fun+0xe>
 8007c98:	3820      	subs	r0, #32
 8007c9a:	b2c0      	uxtb	r0, r0
 8007c9c:	4770      	bx	lr
 8007c9e:	f1a0 0361 	sub.w	r3, r0, #97	@ 0x61
 8007ca2:	2b05      	cmp	r3, #5
 8007ca4:	d801      	bhi.n	8007caa <__hexdig_fun+0x1a>
 8007ca6:	3847      	subs	r0, #71	@ 0x47
 8007ca8:	e7f7      	b.n	8007c9a <__hexdig_fun+0xa>
 8007caa:	f1a0 0341 	sub.w	r3, r0, #65	@ 0x41
 8007cae:	2b05      	cmp	r3, #5
 8007cb0:	d801      	bhi.n	8007cb6 <__hexdig_fun+0x26>
 8007cb2:	3827      	subs	r0, #39	@ 0x27
 8007cb4:	e7f1      	b.n	8007c9a <__hexdig_fun+0xa>
 8007cb6:	2000      	movs	r0, #0
 8007cb8:	4770      	bx	lr
	...

08007cbc <__gethex>:
 8007cbc:	e92d 4ff0 	stmdb	sp!, {r4, r5, r6, r7, r8, r9, sl, fp, lr}
 8007cc0:	b085      	sub	sp, #20
 8007cc2:	468a      	mov	sl, r1
 8007cc4:	9302      	str	r3, [sp, #8]
 8007cc6:	680b      	ldr	r3, [r1, #0]
 8007cc8:	9001      	str	r0, [sp, #4]
 8007cca:	4690      	mov	r8, r2
 8007ccc:	1c9c      	adds	r4, r3, #2
 8007cce:	46a1      	mov	r9, r4
 8007cd0:	f814 0b01 	ldrb.w	r0, [r4], #1
 8007cd4:	2830      	cmp	r0, #48	@ 0x30
 8007cd6:	d0fa      	beq.n	8007cce <__gethex+0x12>
 8007cd8:	eba9 0303 	sub.w	r3, r9, r3
 8007cdc:	f1a3 0b02 	sub.w	fp, r3, #2
 8007ce0:	f7ff ffd6 	bl	8007c90 <__hexdig_fun>
 8007ce4:	4605      	mov	r5, r0
 8007ce6:	2800      	cmp	r0, #0
 8007ce8:	d168      	bne.n	8007dbc <__gethex+0x100>
 8007cea:	49a0      	ldr	r1, [pc, #640]	@ (8007f6c <__gethex+0x2b0>)
 8007cec:	2201      	movs	r2, #1
 8007cee:	4648      	mov	r0, r9
 8007cf0:	f7ff ff1e 	bl	8007b30 <strncmp>
 8007cf4:	4607      	mov	r7, r0
 8007cf6:	2800      	cmp	r0, #0
 8007cf8:	d167      	bne.n	8007dca <__gethex+0x10e>
 8007cfa:	f899 0001 	ldrb.w	r0, [r9, #1]
 8007cfe:	4626      	mov	r6, r4
 8007d00:	f7ff ffc6 	bl	8007c90 <__hexdig_fun>
 8007d04:	2800      	cmp	r0, #0
 8007d06:	d062      	beq.n	8007dce <__gethex+0x112>
 8007d08:	4623      	mov	r3, r4
 8007d0a:	7818      	ldrb	r0, [r3, #0]
 8007d0c:	2830      	cmp	r0, #48	@ 0x30
 8007d0e:	4699      	mov	r9, r3
 8007d10:	f103 0301 	add.w	r3, r3, #1
 8007d14:	d0f9      	beq.n	8007d0a <__gethex+0x4e>
 8007d16:	f7ff ffbb 	bl	8007c90 <__hexdig_fun>
 8007d1a:	fab0 f580 	clz	r5, r0
 8007d1e:	096d      	lsrs	r5, r5, #5
 8007d20:	f04f 0b01 	mov.w	fp, #1
 8007d24:	464a      	mov	r2, r9
 8007d26:	4616      	mov	r6, r2
 8007d28:	3201      	adds	r2, #1
 8007d2a:	7830      	ldrb	r0, [r6, #0]
 8007d2c:	f7ff ffb0 	bl	8007c90 <__hexdig_fun>
 8007d30:	2800      	cmp	r0, #0
 8007d32:	d1f8      	bne.n	8007d26 <__gethex+0x6a>
 8007d34:	498d      	ldr	r1, [pc, #564]	@ (8007f6c <__gethex+0x2b0>)
 8007d36:	2201      	movs	r2, #1
 8007d38:	4630      	mov	r0, r6
 8007d3a:	f7ff fef9 	bl	8007b30 <strncmp>
 8007d3e:	2800      	cmp	r0, #0
 8007d40:	d13f      	bne.n	8007dc2 <__gethex+0x106>
 8007d42:	b944      	cbnz	r4, 8007d56 <__gethex+0x9a>
 8007d44:	1c74      	adds	r4, r6, #1
 8007d46:	4622      	mov	r2, r4
 8007d48:	4616      	mov	r6, r2
 8007d4a:	3201      	adds	r2, #1
 8007d4c:	7830      	ldrb	r0, [r6, #0]
 8007d4e:	f7ff ff9f 	bl	8007c90 <__hexdig_fun>
 8007d52:	2800      	cmp	r0, #0
 8007d54:	d1f8      	bne.n	8007d48 <__gethex+0x8c>
 8007d56:	1ba4      	subs	r4, r4, r6
 8007d58:	00a7      	lsls	r7, r4, #2
 8007d5a:	7833      	ldrb	r3, [r6, #0]
 8007d5c:	f003 03df 	and.w	r3, r3, #223	@ 0xdf
 8007d60:	2b50      	cmp	r3, #80	@ 0x50
 8007d62:	d13e      	bne.n	8007de2 <__gethex+0x126>
 8007d64:	7873      	ldrb	r3, [r6, #1]
 8007d66:	2b2b      	cmp	r3, #43	@ 0x2b
 8007d68:	d033      	beq.n	8007dd2 <__gethex+0x116>
 8007d6a:	2b2d      	cmp	r3, #45	@ 0x2d
 8007d6c:	d034      	beq.n	8007dd8 <__gethex+0x11c>
 8007d6e:	1c71      	adds	r1, r6, #1
 8007d70:	2400      	movs	r4, #0
 8007d72:	7808      	ldrb	r0, [r1, #0]
 8007d74:	f7ff ff8c 	bl	8007c90 <__hexdig_fun>
 8007d78:	1e43      	subs	r3, r0, #1
 8007d7a:	b2db      	uxtb	r3, r3
 8007d7c:	2b18      	cmp	r3, #24
 8007d7e:	d830      	bhi.n	8007de2 <__gethex+0x126>
 8007d80:	f1a0 0210 	sub.w	r2, r0, #16
 8007d84:	f811 0f01 	ldrb.w	r0, [r1, #1]!
 8007d88:	f7ff ff82 	bl	8007c90 <__hexdig_fun>
 8007d8c:	f100 3cff 	add.w	ip, r0, #4294967295
 8007d90:	fa5f fc8c 	uxtb.w	ip, ip
 8007d94:	f1bc 0f18 	cmp.w	ip, #24
 8007d98:	f04f 030a 	mov.w	r3, #10
 8007d9c:	d91e      	bls.n	8007ddc <__gethex+0x120>
 8007d9e:	b104      	cbz	r4, 8007da2 <__gethex+0xe6>
 8007da0:	4252      	negs	r2, r2
 8007da2:	4417      	add	r7, r2
 8007da4:	f8ca 1000 	str.w	r1, [sl]
 8007da8:	b1ed      	cbz	r5, 8007de6 <__gethex+0x12a>
 8007daa:	f1bb 0f00 	cmp.w	fp, #0
 8007dae:	bf0c      	ite	eq
 8007db0:	2506      	moveq	r5, #6
 8007db2:	2500      	movne	r5, #0
 8007db4:	4628      	mov	r0, r5
 8007db6:	b005      	add	sp, #20
 8007db8:	e8bd 8ff0 	ldmia.w	sp!, {r4, r5, r6, r7, r8, r9, sl, fp, pc}
 8007dbc:	2500      	movs	r5, #0
 8007dbe:	462c      	mov	r4, r5
 8007dc0:	e7b0      	b.n	8007d24 <__gethex+0x68>
 8007dc2:	2c00      	cmp	r4, #0
 8007dc4:	d1c7      	bne.n	8007d56 <__gethex+0x9a>
 8007dc6:	4627      	mov	r7, r4
 8007dc8:	e7c7      	b.n	8007d5a <__gethex+0x9e>
 8007dca:	464e      	mov	r6, r9
 8007dcc:	462f      	mov	r7, r5
 8007dce:	2501      	movs	r5, #1
 8007dd0:	e7c3      	b.n	8007d5a <__gethex+0x9e>
 8007dd2:	2400      	movs	r4, #0
 8007dd4:	1cb1      	adds	r1, r6, #2
 8007dd6:	e7cc      	b.n	8007d72 <__gethex+0xb6>
 8007dd8:	2401      	movs	r4, #1
 8007dda:	e7fb      	b.n	8007dd4 <__gethex+0x118>
 8007ddc:	fb03 0002 	mla	r0, r3, r2, r0
 8007de0:	e7ce      	b.n	8007d80 <__gethex+0xc4>
 8007de2:	4631      	mov	r1, r6
 8007de4:	e7de      	b.n	8007da4 <__gethex+0xe8>
 8007de6:	eba6 0309 	sub.w	r3, r6, r9
 8007dea:	3b01      	subs	r3, #1
 8007dec:	4629      	mov	r1, r5
 8007dee:	2b07      	cmp	r3, #7
 8007df0:	dc0a      	bgt.n	8007e08 <__gethex+0x14c>
 8007df2:	9801      	ldr	r0, [sp, #4]
 8007df4:	f7fe f950 	bl	8006098 <_Balloc>
 8007df8:	4604      	mov	r4, r0
 8007dfa:	b940      	cbnz	r0, 8007e0e <__gethex+0x152>
 8007dfc:	4b5c      	ldr	r3, [pc, #368]	@ (8007f70 <__gethex+0x2b4>)
 8007dfe:	4602      	mov	r2, r0
 8007e00:	21e4      	movs	r1, #228	@ 0xe4
 8007e02:	485c      	ldr	r0, [pc, #368]	@ (8007f74 <__gethex+0x2b8>)
 8007e04:	f7ff fec0 	bl	8007b88 <__assert_func>
 8007e08:	3101      	adds	r1, #1
 8007e0a:	105b      	asrs	r3, r3, #1
 8007e0c:	e7ef      	b.n	8007dee <__gethex+0x132>
 8007e0e:	f100 0a14 	add.w	sl, r0, #20
 8007e12:	2300      	movs	r3, #0
 8007e14:	4655      	mov	r5, sl
 8007e16:	469b      	mov	fp, r3
 8007e18:	45b1      	cmp	r9, r6
 8007e1a:	d337      	bcc.n	8007e8c <__gethex+0x1d0>
 8007e1c:	f845 bb04 	str.w	fp, [r5], #4
 8007e20:	eba5 050a 	sub.w	r5, r5, sl
 8007e24:	10ad      	asrs	r5, r5, #2
 8007e26:	6125      	str	r5, [r4, #16]
 8007e28:	4658      	mov	r0, fp
 8007e2a:	f7fe fa27 	bl	800627c <__hi0bits>
 8007e2e:	016d      	lsls	r5, r5, #5
 8007e30:	f8d8 6000 	ldr.w	r6, [r8]
 8007e34:	1a2d      	subs	r5, r5, r0
 8007e36:	42b5      	cmp	r5, r6
 8007e38:	dd54      	ble.n	8007ee4 <__gethex+0x228>
 8007e3a:	1bad      	subs	r5, r5, r6
 8007e3c:	4629      	mov	r1, r5
 8007e3e:	4620      	mov	r0, r4
 8007e40:	f7fe fdb3 	bl	80069aa <__any_on>
 8007e44:	4681      	mov	r9, r0
 8007e46:	b178      	cbz	r0, 8007e68 <__gethex+0x1ac>
 8007e48:	1e6b      	subs	r3, r5, #1
 8007e4a:	1159      	asrs	r1, r3, #5
 8007e4c:	f003 021f 	and.w	r2, r3, #31
 8007e50:	f85a 1021 	ldr.w	r1, [sl, r1, lsl #2]
 8007e54:	f04f 0901 	mov.w	r9, #1
 8007e58:	fa09 f202 	lsl.w	r2, r9, r2
 8007e5c:	420a      	tst	r2, r1
 8007e5e:	d003      	beq.n	8007e68 <__gethex+0x1ac>
 8007e60:	454b      	cmp	r3, r9
 8007e62:	dc36      	bgt.n	8007ed2 <__gethex+0x216>
 8007e64:	f04f 0902 	mov.w	r9, #2
 8007e68:	4629      	mov	r1, r5
 8007e6a:	4620      	mov	r0, r4
 8007e6c:	f7ff febe 	bl	8007bec <rshift>
 8007e70:	442f      	add	r7, r5
 8007e72:	f8d8 3008 	ldr.w	r3, [r8, #8]
 8007e76:	42bb      	cmp	r3, r7
 8007e78:	da42      	bge.n	8007f00 <__gethex+0x244>
 8007e7a:	9801      	ldr	r0, [sp, #4]
 8007e7c:	4621      	mov	r1, r4
 8007e7e:	f7fe f94b 	bl	8006118 <_Bfree>
 8007e82:	9a0e      	ldr	r2, [sp, #56]	@ 0x38
 8007e84:	2300      	movs	r3, #0
 8007e86:	6013      	str	r3, [r2, #0]
 8007e88:	25a3      	movs	r5, #163	@ 0xa3
 8007e8a:	e793      	b.n	8007db4 <__gethex+0xf8>
 8007e8c:	f816 2d01 	ldrb.w	r2, [r6, #-1]!
 8007e90:	2a2e      	cmp	r2, #46	@ 0x2e
 8007e92:	d012      	beq.n	8007eba <__gethex+0x1fe>
 8007e94:	2b20      	cmp	r3, #32
 8007e96:	d104      	bne.n	8007ea2 <__gethex+0x1e6>
 8007e98:	f845 bb04 	str.w	fp, [r5], #4
 8007e9c:	f04f 0b00 	mov.w	fp, #0
 8007ea0:	465b      	mov	r3, fp
 8007ea2:	7830      	ldrb	r0, [r6, #0]
 8007ea4:	9303      	str	r3, [sp, #12]
 8007ea6:	f7ff fef3 	bl	8007c90 <__hexdig_fun>
 8007eaa:	9b03      	ldr	r3, [sp, #12]
 8007eac:	f000 000f 	and.w	r0, r0, #15
 8007eb0:	4098      	lsls	r0, r3
 8007eb2:	ea4b 0b00 	orr.w	fp, fp, r0
 8007eb6:	3304      	adds	r3, #4
 8007eb8:	e7ae      	b.n	8007e18 <__gethex+0x15c>
 8007eba:	45b1      	cmp	r9, r6
 8007ebc:	d8ea      	bhi.n	8007e94 <__gethex+0x1d8>
 8007ebe:	492b      	ldr	r1, [pc, #172]	@ (8007f6c <__gethex+0x2b0>)
 8007ec0:	9303      	str	r3, [sp, #12]
 8007ec2:	2201      	movs	r2, #1
 8007ec4:	4630      	mov	r0, r6
 8007ec6:	f7ff fe33 	bl	8007b30 <strncmp>
 8007eca:	9b03      	ldr	r3, [sp, #12]
 8007ecc:	2800      	cmp	r0, #0
 8007ece:	d1e1      	bne.n	8007e94 <__gethex+0x1d8>
 8007ed0:	e7a2      	b.n	8007e18 <__gethex+0x15c>
 8007ed2:	1ea9      	subs	r1, r5, #2
 8007ed4:	4620      	mov	r0, r4
 8007ed6:	f7fe fd68 	bl	80069aa <__any_on>
 8007eda:	2800      	cmp	r0, #0
 8007edc:	d0c2      	beq.n	8007e64 <__gethex+0x1a8>
 8007ede:	f04f 0903 	mov.w	r9, #3
 8007ee2:	e7c1      	b.n	8007e68 <__gethex+0x1ac>
 8007ee4:	da09      	bge.n	8007efa <__gethex+0x23e>
 8007ee6:	1b75      	subs	r5, r6, r5
 8007ee8:	4621      	mov	r1, r4
 8007eea:	9801      	ldr	r0, [sp, #4]
 8007eec:	462a      	mov	r2, r5
 8007eee:	f7fe fb23 	bl	8006538 <__lshift>
 8007ef2:	1b7f      	subs	r7, r7, r5
 8007ef4:	4604      	mov	r4, r0
 8007ef6:	f100 0a14 	add.w	sl, r0, #20
 8007efa:	f04f 0900 	mov.w	r9, #0
 8007efe:	e7b8      	b.n	8007e72 <__gethex+0x1b6>
 8007f00:	f8d8 5004 	ldr.w	r5, [r8, #4]
 8007f04:	42bd      	cmp	r5, r7
 8007f06:	dd6f      	ble.n	8007fe8 <__gethex+0x32c>
 8007f08:	1bed      	subs	r5, r5, r7
 8007f0a:	42ae      	cmp	r6, r5
 8007f0c:	dc34      	bgt.n	8007f78 <__gethex+0x2bc>
 8007f0e:	f8d8 300c 	ldr.w	r3, [r8, #12]
 8007f12:	2b02      	cmp	r3, #2
 8007f14:	d022      	beq.n	8007f5c <__gethex+0x2a0>
 8007f16:	2b03      	cmp	r3, #3
 8007f18:	d024      	beq.n	8007f64 <__gethex+0x2a8>
 8007f1a:	2b01      	cmp	r3, #1
 8007f1c:	d115      	bne.n	8007f4a <__gethex+0x28e>
 8007f1e:	42ae      	cmp	r6, r5
 8007f20:	d113      	bne.n	8007f4a <__gethex+0x28e>
 8007f22:	2e01      	cmp	r6, #1
 8007f24:	d10b      	bne.n	8007f3e <__gethex+0x282>
 8007f26:	9a02      	ldr	r2, [sp, #8]
 8007f28:	f8d8 3004 	ldr.w	r3, [r8, #4]
 8007f2c:	6013      	str	r3, [r2, #0]
 8007f2e:	2301      	movs	r3, #1
 8007f30:	6123      	str	r3, [r4, #16]
 8007f32:	f8ca 3000 	str.w	r3, [sl]
 8007f36:	9b0e      	ldr	r3, [sp, #56]	@ 0x38
 8007f38:	2562      	movs	r5, #98	@ 0x62
 8007f3a:	601c      	str	r4, [r3, #0]
 8007f3c:	e73a      	b.n	8007db4 <__gethex+0xf8>
 8007f3e:	1e71      	subs	r1, r6, #1
 8007f40:	4620      	mov	r0, r4
 8007f42:	f7fe fd32 	bl	80069aa <__any_on>
 8007f46:	2800      	cmp	r0, #0
 8007f48:	d1ed      	bne.n	8007f26 <__gethex+0x26a>
 8007f4a:	9801      	ldr	r0, [sp, #4]
 8007f4c:	4621      	mov	r1, r4
 8007f4e:	f7fe f8e3 	bl	8006118 <_Bfree>
 8007f52:	9a0e      	ldr	r2, [sp, #56]	@ 0x38
 8007f54:	2300      	movs	r3, #0
 8007f56:	6013      	str	r3, [r2, #0]
 8007f58:	2550      	movs	r5, #80	@ 0x50
 8007f5a:	e72b      	b.n	8007db4 <__gethex+0xf8>
 8007f5c:	9b0f      	ldr	r3, [sp, #60]	@ 0x3c
 8007f5e:	2b00      	cmp	r3, #0
 8007f60:	d1f3      	bne.n	8007f4a <__gethex+0x28e>
 8007f62:	e7e0      	b.n	8007f26 <__gethex+0x26a>
 8007f64:	9b0f      	ldr	r3, [sp, #60]	@ 0x3c
 8007f66:	2b00      	cmp	r3, #0
 8007f68:	d1dd      	bne.n	8007f26 <__gethex+0x26a>
 8007f6a:	e7ee      	b.n	8007f4a <__gethex+0x28e>
 8007f6c:	080089e3 	.word	0x080089e3
 8007f70:	08008979 	.word	0x08008979
 8007f74:	08008a3a 	.word	0x08008a3a
 8007f78:	1e6f      	subs	r7, r5, #1
 8007f7a:	f1b9 0f00 	cmp.w	r9, #0
 8007f7e:	d130      	bne.n	8007fe2 <__gethex+0x326>
 8007f80:	b127      	cbz	r7, 8007f8c <__gethex+0x2d0>
 8007f82:	4639      	mov	r1, r7
 8007f84:	4620      	mov	r0, r4
 8007f86:	f7fe fd10 	bl	80069aa <__any_on>
 8007f8a:	4681      	mov	r9, r0
 8007f8c:	117a      	asrs	r2, r7, #5
 8007f8e:	2301      	movs	r3, #1
 8007f90:	f85a 2022 	ldr.w	r2, [sl, r2, lsl #2]
 8007f94:	f007 071f 	and.w	r7, r7, #31
 8007f98:	40bb      	lsls	r3, r7
 8007f9a:	4213      	tst	r3, r2
 8007f9c:	4629      	mov	r1, r5
 8007f9e:	4620      	mov	r0, r4
 8007fa0:	bf18      	it	ne
 8007fa2:	f049 0902 	orrne.w	r9, r9, #2
 8007fa6:	f7ff fe21 	bl	8007bec <rshift>
 8007faa:	f8d8 7004 	ldr.w	r7, [r8, #4]
 8007fae:	1b76      	subs	r6, r6, r5
 8007fb0:	2502      	movs	r5, #2
 8007fb2:	f1b9 0f00 	cmp.w	r9, #0
 8007fb6:	d047      	beq.n	8008048 <__gethex+0x38c>
 8007fb8:	f8d8 300c 	ldr.w	r3, [r8, #12]
 8007fbc:	2b02      	cmp	r3, #2
 8007fbe:	d015      	beq.n	8007fec <__gethex+0x330>
 8007fc0:	2b03      	cmp	r3, #3
 8007fc2:	d017      	beq.n	8007ff4 <__gethex+0x338>
 8007fc4:	2b01      	cmp	r3, #1
 8007fc6:	d109      	bne.n	8007fdc <__gethex+0x320>
 8007fc8:	f019 0f02 	tst.w	r9, #2
 8007fcc:	d006      	beq.n	8007fdc <__gethex+0x320>
 8007fce:	f8da 3000 	ldr.w	r3, [sl]
 8007fd2:	ea49 0903 	orr.w	r9, r9, r3
 8007fd6:	f019 0f01 	tst.w	r9, #1
 8007fda:	d10e      	bne.n	8007ffa <__gethex+0x33e>
 8007fdc:	f045 0510 	orr.w	r5, r5, #16
 8007fe0:	e032      	b.n	8008048 <__gethex+0x38c>
 8007fe2:	f04f 0901 	mov.w	r9, #1
 8007fe6:	e7d1      	b.n	8007f8c <__gethex+0x2d0>
 8007fe8:	2501      	movs	r5, #1
 8007fea:	e7e2      	b.n	8007fb2 <__gethex+0x2f6>
 8007fec:	9b0f      	ldr	r3, [sp, #60]	@ 0x3c
 8007fee:	f1c3 0301 	rsb	r3, r3, #1
 8007ff2:	930f      	str	r3, [sp, #60]	@ 0x3c
 8007ff4:	9b0f      	ldr	r3, [sp, #60]	@ 0x3c
 8007ff6:	2b00      	cmp	r3, #0
 8007ff8:	d0f0      	beq.n	8007fdc <__gethex+0x320>
 8007ffa:	f8d4 b010 	ldr.w	fp, [r4, #16]
 8007ffe:	f104 0314 	add.w	r3, r4, #20
 8008002:	ea4f 0a8b 	mov.w	sl, fp, lsl #2
 8008006:	eb03 018b 	add.w	r1, r3, fp, lsl #2
 800800a:	f04f 0c00 	mov.w	ip, #0
 800800e:	4618      	mov	r0, r3
 8008010:	f853 2b04 	ldr.w	r2, [r3], #4
 8008014:	f1b2 3fff 	cmp.w	r2, #4294967295
 8008018:	d01b      	beq.n	8008052 <__gethex+0x396>
 800801a:	3201      	adds	r2, #1
 800801c:	6002      	str	r2, [r0, #0]
 800801e:	2d02      	cmp	r5, #2
 8008020:	f104 0314 	add.w	r3, r4, #20
 8008024:	d13c      	bne.n	80080a0 <__gethex+0x3e4>
 8008026:	f8d8 2000 	ldr.w	r2, [r8]
 800802a:	3a01      	subs	r2, #1
 800802c:	42b2      	cmp	r2, r6
 800802e:	d109      	bne.n	8008044 <__gethex+0x388>
 8008030:	1171      	asrs	r1, r6, #5
 8008032:	2201      	movs	r2, #1
 8008034:	f853 3021 	ldr.w	r3, [r3, r1, lsl #2]
 8008038:	f006 061f 	and.w	r6, r6, #31
 800803c:	fa02 f606 	lsl.w	r6, r2, r6
 8008040:	421e      	tst	r6, r3
 8008042:	d13a      	bne.n	80080ba <__gethex+0x3fe>
 8008044:	f045 0520 	orr.w	r5, r5, #32
 8008048:	9b0e      	ldr	r3, [sp, #56]	@ 0x38
 800804a:	601c      	str	r4, [r3, #0]
 800804c:	9b02      	ldr	r3, [sp, #8]
 800804e:	601f      	str	r7, [r3, #0]
 8008050:	e6b0      	b.n	8007db4 <__gethex+0xf8>
 8008052:	4299      	cmp	r1, r3
 8008054:	f843 cc04 	str.w	ip, [r3, #-4]
 8008058:	d8d9      	bhi.n	800800e <__gethex+0x352>
 800805a:	68a3      	ldr	r3, [r4, #8]
 800805c:	459b      	cmp	fp, r3
 800805e:	db17      	blt.n	8008090 <__gethex+0x3d4>
 8008060:	6861      	ldr	r1, [r4, #4]
 8008062:	9801      	ldr	r0, [sp, #4]
 8008064:	3101      	adds	r1, #1
 8008066:	f7fe f817 	bl	8006098 <_Balloc>
 800806a:	4681      	mov	r9, r0
 800806c:	b918      	cbnz	r0, 8008076 <__gethex+0x3ba>
 800806e:	4b1a      	ldr	r3, [pc, #104]	@ (80080d8 <__gethex+0x41c>)
 8008070:	4602      	mov	r2, r0
 8008072:	2184      	movs	r1, #132	@ 0x84
 8008074:	e6c5      	b.n	8007e02 <__gethex+0x146>
 8008076:	6922      	ldr	r2, [r4, #16]
 8008078:	3202      	adds	r2, #2
 800807a:	f104 010c 	add.w	r1, r4, #12
 800807e:	0092      	lsls	r2, r2, #2
 8008080:	300c      	adds	r0, #12
 8008082:	f7fd f89c 	bl	80051be <memcpy>
 8008086:	4621      	mov	r1, r4
 8008088:	9801      	ldr	r0, [sp, #4]
 800808a:	f7fe f845 	bl	8006118 <_Bfree>
 800808e:	464c      	mov	r4, r9
 8008090:	6923      	ldr	r3, [r4, #16]
 8008092:	1c5a      	adds	r2, r3, #1
 8008094:	eb04 0383 	add.w	r3, r4, r3, lsl #2
 8008098:	6122      	str	r2, [r4, #16]
 800809a:	2201      	movs	r2, #1
 800809c:	615a      	str	r2, [r3, #20]
 800809e:	e7be      	b.n	800801e <__gethex+0x362>
 80080a0:	6922      	ldr	r2, [r4, #16]
 80080a2:	455a      	cmp	r2, fp
 80080a4:	dd0b      	ble.n	80080be <__gethex+0x402>
 80080a6:	2101      	movs	r1, #1
 80080a8:	4620      	mov	r0, r4
 80080aa:	f7ff fd9f 	bl	8007bec <rshift>
 80080ae:	f8d8 3008 	ldr.w	r3, [r8, #8]
 80080b2:	3701      	adds	r7, #1
 80080b4:	42bb      	cmp	r3, r7
 80080b6:	f6ff aee0 	blt.w	8007e7a <__gethex+0x1be>
 80080ba:	2501      	movs	r5, #1
 80080bc:	e7c2      	b.n	8008044 <__gethex+0x388>
 80080be:	f016 061f 	ands.w	r6, r6, #31
 80080c2:	d0fa      	beq.n	80080ba <__gethex+0x3fe>
 80080c4:	4453      	add	r3, sl
 80080c6:	f1c6 0620 	rsb	r6, r6, #32
 80080ca:	f853 0c04 	ldr.w	r0, [r3, #-4]
 80080ce:	f7fe f8d5 	bl	800627c <__hi0bits>
 80080d2:	42b0      	cmp	r0, r6
 80080d4:	dbe7      	blt.n	80080a6 <__gethex+0x3ea>
 80080d6:	e7f0      	b.n	80080ba <__gethex+0x3fe>
 80080d8:	08008979 	.word	0x08008979

080080dc <L_shift>:
 80080dc:	f1c2 0208 	rsb	r2, r2, #8
 80080e0:	0092      	lsls	r2, r2, #2
 80080e2:	b570      	push	{r4, r5, r6, lr}
 80080e4:	f1c2 0620 	rsb	r6, r2, #32
 80080e8:	6843      	ldr	r3, [r0, #4]
 80080ea:	6804      	ldr	r4, [r0, #0]
 80080ec:	fa03 f506 	lsl.w	r5, r3, r6
 80080f0:	432c      	orrs	r4, r5
 80080f2:	40d3      	lsrs	r3, r2
 80080f4:	6004      	str	r4, [r0, #0]
 80080f6:	f840 3f04 	str.w	r3, [r0, #4]!
 80080fa:	4288      	cmp	r0, r1
 80080fc:	d3f4      	bcc.n	80080e8 <L_shift+0xc>
 80080fe:	bd70      	pop	{r4, r5, r6, pc}

08008100 <__match>:
 8008100:	b530      	push	{r4, r5, lr}
 8008102:	6803      	ldr	r3, [r0, #0]
 8008104:	3301      	adds	r3, #1
 8008106:	f811 4b01 	ldrb.w	r4, [r1], #1
 800810a:	b914      	cbnz	r4, 8008112 <__match+0x12>
 800810c:	6003      	str	r3, [r0, #0]
 800810e:	2001      	movs	r0, #1
 8008110:	bd30      	pop	{r4, r5, pc}
 8008112:	f813 2b01 	ldrb.w	r2, [r3], #1
 8008116:	f1a2 0541 	sub.w	r5, r2, #65	@ 0x41
 800811a:	2d19      	cmp	r5, #25
 800811c:	bf98      	it	ls
 800811e:	3220      	addls	r2, #32
 8008120:	42a2      	cmp	r2, r4
 8008122:	d0f0      	beq.n	8008106 <__match+0x6>
 8008124:	2000      	movs	r0, #0
 8008126:	e7f3      	b.n	8008110 <__match+0x10>

08008128 <__hexnan>:
 8008128:	e92d 4ff0 	stmdb	sp!, {r4, r5, r6, r7, r8, r9, sl, fp, lr}
 800812c:	680b      	ldr	r3, [r1, #0]
 800812e:	6801      	ldr	r1, [r0, #0]
 8008130:	115e      	asrs	r6, r3, #5
 8008132:	eb02 0686 	add.w	r6, r2, r6, lsl #2
 8008136:	f013 031f 	ands.w	r3, r3, #31
 800813a:	b087      	sub	sp, #28
 800813c:	bf18      	it	ne
 800813e:	3604      	addne	r6, #4
 8008140:	2500      	movs	r5, #0
 8008142:	1f37      	subs	r7, r6, #4
 8008144:	4682      	mov	sl, r0
 8008146:	4690      	mov	r8, r2
 8008148:	9301      	str	r3, [sp, #4]
 800814a:	f846 5c04 	str.w	r5, [r6, #-4]
 800814e:	46b9      	mov	r9, r7
 8008150:	463c      	mov	r4, r7
 8008152:	9502      	str	r5, [sp, #8]
 8008154:	46ab      	mov	fp, r5
 8008156:	784a      	ldrb	r2, [r1, #1]
 8008158:	1c4b      	adds	r3, r1, #1
 800815a:	9303      	str	r3, [sp, #12]
 800815c:	b342      	cbz	r2, 80081b0 <__hexnan+0x88>
 800815e:	4610      	mov	r0, r2
 8008160:	9105      	str	r1, [sp, #20]
 8008162:	9204      	str	r2, [sp, #16]
 8008164:	f7ff fd94 	bl	8007c90 <__hexdig_fun>
 8008168:	2800      	cmp	r0, #0
 800816a:	d151      	bne.n	8008210 <__hexnan+0xe8>
 800816c:	9a04      	ldr	r2, [sp, #16]
 800816e:	9905      	ldr	r1, [sp, #20]
 8008170:	2a20      	cmp	r2, #32
 8008172:	d818      	bhi.n	80081a6 <__hexnan+0x7e>
 8008174:	9b02      	ldr	r3, [sp, #8]
 8008176:	459b      	cmp	fp, r3
 8008178:	dd13      	ble.n	80081a2 <__hexnan+0x7a>
 800817a:	454c      	cmp	r4, r9
 800817c:	d206      	bcs.n	800818c <__hexnan+0x64>
 800817e:	2d07      	cmp	r5, #7
 8008180:	dc04      	bgt.n	800818c <__hexnan+0x64>
 8008182:	462a      	mov	r2, r5
 8008184:	4649      	mov	r1, r9
 8008186:	4620      	mov	r0, r4
 8008188:	f7ff ffa8 	bl	80080dc <L_shift>
 800818c:	4544      	cmp	r4, r8
 800818e:	d952      	bls.n	8008236 <__hexnan+0x10e>
 8008190:	2300      	movs	r3, #0
 8008192:	f1a4 0904 	sub.w	r9, r4, #4
 8008196:	f844 3c04 	str.w	r3, [r4, #-4]
 800819a:	f8cd b008 	str.w	fp, [sp, #8]
 800819e:	464c      	mov	r4, r9
 80081a0:	461d      	mov	r5, r3
 80081a2:	9903      	ldr	r1, [sp, #12]
 80081a4:	e7d7      	b.n	8008156 <__hexnan+0x2e>
 80081a6:	2a29      	cmp	r2, #41	@ 0x29
 80081a8:	d157      	bne.n	800825a <__hexnan+0x132>
 80081aa:	3102      	adds	r1, #2
 80081ac:	f8ca 1000 	str.w	r1, [sl]
 80081b0:	f1bb 0f00 	cmp.w	fp, #0
 80081b4:	d051      	beq.n	800825a <__hexnan+0x132>
 80081b6:	454c      	cmp	r4, r9
 80081b8:	d206      	bcs.n	80081c8 <__hexnan+0xa0>
 80081ba:	2d07      	cmp	r5, #7
 80081bc:	dc04      	bgt.n	80081c8 <__hexnan+0xa0>
 80081be:	462a      	mov	r2, r5
 80081c0:	4649      	mov	r1, r9
 80081c2:	4620      	mov	r0, r4
 80081c4:	f7ff ff8a 	bl	80080dc <L_shift>
 80081c8:	4544      	cmp	r4, r8
 80081ca:	d936      	bls.n	800823a <__hexnan+0x112>
 80081cc:	f1a8 0204 	sub.w	r2, r8, #4
 80081d0:	4623      	mov	r3, r4
 80081d2:	f853 1b04 	ldr.w	r1, [r3], #4
 80081d6:	f842 1f04 	str.w	r1, [r2, #4]!
 80081da:	429f      	cmp	r7, r3
 80081dc:	d2f9      	bcs.n	80081d2 <__hexnan+0xaa>
 80081de:	1b3b      	subs	r3, r7, r4
 80081e0:	f023 0303 	bic.w	r3, r3, #3
 80081e4:	3304      	adds	r3, #4
 80081e6:	3401      	adds	r4, #1
 80081e8:	3e03      	subs	r6, #3
 80081ea:	42b4      	cmp	r4, r6
 80081ec:	bf88      	it	hi
 80081ee:	2304      	movhi	r3, #4
 80081f0:	4443      	add	r3, r8
 80081f2:	2200      	movs	r2, #0
 80081f4:	f843 2b04 	str.w	r2, [r3], #4
 80081f8:	429f      	cmp	r7, r3
 80081fa:	d2fb      	bcs.n	80081f4 <__hexnan+0xcc>
 80081fc:	683b      	ldr	r3, [r7, #0]
 80081fe:	b91b      	cbnz	r3, 8008208 <__hexnan+0xe0>
 8008200:	4547      	cmp	r7, r8
 8008202:	d128      	bne.n	8008256 <__hexnan+0x12e>
 8008204:	2301      	movs	r3, #1
 8008206:	603b      	str	r3, [r7, #0]
 8008208:	2005      	movs	r0, #5
 800820a:	b007      	add	sp, #28
 800820c:	e8bd 8ff0 	ldmia.w	sp!, {r4, r5, r6, r7, r8, r9, sl, fp, pc}
 8008210:	3501      	adds	r5, #1
 8008212:	2d08      	cmp	r5, #8
 8008214:	f10b 0b01 	add.w	fp, fp, #1
 8008218:	dd06      	ble.n	8008228 <__hexnan+0x100>
 800821a:	4544      	cmp	r4, r8
 800821c:	d9c1      	bls.n	80081a2 <__hexnan+0x7a>
 800821e:	2300      	movs	r3, #0
 8008220:	f844 3c04 	str.w	r3, [r4, #-4]
 8008224:	2501      	movs	r5, #1
 8008226:	3c04      	subs	r4, #4
 8008228:	6822      	ldr	r2, [r4, #0]
 800822a:	f000 000f 	and.w	r0, r0, #15
 800822e:	ea40 1002 	orr.w	r0, r0, r2, lsl #4
 8008232:	6020      	str	r0, [r4, #0]
 8008234:	e7b5      	b.n	80081a2 <__hexnan+0x7a>
 8008236:	2508      	movs	r5, #8
 8008238:	e7b3      	b.n	80081a2 <__hexnan+0x7a>
 800823a:	9b01      	ldr	r3, [sp, #4]
 800823c:	2b00      	cmp	r3, #0
 800823e:	d0dd      	beq.n	80081fc <__hexnan+0xd4>
 8008240:	f1c3 0320 	rsb	r3, r3, #32
 8008244:	f04f 32ff 	mov.w	r2, #4294967295
 8008248:	40da      	lsrs	r2, r3
 800824a:	f856 3c04 	ldr.w	r3, [r6, #-4]
 800824e:	4013      	ands	r3, r2
 8008250:	f846 3c04 	str.w	r3, [r6, #-4]
 8008254:	e7d2      	b.n	80081fc <__hexnan+0xd4>
 8008256:	3f04      	subs	r7, #4
 8008258:	e7d0      	b.n	80081fc <__hexnan+0xd4>
 800825a:	2004      	movs	r0, #4
 800825c:	e7d5      	b.n	800820a <__hexnan+0xe2>

0800825e <__ascii_mbtowc>:
 800825e:	b082      	sub	sp, #8
 8008260:	b901      	cbnz	r1, 8008264 <__ascii_mbtowc+0x6>
 8008262:	a901      	add	r1, sp, #4
 8008264:	b142      	cbz	r2, 8008278 <__ascii_mbtowc+0x1a>
 8008266:	b14b      	cbz	r3, 800827c <__ascii_mbtowc+0x1e>
 8008268:	7813      	ldrb	r3, [r2, #0]
 800826a:	600b      	str	r3, [r1, #0]
 800826c:	7812      	ldrb	r2, [r2, #0]
 800826e:	1e10      	subs	r0, r2, #0
 8008270:	bf18      	it	ne
 8008272:	2001      	movne	r0, #1
 8008274:	b002      	add	sp, #8
 8008276:	4770      	bx	lr
 8008278:	4610      	mov	r0, r2
 800827a:	e7fb      	b.n	8008274 <__ascii_mbtowc+0x16>
 800827c:	f06f 0001 	mvn.w	r0, #1
 8008280:	e7f8      	b.n	8008274 <__ascii_mbtowc+0x16>

08008282 <_realloc_r>:
 8008282:	e92d 41f0 	stmdb	sp!, {r4, r5, r6, r7, r8, lr}
 8008286:	4607      	mov	r7, r0
 8008288:	4614      	mov	r4, r2
 800828a:	460d      	mov	r5, r1
 800828c:	b921      	cbnz	r1, 8008298 <_realloc_r+0x16>
 800828e:	e8bd 41f0 	ldmia.w	sp!, {r4, r5, r6, r7, r8, lr}
 8008292:	4611      	mov	r1, r2
 8008294:	f7fd be74 	b.w	8005f80 <_malloc_r>
 8008298:	b92a      	cbnz	r2, 80082a6 <_realloc_r+0x24>
 800829a:	f7fd fdfd 	bl	8005e98 <_free_r>
 800829e:	4625      	mov	r5, r4
 80082a0:	4628      	mov	r0, r5
 80082a2:	e8bd 81f0 	ldmia.w	sp!, {r4, r5, r6, r7, r8, pc}
 80082a6:	f000 f840 	bl	800832a <_malloc_usable_size_r>
 80082aa:	4284      	cmp	r4, r0
 80082ac:	4606      	mov	r6, r0
 80082ae:	d802      	bhi.n	80082b6 <_realloc_r+0x34>
 80082b0:	ebb4 0f50 	cmp.w	r4, r0, lsr #1
 80082b4:	d8f4      	bhi.n	80082a0 <_realloc_r+0x1e>
 80082b6:	4621      	mov	r1, r4
 80082b8:	4638      	mov	r0, r7
 80082ba:	f7fd fe61 	bl	8005f80 <_malloc_r>
 80082be:	4680      	mov	r8, r0
 80082c0:	b908      	cbnz	r0, 80082c6 <_realloc_r+0x44>
 80082c2:	4645      	mov	r5, r8
 80082c4:	e7ec      	b.n	80082a0 <_realloc_r+0x1e>
 80082c6:	42b4      	cmp	r4, r6
 80082c8:	4622      	mov	r2, r4
 80082ca:	4629      	mov	r1, r5
 80082cc:	bf28      	it	cs
 80082ce:	4632      	movcs	r2, r6
 80082d0:	f7fc ff75 	bl	80051be <memcpy>
 80082d4:	4629      	mov	r1, r5
 80082d6:	4638      	mov	r0, r7
 80082d8:	f7fd fdde 	bl	8005e98 <_free_r>
 80082dc:	e7f1      	b.n	80082c2 <_realloc_r+0x40>

080082de <__ascii_wctomb>:
 80082de:	4603      	mov	r3, r0
 80082e0:	4608      	mov	r0, r1
 80082e2:	b141      	cbz	r1, 80082f6 <__ascii_wctomb+0x18>
 80082e4:	2aff      	cmp	r2, #255	@ 0xff
 80082e6:	d904      	bls.n	80082f2 <__ascii_wctomb+0x14>
 80082e8:	228a      	movs	r2, #138	@ 0x8a
 80082ea:	601a      	str	r2, [r3, #0]
 80082ec:	f04f 30ff 	mov.w	r0, #4294967295
 80082f0:	4770      	bx	lr
 80082f2:	700a      	strb	r2, [r1, #0]
 80082f4:	2001      	movs	r0, #1
 80082f6:	4770      	bx	lr

080082f8 <fiprintf>:
 80082f8:	b40e      	push	{r1, r2, r3}
 80082fa:	b503      	push	{r0, r1, lr}
 80082fc:	4601      	mov	r1, r0
 80082fe:	ab03      	add	r3, sp, #12
 8008300:	4805      	ldr	r0, [pc, #20]	@ (8008318 <fiprintf+0x20>)
 8008302:	f853 2b04 	ldr.w	r2, [r3], #4
 8008306:	6800      	ldr	r0, [r0, #0]
 8008308:	9301      	str	r3, [sp, #4]
 800830a:	f000 f83f 	bl	800838c <_vfiprintf_r>
 800830e:	b002      	add	sp, #8
 8008310:	f85d eb04 	ldr.w	lr, [sp], #4
 8008314:	b003      	add	sp, #12
 8008316:	4770      	bx	lr
 8008318:	2000001c 	.word	0x2000001c

0800831c <abort>:
 800831c:	b508      	push	{r3, lr}
 800831e:	2006      	movs	r0, #6
 8008320:	f000 fa08 	bl	8008734 <raise>
 8008324:	2001      	movs	r0, #1
 8008326:	f7f9 f8c7 	bl	80014b8 <_exit>

0800832a <_malloc_usable_size_r>:
 800832a:	f851 3c04 	ldr.w	r3, [r1, #-4]
 800832e:	1f18      	subs	r0, r3, #4
 8008330:	2b00      	cmp	r3, #0
 8008332:	bfbc      	itt	lt
 8008334:	580b      	ldrlt	r3, [r1, r0]
 8008336:	18c0      	addlt	r0, r0, r3
 8008338:	4770      	bx	lr

0800833a <__sfputc_r>:
 800833a:	6893      	ldr	r3, [r2, #8]
 800833c:	3b01      	subs	r3, #1
 800833e:	2b00      	cmp	r3, #0
 8008340:	b410      	push	{r4}
 8008342:	6093      	str	r3, [r2, #8]
 8008344:	da08      	bge.n	8008358 <__sfputc_r+0x1e>
 8008346:	6994      	ldr	r4, [r2, #24]
 8008348:	42a3      	cmp	r3, r4
 800834a:	db01      	blt.n	8008350 <__sfputc_r+0x16>
 800834c:	290a      	cmp	r1, #10
 800834e:	d103      	bne.n	8008358 <__sfputc_r+0x1e>
 8008350:	f85d 4b04 	ldr.w	r4, [sp], #4
 8008354:	f000 b932 	b.w	80085bc <__swbuf_r>
 8008358:	6813      	ldr	r3, [r2, #0]
 800835a:	1c58      	adds	r0, r3, #1
 800835c:	6010      	str	r0, [r2, #0]
 800835e:	7019      	strb	r1, [r3, #0]
 8008360:	4608      	mov	r0, r1
 8008362:	f85d 4b04 	ldr.w	r4, [sp], #4
 8008366:	4770      	bx	lr

08008368 <__sfputs_r>:
 8008368:	b5f8      	push	{r3, r4, r5, r6, r7, lr}
 800836a:	4606      	mov	r6, r0
 800836c:	460f      	mov	r7, r1
 800836e:	4614      	mov	r4, r2
 8008370:	18d5      	adds	r5, r2, r3
 8008372:	42ac      	cmp	r4, r5
 8008374:	d101      	bne.n	800837a <__sfputs_r+0x12>
 8008376:	2000      	movs	r0, #0
 8008378:	e007      	b.n	800838a <__sfputs_r+0x22>
 800837a:	f814 1b01 	ldrb.w	r1, [r4], #1
 800837e:	463a      	mov	r2, r7
 8008380:	4630      	mov	r0, r6
 8008382:	f7ff ffda 	bl	800833a <__sfputc_r>
 8008386:	1c43      	adds	r3, r0, #1
 8008388:	d1f3      	bne.n	8008372 <__sfputs_r+0xa>
 800838a:	bdf8      	pop	{r3, r4, r5, r6, r7, pc}

0800838c <_vfiprintf_r>:
 800838c:	e92d 4ff0 	stmdb	sp!, {r4, r5, r6, r7, r8, r9, sl, fp, lr}
 8008390:	460d      	mov	r5, r1
 8008392:	b09d      	sub	sp, #116	@ 0x74
 8008394:	4614      	mov	r4, r2
 8008396:	4698      	mov	r8, r3
 8008398:	4606      	mov	r6, r0
 800839a:	b118      	cbz	r0, 80083a4 <_vfiprintf_r+0x18>
 800839c:	6a03      	ldr	r3, [r0, #32]
 800839e:	b90b      	cbnz	r3, 80083a4 <_vfiprintf_r+0x18>
 80083a0:	f7fc fd94 	bl	8004ecc <__sinit>
 80083a4:	6e6b      	ldr	r3, [r5, #100]	@ 0x64
 80083a6:	07d9      	lsls	r1, r3, #31
 80083a8:	d405      	bmi.n	80083b6 <_vfiprintf_r+0x2a>
 80083aa:	89ab      	ldrh	r3, [r5, #12]
 80083ac:	059a      	lsls	r2, r3, #22
 80083ae:	d402      	bmi.n	80083b6 <_vfiprintf_r+0x2a>
 80083b0:	6da8      	ldr	r0, [r5, #88]	@ 0x58
 80083b2:	f7fc ff02 	bl	80051ba <__retarget_lock_acquire_recursive>
 80083b6:	89ab      	ldrh	r3, [r5, #12]
 80083b8:	071b      	lsls	r3, r3, #28
 80083ba:	d501      	bpl.n	80083c0 <_vfiprintf_r+0x34>
 80083bc:	692b      	ldr	r3, [r5, #16]
 80083be:	b99b      	cbnz	r3, 80083e8 <_vfiprintf_r+0x5c>
 80083c0:	4629      	mov	r1, r5
 80083c2:	4630      	mov	r0, r6
 80083c4:	f000 f938 	bl	8008638 <__swsetup_r>
 80083c8:	b170      	cbz	r0, 80083e8 <_vfiprintf_r+0x5c>
 80083ca:	6e6b      	ldr	r3, [r5, #100]	@ 0x64
 80083cc:	07dc      	lsls	r4, r3, #31
 80083ce:	d504      	bpl.n	80083da <_vfiprintf_r+0x4e>
 80083d0:	f04f 30ff 	mov.w	r0, #4294967295
 80083d4:	b01d      	add	sp, #116	@ 0x74
 80083d6:	e8bd 8ff0 	ldmia.w	sp!, {r4, r5, r6, r7, r8, r9, sl, fp, pc}
 80083da:	89ab      	ldrh	r3, [r5, #12]
 80083dc:	0598      	lsls	r0, r3, #22
 80083de:	d4f7      	bmi.n	80083d0 <_vfiprintf_r+0x44>
 80083e0:	6da8      	ldr	r0, [r5, #88]	@ 0x58
 80083e2:	f7fc feeb 	bl	80051bc <__retarget_lock_release_recursive>
 80083e6:	e7f3      	b.n	80083d0 <_vfiprintf_r+0x44>
 80083e8:	2300      	movs	r3, #0
 80083ea:	9309      	str	r3, [sp, #36]	@ 0x24
 80083ec:	2320      	movs	r3, #32
 80083ee:	f88d 3029 	strb.w	r3, [sp, #41]	@ 0x29
 80083f2:	f8cd 800c 	str.w	r8, [sp, #12]
 80083f6:	2330      	movs	r3, #48	@ 0x30
 80083f8:	f8df 81ac 	ldr.w	r8, [pc, #428]	@ 80085a8 <_vfiprintf_r+0x21c>
 80083fc:	f88d 302a 	strb.w	r3, [sp, #42]	@ 0x2a
 8008400:	f04f 0901 	mov.w	r9, #1
 8008404:	4623      	mov	r3, r4
 8008406:	469a      	mov	sl, r3
 8008408:	f813 2b01 	ldrb.w	r2, [r3], #1
 800840c:	b10a      	cbz	r2, 8008412 <_vfiprintf_r+0x86>
 800840e:	2a25      	cmp	r2, #37	@ 0x25
 8008410:	d1f9      	bne.n	8008406 <_vfiprintf_r+0x7a>
 8008412:	ebba 0b04 	subs.w	fp, sl, r4
 8008416:	d00b      	beq.n	8008430 <_vfiprintf_r+0xa4>
 8008418:	465b      	mov	r3, fp
 800841a:	4622      	mov	r2, r4
 800841c:	4629      	mov	r1, r5
 800841e:	4630      	mov	r0, r6
 8008420:	f7ff ffa2 	bl	8008368 <__sfputs_r>
 8008424:	3001      	adds	r0, #1
 8008426:	f000 80a7 	beq.w	8008578 <_vfiprintf_r+0x1ec>
 800842a:	9a09      	ldr	r2, [sp, #36]	@ 0x24
 800842c:	445a      	add	r2, fp
 800842e:	9209      	str	r2, [sp, #36]	@ 0x24
 8008430:	f89a 3000 	ldrb.w	r3, [sl]
 8008434:	2b00      	cmp	r3, #0
 8008436:	f000 809f 	beq.w	8008578 <_vfiprintf_r+0x1ec>
 800843a:	2300      	movs	r3, #0
 800843c:	f04f 32ff 	mov.w	r2, #4294967295
 8008440:	e9cd 2305 	strd	r2, r3, [sp, #20]
 8008444:	f10a 0a01 	add.w	sl, sl, #1
 8008448:	9304      	str	r3, [sp, #16]
 800844a:	9307      	str	r3, [sp, #28]
 800844c:	f88d 3053 	strb.w	r3, [sp, #83]	@ 0x53
 8008450:	931a      	str	r3, [sp, #104]	@ 0x68
 8008452:	4654      	mov	r4, sl
 8008454:	2205      	movs	r2, #5
 8008456:	f814 1b01 	ldrb.w	r1, [r4], #1
 800845a:	4853      	ldr	r0, [pc, #332]	@ (80085a8 <_vfiprintf_r+0x21c>)
 800845c:	f7f7 fec0 	bl	80001e0 <memchr>
 8008460:	9a04      	ldr	r2, [sp, #16]
 8008462:	b9d8      	cbnz	r0, 800849c <_vfiprintf_r+0x110>
 8008464:	06d1      	lsls	r1, r2, #27
 8008466:	bf44      	itt	mi
 8008468:	2320      	movmi	r3, #32
 800846a:	f88d 3053 	strbmi.w	r3, [sp, #83]	@ 0x53
 800846e:	0713      	lsls	r3, r2, #28
 8008470:	bf44      	itt	mi
 8008472:	232b      	movmi	r3, #43	@ 0x2b
 8008474:	f88d 3053 	strbmi.w	r3, [sp, #83]	@ 0x53
 8008478:	f89a 3000 	ldrb.w	r3, [sl]
 800847c:	2b2a      	cmp	r3, #42	@ 0x2a
 800847e:	d015      	beq.n	80084ac <_vfiprintf_r+0x120>
 8008480:	9a07      	ldr	r2, [sp, #28]
 8008482:	4654      	mov	r4, sl
 8008484:	2000      	movs	r0, #0
 8008486:	f04f 0c0a 	mov.w	ip, #10
 800848a:	4621      	mov	r1, r4
 800848c:	f811 3b01 	ldrb.w	r3, [r1], #1
 8008490:	3b30      	subs	r3, #48	@ 0x30
 8008492:	2b09      	cmp	r3, #9
 8008494:	d94b      	bls.n	800852e <_vfiprintf_r+0x1a2>
 8008496:	b1b0      	cbz	r0, 80084c6 <_vfiprintf_r+0x13a>
 8008498:	9207      	str	r2, [sp, #28]
 800849a:	e014      	b.n	80084c6 <_vfiprintf_r+0x13a>
 800849c:	eba0 0308 	sub.w	r3, r0, r8
 80084a0:	fa09 f303 	lsl.w	r3, r9, r3
 80084a4:	4313      	orrs	r3, r2
 80084a6:	9304      	str	r3, [sp, #16]
 80084a8:	46a2      	mov	sl, r4
 80084aa:	e7d2      	b.n	8008452 <_vfiprintf_r+0xc6>
 80084ac:	9b03      	ldr	r3, [sp, #12]
 80084ae:	1d19      	adds	r1, r3, #4
 80084b0:	681b      	ldr	r3, [r3, #0]
 80084b2:	9103      	str	r1, [sp, #12]
 80084b4:	2b00      	cmp	r3, #0
 80084b6:	bfbb      	ittet	lt
 80084b8:	425b      	neglt	r3, r3
 80084ba:	f042 0202 	orrlt.w	r2, r2, #2
 80084be:	9307      	strge	r3, [sp, #28]
 80084c0:	9307      	strlt	r3, [sp, #28]
 80084c2:	bfb8      	it	lt
 80084c4:	9204      	strlt	r2, [sp, #16]
 80084c6:	7823      	ldrb	r3, [r4, #0]
 80084c8:	2b2e      	cmp	r3, #46	@ 0x2e
 80084ca:	d10a      	bne.n	80084e2 <_vfiprintf_r+0x156>
 80084cc:	7863      	ldrb	r3, [r4, #1]
 80084ce:	2b2a      	cmp	r3, #42	@ 0x2a
 80084d0:	d132      	bne.n	8008538 <_vfiprintf_r+0x1ac>
 80084d2:	9b03      	ldr	r3, [sp, #12]
 80084d4:	1d1a      	adds	r2, r3, #4
 80084d6:	681b      	ldr	r3, [r3, #0]
 80084d8:	9203      	str	r2, [sp, #12]
 80084da:	ea43 73e3 	orr.w	r3, r3, r3, asr #31
 80084de:	3402      	adds	r4, #2
 80084e0:	9305      	str	r3, [sp, #20]
 80084e2:	f8df a0d4 	ldr.w	sl, [pc, #212]	@ 80085b8 <_vfiprintf_r+0x22c>
 80084e6:	7821      	ldrb	r1, [r4, #0]
 80084e8:	2203      	movs	r2, #3
 80084ea:	4650      	mov	r0, sl
 80084ec:	f7f7 fe78 	bl	80001e0 <memchr>
 80084f0:	b138      	cbz	r0, 8008502 <_vfiprintf_r+0x176>
 80084f2:	9b04      	ldr	r3, [sp, #16]
 80084f4:	eba0 000a 	sub.w	r0, r0, sl
 80084f8:	2240      	movs	r2, #64	@ 0x40
 80084fa:	4082      	lsls	r2, r0
 80084fc:	4313      	orrs	r3, r2
 80084fe:	3401      	adds	r4, #1
 8008500:	9304      	str	r3, [sp, #16]
 8008502:	f814 1b01 	ldrb.w	r1, [r4], #1
 8008506:	4829      	ldr	r0, [pc, #164]	@ (80085ac <_vfiprintf_r+0x220>)
 8008508:	f88d 1028 	strb.w	r1, [sp, #40]	@ 0x28
 800850c:	2206      	movs	r2, #6
 800850e:	f7f7 fe67 	bl	80001e0 <memchr>
 8008512:	2800      	cmp	r0, #0
 8008514:	d03f      	beq.n	8008596 <_vfiprintf_r+0x20a>
 8008516:	4b26      	ldr	r3, [pc, #152]	@ (80085b0 <_vfiprintf_r+0x224>)
 8008518:	bb1b      	cbnz	r3, 8008562 <_vfiprintf_r+0x1d6>
 800851a:	9b03      	ldr	r3, [sp, #12]
 800851c:	3307      	adds	r3, #7
 800851e:	f023 0307 	bic.w	r3, r3, #7
 8008522:	3308      	adds	r3, #8
 8008524:	9303      	str	r3, [sp, #12]
 8008526:	9b09      	ldr	r3, [sp, #36]	@ 0x24
 8008528:	443b      	add	r3, r7
 800852a:	9309      	str	r3, [sp, #36]	@ 0x24
 800852c:	e76a      	b.n	8008404 <_vfiprintf_r+0x78>
 800852e:	fb0c 3202 	mla	r2, ip, r2, r3
 8008532:	460c      	mov	r4, r1
 8008534:	2001      	movs	r0, #1
 8008536:	e7a8      	b.n	800848a <_vfiprintf_r+0xfe>
 8008538:	2300      	movs	r3, #0
 800853a:	3401      	adds	r4, #1
 800853c:	9305      	str	r3, [sp, #20]
 800853e:	4619      	mov	r1, r3
 8008540:	f04f 0c0a 	mov.w	ip, #10
 8008544:	4620      	mov	r0, r4
 8008546:	f810 2b01 	ldrb.w	r2, [r0], #1
 800854a:	3a30      	subs	r2, #48	@ 0x30
 800854c:	2a09      	cmp	r2, #9
 800854e:	d903      	bls.n	8008558 <_vfiprintf_r+0x1cc>
 8008550:	2b00      	cmp	r3, #0
 8008552:	d0c6      	beq.n	80084e2 <_vfiprintf_r+0x156>
 8008554:	9105      	str	r1, [sp, #20]
 8008556:	e7c4      	b.n	80084e2 <_vfiprintf_r+0x156>
 8008558:	fb0c 2101 	mla	r1, ip, r1, r2
 800855c:	4604      	mov	r4, r0
 800855e:	2301      	movs	r3, #1
 8008560:	e7f0      	b.n	8008544 <_vfiprintf_r+0x1b8>
 8008562:	ab03      	add	r3, sp, #12
 8008564:	9300      	str	r3, [sp, #0]
 8008566:	462a      	mov	r2, r5
 8008568:	4b12      	ldr	r3, [pc, #72]	@ (80085b4 <_vfiprintf_r+0x228>)
 800856a:	a904      	add	r1, sp, #16
 800856c:	4630      	mov	r0, r6
 800856e:	f7fb fe5d 	bl	800422c <_printf_float>
 8008572:	4607      	mov	r7, r0
 8008574:	1c78      	adds	r0, r7, #1
 8008576:	d1d6      	bne.n	8008526 <_vfiprintf_r+0x19a>
 8008578:	6e6b      	ldr	r3, [r5, #100]	@ 0x64
 800857a:	07d9      	lsls	r1, r3, #31
 800857c:	d405      	bmi.n	800858a <_vfiprintf_r+0x1fe>
 800857e:	89ab      	ldrh	r3, [r5, #12]
 8008580:	059a      	lsls	r2, r3, #22
 8008582:	d402      	bmi.n	800858a <_vfiprintf_r+0x1fe>
 8008584:	6da8      	ldr	r0, [r5, #88]	@ 0x58
 8008586:	f7fc fe19 	bl	80051bc <__retarget_lock_release_recursive>
 800858a:	89ab      	ldrh	r3, [r5, #12]
 800858c:	065b      	lsls	r3, r3, #25
 800858e:	f53f af1f 	bmi.w	80083d0 <_vfiprintf_r+0x44>
 8008592:	9809      	ldr	r0, [sp, #36]	@ 0x24
 8008594:	e71e      	b.n	80083d4 <_vfiprintf_r+0x48>
 8008596:	ab03      	add	r3, sp, #12
 8008598:	9300      	str	r3, [sp, #0]
 800859a:	462a      	mov	r2, r5
 800859c:	4b05      	ldr	r3, [pc, #20]	@ (80085b4 <_vfiprintf_r+0x228>)
 800859e:	a904      	add	r1, sp, #16
 80085a0:	4630      	mov	r0, r6
 80085a2:	f7fc f8db 	bl	800475c <_printf_i>
 80085a6:	e7e4      	b.n	8008572 <_vfiprintf_r+0x1e6>
 80085a8:	080089e5 	.word	0x080089e5
 80085ac:	080089ef 	.word	0x080089ef
 80085b0:	0800422d 	.word	0x0800422d
 80085b4:	08008369 	.word	0x08008369
 80085b8:	080089eb 	.word	0x080089eb

080085bc <__swbuf_r>:
 80085bc:	b5f8      	push	{r3, r4, r5, r6, r7, lr}
 80085be:	460e      	mov	r6, r1
 80085c0:	4614      	mov	r4, r2
 80085c2:	4605      	mov	r5, r0
 80085c4:	b118      	cbz	r0, 80085ce <__swbuf_r+0x12>
 80085c6:	6a03      	ldr	r3, [r0, #32]
 80085c8:	b90b      	cbnz	r3, 80085ce <__swbuf_r+0x12>
 80085ca:	f7fc fc7f 	bl	8004ecc <__sinit>
 80085ce:	69a3      	ldr	r3, [r4, #24]
 80085d0:	60a3      	str	r3, [r4, #8]
 80085d2:	89a3      	ldrh	r3, [r4, #12]
 80085d4:	071a      	lsls	r2, r3, #28
 80085d6:	d501      	bpl.n	80085dc <__swbuf_r+0x20>
 80085d8:	6923      	ldr	r3, [r4, #16]
 80085da:	b943      	cbnz	r3, 80085ee <__swbuf_r+0x32>
 80085dc:	4621      	mov	r1, r4
 80085de:	4628      	mov	r0, r5
 80085e0:	f000 f82a 	bl	8008638 <__swsetup_r>
 80085e4:	b118      	cbz	r0, 80085ee <__swbuf_r+0x32>
 80085e6:	f04f 37ff 	mov.w	r7, #4294967295
 80085ea:	4638      	mov	r0, r7
 80085ec:	bdf8      	pop	{r3, r4, r5, r6, r7, pc}
 80085ee:	6823      	ldr	r3, [r4, #0]
 80085f0:	6922      	ldr	r2, [r4, #16]
 80085f2:	1a98      	subs	r0, r3, r2
 80085f4:	6963      	ldr	r3, [r4, #20]
 80085f6:	b2f6      	uxtb	r6, r6
 80085f8:	4283      	cmp	r3, r0
 80085fa:	4637      	mov	r7, r6
 80085fc:	dc05      	bgt.n	800860a <__swbuf_r+0x4e>
 80085fe:	4621      	mov	r1, r4
 8008600:	4628      	mov	r0, r5
 8008602:	f7ff fa53 	bl	8007aac <_fflush_r>
 8008606:	2800      	cmp	r0, #0
 8008608:	d1ed      	bne.n	80085e6 <__swbuf_r+0x2a>
 800860a:	68a3      	ldr	r3, [r4, #8]
 800860c:	3b01      	subs	r3, #1
 800860e:	60a3      	str	r3, [r4, #8]
 8008610:	6823      	ldr	r3, [r4, #0]
 8008612:	1c5a      	adds	r2, r3, #1
 8008614:	6022      	str	r2, [r4, #0]
 8008616:	701e      	strb	r6, [r3, #0]
 8008618:	6962      	ldr	r2, [r4, #20]
 800861a:	1c43      	adds	r3, r0, #1
 800861c:	429a      	cmp	r2, r3
 800861e:	d004      	beq.n	800862a <__swbuf_r+0x6e>
 8008620:	89a3      	ldrh	r3, [r4, #12]
 8008622:	07db      	lsls	r3, r3, #31
 8008624:	d5e1      	bpl.n	80085ea <__swbuf_r+0x2e>
 8008626:	2e0a      	cmp	r6, #10
 8008628:	d1df      	bne.n	80085ea <__swbuf_r+0x2e>
 800862a:	4621      	mov	r1, r4
 800862c:	4628      	mov	r0, r5
 800862e:	f7ff fa3d 	bl	8007aac <_fflush_r>
 8008632:	2800      	cmp	r0, #0
 8008634:	d0d9      	beq.n	80085ea <__swbuf_r+0x2e>
 8008636:	e7d6      	b.n	80085e6 <__swbuf_r+0x2a>

08008638 <__swsetup_r>:
 8008638:	b538      	push	{r3, r4, r5, lr}
 800863a:	4b29      	ldr	r3, [pc, #164]	@ (80086e0 <__swsetup_r+0xa8>)
 800863c:	4605      	mov	r5, r0
 800863e:	6818      	ldr	r0, [r3, #0]
 8008640:	460c      	mov	r4, r1
 8008642:	b118      	cbz	r0, 800864c <__swsetup_r+0x14>
 8008644:	6a03      	ldr	r3, [r0, #32]
 8008646:	b90b      	cbnz	r3, 800864c <__swsetup_r+0x14>
 8008648:	f7fc fc40 	bl	8004ecc <__sinit>
 800864c:	f9b4 300c 	ldrsh.w	r3, [r4, #12]
 8008650:	0719      	lsls	r1, r3, #28
 8008652:	d422      	bmi.n	800869a <__swsetup_r+0x62>
 8008654:	06da      	lsls	r2, r3, #27
 8008656:	d407      	bmi.n	8008668 <__swsetup_r+0x30>
 8008658:	2209      	movs	r2, #9
 800865a:	602a      	str	r2, [r5, #0]
 800865c:	f043 0340 	orr.w	r3, r3, #64	@ 0x40
 8008660:	81a3      	strh	r3, [r4, #12]
 8008662:	f04f 30ff 	mov.w	r0, #4294967295
 8008666:	e033      	b.n	80086d0 <__swsetup_r+0x98>
 8008668:	0758      	lsls	r0, r3, #29
 800866a:	d512      	bpl.n	8008692 <__swsetup_r+0x5a>
 800866c:	6b61      	ldr	r1, [r4, #52]	@ 0x34
 800866e:	b141      	cbz	r1, 8008682 <__swsetup_r+0x4a>
 8008670:	f104 0344 	add.w	r3, r4, #68	@ 0x44
 8008674:	4299      	cmp	r1, r3
 8008676:	d002      	beq.n	800867e <__swsetup_r+0x46>
 8008678:	4628      	mov	r0, r5
 800867a:	f7fd fc0d 	bl	8005e98 <_free_r>
 800867e:	2300      	movs	r3, #0
 8008680:	6363      	str	r3, [r4, #52]	@ 0x34
 8008682:	89a3      	ldrh	r3, [r4, #12]
 8008684:	f023 0324 	bic.w	r3, r3, #36	@ 0x24
 8008688:	81a3      	strh	r3, [r4, #12]
 800868a:	2300      	movs	r3, #0
 800868c:	6063      	str	r3, [r4, #4]
 800868e:	6923      	ldr	r3, [r4, #16]
 8008690:	6023      	str	r3, [r4, #0]
 8008692:	89a3      	ldrh	r3, [r4, #12]
 8008694:	f043 0308 	orr.w	r3, r3, #8
 8008698:	81a3      	strh	r3, [r4, #12]
 800869a:	6923      	ldr	r3, [r4, #16]
 800869c:	b94b      	cbnz	r3, 80086b2 <__swsetup_r+0x7a>
 800869e:	89a3      	ldrh	r3, [r4, #12]
 80086a0:	f403 7320 	and.w	r3, r3, #640	@ 0x280
 80086a4:	f5b3 7f00 	cmp.w	r3, #512	@ 0x200
 80086a8:	d003      	beq.n	80086b2 <__swsetup_r+0x7a>
 80086aa:	4621      	mov	r1, r4
 80086ac:	4628      	mov	r0, r5
 80086ae:	f000 f883 	bl	80087b8 <__smakebuf_r>
 80086b2:	f9b4 300c 	ldrsh.w	r3, [r4, #12]
 80086b6:	f013 0201 	ands.w	r2, r3, #1
 80086ba:	d00a      	beq.n	80086d2 <__swsetup_r+0x9a>
 80086bc:	2200      	movs	r2, #0
 80086be:	60a2      	str	r2, [r4, #8]
 80086c0:	6962      	ldr	r2, [r4, #20]
 80086c2:	4252      	negs	r2, r2
 80086c4:	61a2      	str	r2, [r4, #24]
 80086c6:	6922      	ldr	r2, [r4, #16]
 80086c8:	b942      	cbnz	r2, 80086dc <__swsetup_r+0xa4>
 80086ca:	f013 0080 	ands.w	r0, r3, #128	@ 0x80
 80086ce:	d1c5      	bne.n	800865c <__swsetup_r+0x24>
 80086d0:	bd38      	pop	{r3, r4, r5, pc}
 80086d2:	0799      	lsls	r1, r3, #30
 80086d4:	bf58      	it	pl
 80086d6:	6962      	ldrpl	r2, [r4, #20]
 80086d8:	60a2      	str	r2, [r4, #8]
 80086da:	e7f4      	b.n	80086c6 <__swsetup_r+0x8e>
 80086dc:	2000      	movs	r0, #0
 80086de:	e7f7      	b.n	80086d0 <__swsetup_r+0x98>
 80086e0:	2000001c 	.word	0x2000001c

080086e4 <_raise_r>:
 80086e4:	291f      	cmp	r1, #31
 80086e6:	b538      	push	{r3, r4, r5, lr}
 80086e8:	4605      	mov	r5, r0
 80086ea:	460c      	mov	r4, r1
 80086ec:	d904      	bls.n	80086f8 <_raise_r+0x14>
 80086ee:	2316      	movs	r3, #22
 80086f0:	6003      	str	r3, [r0, #0]
 80086f2:	f04f 30ff 	mov.w	r0, #4294967295
 80086f6:	bd38      	pop	{r3, r4, r5, pc}
 80086f8:	6bc2      	ldr	r2, [r0, #60]	@ 0x3c
 80086fa:	b112      	cbz	r2, 8008702 <_raise_r+0x1e>
 80086fc:	f852 3021 	ldr.w	r3, [r2, r1, lsl #2]
 8008700:	b94b      	cbnz	r3, 8008716 <_raise_r+0x32>
 8008702:	4628      	mov	r0, r5
 8008704:	f000 f830 	bl	8008768 <_getpid_r>
 8008708:	4622      	mov	r2, r4
 800870a:	4601      	mov	r1, r0
 800870c:	4628      	mov	r0, r5
 800870e:	e8bd 4038 	ldmia.w	sp!, {r3, r4, r5, lr}
 8008712:	f000 b817 	b.w	8008744 <_kill_r>
 8008716:	2b01      	cmp	r3, #1
 8008718:	d00a      	beq.n	8008730 <_raise_r+0x4c>
 800871a:	1c59      	adds	r1, r3, #1
 800871c:	d103      	bne.n	8008726 <_raise_r+0x42>
 800871e:	2316      	movs	r3, #22
 8008720:	6003      	str	r3, [r0, #0]
 8008722:	2001      	movs	r0, #1
 8008724:	e7e7      	b.n	80086f6 <_raise_r+0x12>
 8008726:	2100      	movs	r1, #0
 8008728:	f842 1024 	str.w	r1, [r2, r4, lsl #2]
 800872c:	4620      	mov	r0, r4
 800872e:	4798      	blx	r3
 8008730:	2000      	movs	r0, #0
 8008732:	e7e0      	b.n	80086f6 <_raise_r+0x12>

08008734 <raise>:
 8008734:	4b02      	ldr	r3, [pc, #8]	@ (8008740 <raise+0xc>)
 8008736:	4601      	mov	r1, r0
 8008738:	6818      	ldr	r0, [r3, #0]
 800873a:	f7ff bfd3 	b.w	80086e4 <_raise_r>
 800873e:	bf00      	nop
 8008740:	2000001c 	.word	0x2000001c

08008744 <_kill_r>:
 8008744:	b538      	push	{r3, r4, r5, lr}
 8008746:	4d07      	ldr	r5, [pc, #28]	@ (8008764 <_kill_r+0x20>)
 8008748:	2300      	movs	r3, #0
 800874a:	4604      	mov	r4, r0
 800874c:	4608      	mov	r0, r1
 800874e:	4611      	mov	r1, r2
 8008750:	602b      	str	r3, [r5, #0]
 8008752:	f7f8 fea9 	bl	80014a8 <_kill>
 8008756:	1c43      	adds	r3, r0, #1
 8008758:	d102      	bne.n	8008760 <_kill_r+0x1c>
 800875a:	682b      	ldr	r3, [r5, #0]
 800875c:	b103      	cbz	r3, 8008760 <_kill_r+0x1c>
 800875e:	6023      	str	r3, [r4, #0]
 8008760:	bd38      	pop	{r3, r4, r5, pc}
 8008762:	bf00      	nop
 8008764:	20004df4 	.word	0x20004df4

08008768 <_getpid_r>:
 8008768:	f7f8 be9c 	b.w	80014a4 <_getpid>

0800876c <__swhatbuf_r>:
 800876c:	b570      	push	{r4, r5, r6, lr}
 800876e:	460c      	mov	r4, r1
 8008770:	f9b1 100e 	ldrsh.w	r1, [r1, #14]
 8008774:	2900      	cmp	r1, #0
 8008776:	b096      	sub	sp, #88	@ 0x58
 8008778:	4615      	mov	r5, r2
 800877a:	461e      	mov	r6, r3
 800877c:	da0d      	bge.n	800879a <__swhatbuf_r+0x2e>
 800877e:	89a3      	ldrh	r3, [r4, #12]
 8008780:	f013 0f80 	tst.w	r3, #128	@ 0x80
 8008784:	f04f 0100 	mov.w	r1, #0
 8008788:	bf14      	ite	ne
 800878a:	2340      	movne	r3, #64	@ 0x40
 800878c:	f44f 6380 	moveq.w	r3, #1024	@ 0x400
 8008790:	2000      	movs	r0, #0
 8008792:	6031      	str	r1, [r6, #0]
 8008794:	602b      	str	r3, [r5, #0]
 8008796:	b016      	add	sp, #88	@ 0x58
 8008798:	bd70      	pop	{r4, r5, r6, pc}
 800879a:	466a      	mov	r2, sp
 800879c:	f000 f848 	bl	8008830 <_fstat_r>
 80087a0:	2800      	cmp	r0, #0
 80087a2:	dbec      	blt.n	800877e <__swhatbuf_r+0x12>
 80087a4:	9901      	ldr	r1, [sp, #4]
 80087a6:	f401 4170 	and.w	r1, r1, #61440	@ 0xf000
 80087aa:	f5a1 5300 	sub.w	r3, r1, #8192	@ 0x2000
 80087ae:	4259      	negs	r1, r3
 80087b0:	4159      	adcs	r1, r3
 80087b2:	f44f 6380 	mov.w	r3, #1024	@ 0x400
 80087b6:	e7eb      	b.n	8008790 <__swhatbuf_r+0x24>

080087b8 <__smakebuf_r>:
 80087b8:	898b      	ldrh	r3, [r1, #12]
 80087ba:	b5f7      	push	{r0, r1, r2, r4, r5, r6, r7, lr}
 80087bc:	079d      	lsls	r5, r3, #30
 80087be:	4606      	mov	r6, r0
 80087c0:	460c      	mov	r4, r1
 80087c2:	d507      	bpl.n	80087d4 <__smakebuf_r+0x1c>
 80087c4:	f104 0347 	add.w	r3, r4, #71	@ 0x47
 80087c8:	6023      	str	r3, [r4, #0]
 80087ca:	6123      	str	r3, [r4, #16]
 80087cc:	2301      	movs	r3, #1
 80087ce:	6163      	str	r3, [r4, #20]
 80087d0:	b003      	add	sp, #12
 80087d2:	bdf0      	pop	{r4, r5, r6, r7, pc}
 80087d4:	ab01      	add	r3, sp, #4
 80087d6:	466a      	mov	r2, sp
 80087d8:	f7ff ffc8 	bl	800876c <__swhatbuf_r>
 80087dc:	9f00      	ldr	r7, [sp, #0]
 80087de:	4605      	mov	r5, r0
 80087e0:	4639      	mov	r1, r7
 80087e2:	4630      	mov	r0, r6
 80087e4:	f7fd fbcc 	bl	8005f80 <_malloc_r>
 80087e8:	b948      	cbnz	r0, 80087fe <__smakebuf_r+0x46>
 80087ea:	f9b4 300c 	ldrsh.w	r3, [r4, #12]
 80087ee:	059a      	lsls	r2, r3, #22
 80087f0:	d4ee      	bmi.n	80087d0 <__smakebuf_r+0x18>
 80087f2:	f023 0303 	bic.w	r3, r3, #3
 80087f6:	f043 0302 	orr.w	r3, r3, #2
 80087fa:	81a3      	strh	r3, [r4, #12]
 80087fc:	e7e2      	b.n	80087c4 <__smakebuf_r+0xc>
 80087fe:	89a3      	ldrh	r3, [r4, #12]
 8008800:	6020      	str	r0, [r4, #0]
 8008802:	f043 0380 	orr.w	r3, r3, #128	@ 0x80
 8008806:	81a3      	strh	r3, [r4, #12]
 8008808:	9b01      	ldr	r3, [sp, #4]
 800880a:	e9c4 0704 	strd	r0, r7, [r4, #16]
 800880e:	b15b      	cbz	r3, 8008828 <__smakebuf_r+0x70>
 8008810:	f9b4 100e 	ldrsh.w	r1, [r4, #14]
 8008814:	4630      	mov	r0, r6
 8008816:	f000 f81d 	bl	8008854 <_isatty_r>
 800881a:	b128      	cbz	r0, 8008828 <__smakebuf_r+0x70>
 800881c:	89a3      	ldrh	r3, [r4, #12]
 800881e:	f023 0303 	bic.w	r3, r3, #3
 8008822:	f043 0301 	orr.w	r3, r3, #1
 8008826:	81a3      	strh	r3, [r4, #12]
 8008828:	89a3      	ldrh	r3, [r4, #12]
 800882a:	431d      	orrs	r5, r3
 800882c:	81a5      	strh	r5, [r4, #12]
 800882e:	e7cf      	b.n	80087d0 <__smakebuf_r+0x18>

08008830 <_fstat_r>:
 8008830:	b538      	push	{r3, r4, r5, lr}
 8008832:	4d07      	ldr	r5, [pc, #28]	@ (8008850 <_fstat_r+0x20>)
 8008834:	2300      	movs	r3, #0
 8008836:	4604      	mov	r4, r0
 8008838:	4608      	mov	r0, r1
 800883a:	4611      	mov	r1, r2
 800883c:	602b      	str	r3, [r5, #0]
 800883e:	f7f8 fe60 	bl	8001502 <_fstat>
 8008842:	1c43      	adds	r3, r0, #1
 8008844:	d102      	bne.n	800884c <_fstat_r+0x1c>
 8008846:	682b      	ldr	r3, [r5, #0]
 8008848:	b103      	cbz	r3, 800884c <_fstat_r+0x1c>
 800884a:	6023      	str	r3, [r4, #0]
 800884c:	bd38      	pop	{r3, r4, r5, pc}
 800884e:	bf00      	nop
 8008850:	20004df4 	.word	0x20004df4

08008854 <_isatty_r>:
 8008854:	b538      	push	{r3, r4, r5, lr}
 8008856:	4d06      	ldr	r5, [pc, #24]	@ (8008870 <_isatty_r+0x1c>)
 8008858:	2300      	movs	r3, #0
 800885a:	4604      	mov	r4, r0
 800885c:	4608      	mov	r0, r1
 800885e:	602b      	str	r3, [r5, #0]
 8008860:	f7f8 fe54 	bl	800150c <_isatty>
 8008864:	1c43      	adds	r3, r0, #1
 8008866:	d102      	bne.n	800886e <_isatty_r+0x1a>
 8008868:	682b      	ldr	r3, [r5, #0]
 800886a:	b103      	cbz	r3, 800886e <_isatty_r+0x1a>
 800886c:	6023      	str	r3, [r4, #0]
 800886e:	bd38      	pop	{r3, r4, r5, pc}
 8008870:	20004df4 	.word	0x20004df4

08008874 <_init>:
 8008874:	b5f8      	push	{r3, r4, r5, r6, r7, lr}
 8008876:	bf00      	nop
 8008878:	bcf8      	pop	{r3, r4, r5, r6, r7}
 800887a:	bc08      	pop	{r3}
 800887c:	469e      	mov	lr, r3
 800887e:	4770      	bx	lr

08008880 <_fini>:
 8008880:	b5f8      	push	{r3, r4, r5, r6, r7, lr}
 8008882:	bf00      	nop
 8008884:	bcf8      	pop	{r3, r4, r5, r6, r7}
 8008886:	bc08      	pop	{r3}
 8008888:	469e      	mov	lr, r3
 800888a:	4770      	bx	lr
